 vorbis

 Timestamp is 5db87fa4 (Tue Oct 29 15:06:28 2019)

 Preferred load address is 0000000180000000

 Start         Length     Name                   Class
 0001:00000000 00036b60H .text$mn                CODE
 0001:00036b60 00000020H .text$mn$00             CODE
 0001:00036b80 00000250H .text$x                 CODE
 0002:00000000 000002b8H .idata$5                DATA
 0002:000002b8 00000010H .00cfg                  DATA
 0002:000002c8 00000008H .CRT$XCA                DATA
 0002:000002d0 00000008H .CRT$XCU                DATA
 0002:000002d8 00000008H .CRT$XCZ                DATA
 0002:000002e0 00000008H .CRT$XIA                DATA
 0002:000002e8 00000018H .CRT$XIC                DATA
 0002:00000300 00000008H .CRT$XIZ                DATA
 0002:00000308 00000008H .CRT$XPA                DATA
 0002:00000310 00000010H .CRT$XPX                DATA
 0002:00000320 00000008H .CRT$XPXA               DATA
 0002:00000328 00000008H .CRT$XPZ                DATA
 0002:00000330 00000008H .CRT$XTA                DATA
 0002:00000338 00000008H .CRT$XTZ                DATA
 0002:00000340 00000000H .gfids$y                DATA
 0002:00000340 00185f30H .rdata                  DATA
 0002:00186270 000001f4H .rdata$r                DATA
 0002:00186464 000003bcH .rdata$zzzdbg           DATA
 0002:00186820 00000008H .rtc$IAA                DATA
 0002:00186828 00000008H .rtc$IZZ                DATA
 0002:00186830 00000008H .rtc$TAA                DATA
 0002:00186838 00000008H .rtc$TZZ                DATA
 0002:00186840 00002828H .xdata                  DATA
 0002:00189068 000000ecH .xdata$x                DATA
 0002:00189154 00000020H .didat$2                DATA
 0002:00189174 00000024H .didat$3                DATA
 0002:00189198 00000168H .didat$4                DATA
 0002:00189300 00000c88H .didat$6                DATA
 0002:00189f88 00000168H .didat$7                DATA
 0002:0018a0f0 00000050H .edata                  DATA
 0002:0018a140 00000028H .idata$2                DATA
 0002:0018a168 00000018H .idata$3                DATA
 0002:0018a180 000002b8H .idata$4                DATA
 0002:0018a438 00000646H .idata$6                DATA
 0003:00000000 00000ac0H .data                   DATA
 0003:00000ac0 000000a0H .data$r                 DATA
 0003:00000b60 00000170H .didat$5                DATA
 0003:00000cd0 00001208H .bss                    DATA
 0004:00000000 000021b4H .pdata                  DATA
 0005:00000000 00000094H _RDATA                  DATA
 0006:00000000 00000060H .rsrc$01                DATA
 0006:00000060 00000180H .rsrc$02                DATA

  Address         Publics by Value              Rva+Base               Lib:Object

 0000:00000000       __guard_fids_count         0000000000000000     <absolute>
 0000:00000000       __guard_longjmp_count      0000000000000000     <absolute>
 0000:00000000       __hybrid_code_map          0000000000000000     <absolute>
 0000:00000000       __guard_longjmp_table      0000000000000000     <absolute>
 0000:00000000       __guard_iat_count          0000000000000000     <absolute>
 0000:00000000       __volatile_metadata        0000000000000000     <absolute>
 0000:00000000       __guard_iat_table          0000000000000000     <absolute>
 0000:00000000       __hybrid_code_map_count    0000000000000000     <absolute>
 0000:00000000       __enclave_config           0000000000000000     <absolute>
 0000:00000000       ___safe_se_handler_count   0000000000000000     <absolute>
 0000:00000000       __AbsoluteZero             0000000000000000     <absolute>
 0000:00000000       ___safe_se_handler_table   0000000000000000     <absolute>
 0000:00000000       __guard_fids_table         0000000000000000     <absolute>
 0000:00000000       __hybrid_auxiliary_iat     0000000000000000     <absolute>
 0000:00000000       __dynamic_value_reloc_table 0000000000000000     <absolute>
 0000:00000100       __guard_flags              0000000000000100     <absolute>
 0000:00000000       __ImageBase                0000000180000000     <linker-defined>
 0001:000000e0       ?Call@Callback@Nan@@QEBA?AV?$MaybeLocal@VValue@v8@@@v8@@HQEAV?$Local@VValue@v8@@@4@PEAVAsyncResource@2@@Z 00000001800010e0 f i binding.obj
 0001:000001f0       ??0AsyncWorker@Nan@@QEAA@PEAVCallback@1@PEBD@Z 00000001800011f0 f i binding.obj
 0001:00000370       ??1AsyncWorker@Nan@@UEAA@XZ 0000000180001370 f i binding.obj
 0001:00000440       ?WorkComplete@AsyncWorker@Nan@@UEAAXXZ 0000000180001440 f i binding.obj
 0001:000004d0       ?Destroy@AsyncWorker@Nan@@UEAAXXZ 00000001800014d0 f i binding.obj
 0001:000004f0       ?HandleOKCallback@AsyncWorker@Nan@@MEAAXXZ 00000001800014f0 f i binding.obj
 0001:00000550       ?HandleErrorCallback@AsyncWorker@Nan@@MEAAXXZ 0000000180001550 f i binding.obj
 0001:00000600       ??_GAsyncWorker@Nan@@UEAAPEAXI@Z 0000000180001600 f i binding.obj
 0001:00000600       ??_EAsyncWorker@Nan@@UEAAPEAXI@Z 0000000180001600 f i * CIL library *:* CIL module *
 0001:00000640       ?AsyncExecute@Nan@@YAXPEAUuv_work_s@@@Z 0000000180001640 f i binding.obj
 0001:00000650       ?AsyncExecuteComplete@Nan@@YAXPEAUuv_work_s@@@Z 0000000180001650 f i binding.obj
 0001:00000680       ?node_vorbis_info_init@nodevorbis@@YAXAEBV?$FunctionCallbackInfo@VValue@v8@@@Nan@@@Z 0000000180001680 f   binding.obj
 0001:00000710       ?node_vorbis_comment_init@nodevorbis@@YAXAEBV?$FunctionCallbackInfo@VValue@v8@@@Nan@@@Z 0000000180001710 f   binding.obj
 0001:00000780       ?node_vorbis_synthesis_init@nodevorbis@@YAXAEBV?$FunctionCallbackInfo@VValue@v8@@@Nan@@@Z 0000000180001780 f   binding.obj
 0001:00000950       ?node_vorbis_analysis_init@nodevorbis@@YAXAEBV?$FunctionCallbackInfo@VValue@v8@@@Nan@@@Z 0000000180001950 f   binding.obj
 0001:00000c60       ?node_vorbis_block_init@nodevorbis@@YAXAEBV?$FunctionCallbackInfo@VValue@v8@@@Nan@@@Z 0000000180001c60 f   binding.obj
 0001:00000e40       ?node_vorbis_encode_init_vbr@nodevorbis@@YAXAEBV?$FunctionCallbackInfo@VValue@v8@@@Nan@@@Z 0000000180001e40 f   binding.obj
 0001:00001060       ?node_comment_array@nodevorbis@@YAXAEBV?$FunctionCallbackInfo@VValue@v8@@@Nan@@@Z 0000000180002060 f   binding.obj
 0001:000012d0       ?node_get_format@nodevorbis@@YAXAEBV?$FunctionCallbackInfo@VValue@v8@@@Nan@@@Z 00000001800022d0 f   binding.obj
 0001:00001ad0       ?node_vorbis_analysis_headerout@nodevorbis@@YAXAEBV?$FunctionCallbackInfo@VValue@v8@@@Nan@@@Z 0000000180002ad0 f   binding.obj
 0001:00001cf0       ?Execute@AnalysisWriteWorker@nodevorbis@@UEAAXXZ 0000000180002cf0 f i binding.obj
 0001:00001da0       ?HandleOKCallback@AnalysisWriteWorker@nodevorbis@@UEAAXXZ 0000000180002da0 f i binding.obj
 0001:00001da0       ?HandleOKCallback@SynthesisHeaderinWorker@nodevorbis@@UEAAXXZ 0000000180002da0 f i binding.obj
 0001:00001e90       ??_GAnalysisWriteWorker@nodevorbis@@UEAAPEAXI@Z 0000000180002e90 f i binding.obj
 0001:00001e90       ??_EAnalysisWriteWorker@nodevorbis@@UEAAPEAXI@Z 0000000180002e90 f i * CIL library *:* CIL module *
 0001:00001ed0       ?node_vorbis_analysis_write@nodevorbis@@YAXAEBV?$FunctionCallbackInfo@VValue@v8@@@Nan@@@Z 0000000180002ed0 f   binding.obj
 0001:000020b0       ?Execute@AnalysisBlockoutWorker@nodevorbis@@UEAAXXZ 00000001800030b0 f i binding.obj
 0001:000020e0       ?HandleOKCallback@AnalysisBlockoutWorker@nodevorbis@@UEAAXXZ 00000001800030e0 f i binding.obj
 0001:000020e0       ?HandleOKCallback@BitrateFlushpacketWorker@nodevorbis@@UEAAXXZ 00000001800030e0 f i binding.obj
 0001:000021d0       ??_GAnalysisBlockoutWorker@nodevorbis@@UEAAPEAXI@Z 00000001800031d0 f i binding.obj
 0001:000021d0       ??_EAnalysisBlockoutWorker@nodevorbis@@UEAAPEAXI@Z 00000001800031d0 f i * CIL library *:* CIL module *
 0001:00002210       ?node_vorbis_analysis_blockout@nodevorbis@@YAXAEBV?$FunctionCallbackInfo@VValue@v8@@@Nan@@@Z 0000000180003210 f   binding.obj
 0001:00002390       ?node_vorbis_analysis_eos@nodevorbis@@YAXAEBV?$FunctionCallbackInfo@VValue@v8@@@Nan@@@Z 0000000180003390 f   binding.obj
 0001:000024a0       ?node_vorbis_analysis@nodevorbis@@YAXAEBV?$FunctionCallbackInfo@VValue@v8@@@Nan@@@Z 00000001800034a0 f   binding.obj
 0001:000026c0       ?node_vorbis_bitrate_addblock@nodevorbis@@YAXAEBV?$FunctionCallbackInfo@VValue@v8@@@Nan@@@Z 00000001800036c0 f   binding.obj
 0001:000027d0       ?Execute@BitrateFlushpacketWorker@nodevorbis@@UEAAXXZ 00000001800037d0 f i binding.obj
 0001:000028d0       ??_EBitrateFlushpacketWorker@nodevorbis@@UEAAPEAXI@Z 00000001800038d0 f i * CIL library *:* CIL module *
 0001:000028d0       ??_GBitrateFlushpacketWorker@nodevorbis@@UEAAPEAXI@Z 00000001800038d0 f i binding.obj
 0001:00002910       ?node_vorbis_bitrate_flushpacket@nodevorbis@@YAXAEBV?$FunctionCallbackInfo@VValue@v8@@@Nan@@@Z 0000000180003910 f   binding.obj
 0001:00002a90       ?Execute@SynthesisIdheaderWorker@nodevorbis@@UEAAXXZ 0000000180003a90 f i binding.obj
 0001:00002b80       ?HandleOKCallback@SynthesisIdheaderWorker@nodevorbis@@UEAAXXZ 0000000180003b80 f i binding.obj
 0001:00002c20       ??_GSynthesisIdheaderWorker@nodevorbis@@UEAAPEAXI@Z 0000000180003c20 f i binding.obj
 0001:00002c20       ??_ESynthesisIdheaderWorker@nodevorbis@@UEAAPEAXI@Z 0000000180003c20 f i * CIL library *:* CIL module *
 0001:00002c60       ?node_vorbis_synthesis_idheader@nodevorbis@@YAXAEBV?$FunctionCallbackInfo@VValue@v8@@@Nan@@@Z 0000000180003c60 f   binding.obj
 0001:00002d90       ?Execute@SynthesisHeaderinWorker@nodevorbis@@UEAAXXZ 0000000180003d90 f i binding.obj
 0001:00002dc0       ??_ESynthesisHeaderinWorker@nodevorbis@@UEAAPEAXI@Z 0000000180003dc0 f i * CIL library *:* CIL module *
 0001:00002dc0       ??_GSynthesisHeaderinWorker@nodevorbis@@UEAAPEAXI@Z 0000000180003dc0 f i binding.obj
 0001:00002e00       ?node_vorbis_synthesis_headerin@nodevorbis@@YAXAEBV?$FunctionCallbackInfo@VValue@v8@@@Nan@@@Z 0000000180003e00 f   binding.obj
 0001:00002fc0       ?node_vorbis_synthesis@nodevorbis@@YAXAEBV?$FunctionCallbackInfo@VValue@v8@@@Nan@@@Z 0000000180003fc0 f   binding.obj
 0001:00003120       ?node_vorbis_synthesis_blockin@nodevorbis@@YAXAEBV?$FunctionCallbackInfo@VValue@v8@@@Nan@@@Z 0000000180004120 f   binding.obj
 0001:00003280       ?node_vorbis_synthesis_pcmout@nodevorbis@@YAXAEBV?$FunctionCallbackInfo@VValue@v8@@@Nan@@@Z 0000000180004280 f   binding.obj
 0001:000035b0       ?Initialize@nodevorbis@@YAXV?$Local@VObject@v8@@@v8@@@Z 00000001800045b0 f   binding.obj
 0001:00004b00       ??$SetMethod@VObject@v8@@VLocal@2@@Nan@@YAXV?$Local@VObject@v8@@@v8@@PEBDP6AXAEBV?$FunctionCallbackInfo@VValue@v8@@@0@@Z@Z 0000000180005b00 f i binding.obj
 0001:00004d40       ??$SetMethodAux@V?$Local@VObject@v8@@@v8@@@imp@Nan@@YAXV?$Local@VObject@v8@@@v8@@V?$Local@VString@v8@@@3@V?$Local@VFunctionTemplate@v8@@@3@ZZ 0000000180005d40 f i binding.obj
 0001:00004e50       _vorbis_block_ripcord      0000000180005e50 f   libvorbis:block.obj
 0001:00005560       vorbis_dsp_clear           0000000180006560 f   libvorbis:block.obj
 0001:00005a30       vorbis_analysis_buffer     0000000180006a30 f   libvorbis:block.obj
 0001:00005cd0       vorbis_analysis_wrote      0000000180006cd0 f   libvorbis:block.obj
 0001:00005e50       vorbis_analysis_blockout   0000000180006e50 f   libvorbis:block.obj
 0001:00006340       vorbis_synthesis_blockin   0000000180007340 f   libvorbis:block.obj
 0001:00006d90       vorbis_info_clear          0000000180007d90 f   libvorbis:info.obj
 0001:00007590       vorbis_synthesis_headerin  0000000180008590 f   libvorbis:info.obj
 0001:00007c30       vorbis_analysis_headerout  0000000180008c30 f   libvorbis:info.obj
 0001:00007ff0       vorbis_bitrate_managed     0000000180008ff0 f   libvorbis:bitrate.obj
 0001:00008010       vorbis_bitrate_addblock    0000000180009010 f   libvorbis:bitrate.obj
 0001:00008500       vorbis_synthesis           0000000180009500 f   libvorbis:synthesis.obj
 0001:00008770       vorbis_lpc_from_data       0000000180009770 f   libvorbis:lpc.obj
 0001:00008e00       vorbis_lpc_predict         0000000180009e00 f   libvorbis:lpc.obj
 0001:00009020       _make_words                000000018000a020 f   libvorbis:sharedbook.obj
 0001:00009220       _book_maptype1_quantvals   000000018000a220 f   libvorbis:sharedbook.obj
 0001:000092b0       _book_unquantize           000000018000a2b0 f   libvorbis:sharedbook.obj
 0001:000095a0       vorbis_book_init_decode    000000018000a5a0 f   libvorbis:sharedbook.obj
 0001:00009c70       _ve_envelope_init          000000018000ac70 f   libvorbis:envelope.obj
 0001:0000a750       _ve_envelope_search        000000018000b750 f   libvorbis:envelope.obj
 0001:0000bf20       _vp_psy_init               000000018000cf20 f   libvorbis:psy.obj
 0001:0000d810       _vp_noisemask              000000018000e810 f   libvorbis:psy.obj
 0001:0000dd70       _vp_tonemask               000000018000ed70 f   libvorbis:psy.obj
 0001:0000e0e0       _vp_offset_and_mix         000000018000f0e0 f   libvorbis:psy.obj
 0001:0000eb60       _vp_couple_quantize_normalize 000000018000fb60 f   libvorbis:psy.obj
 0001:0000f8f0       mdct_init                  00000001800108f0 f   libvorbis:mdct.obj
 0001:000107a0       mdct_backward              00000001800117a0 f   libvorbis:mdct.obj
 0001:00010b70       mdct_forward               0000000180011b70 f   libvorbis:mdct.obj
 0001:00013b60       _vorbis_apply_window       0000000180014b60 f   libvorbis:window.obj
 0001:00013e10       vorbis_staticbook_pack     0000000180014e10 f   libvorbis:codebook.obj
 0001:00014150       vorbis_staticbook_unpack   0000000180015150 f   libvorbis:codebook.obj
 0001:000146b0       vorbis_book_decodevs_add   00000001800156b0 f   libvorbis:codebook.obj
 0001:000148b0       vorbis_book_decodev_add    00000001800158b0 f   libvorbis:codebook.obj
 0001:00017080       res0_free_info             0000000180018080 f   libvorbis:res0.obj
 0001:000170b0       res0_free_look             00000001800180b0 f   libvorbis:res0.obj
 0001:00017170       res0_pack                  0000000180018170 f   libvorbis:res0.obj
 0001:000172c0       res0_unpack                00000001800182c0 f   libvorbis:res0.obj
 0001:000174c0       res0_look                  00000001800184c0 f   libvorbis:res0.obj
 0001:000188e0       res0_inverse               00000001800198e0 f   libvorbis:res0.obj
 0001:00018950       res1_forward               0000000180019950 f   libvorbis:res0.obj
 0001:000189d0       res1_class                 00000001800199d0 f   libvorbis:res0.obj
 0001:00018a30       res1_inverse               0000000180019a30 f   libvorbis:res0.obj
 0001:00018aa0       res2_class                 0000000180019aa0 f   libvorbis:res0.obj
 0001:00018bf0       res2_forward               0000000180019bf0 f   libvorbis:res0.obj
 0001:00018d60       res2_inverse               0000000180019d60 f   libvorbis:res0.obj
 0001:0001aca0       floor1_fit                 000000018001bca0 f   libvorbis:floor1.obj
 0001:0001b350       floor1_interpolate_fit     000000018001c350 f   libvorbis:floor1.obj
 0001:0001b600       floor1_encode              000000018001c600 f   libvorbis:floor1.obj
 0001:0001c3a0       vorbis_lsp_to_curve        000000018001d3a0 f   libvorbis:lsp.obj
 0001:0001ef20       vorbis_encode_setup_init   000000018001ff20 f   libvorbisenc:vorbisenc.obj
 0001:0001ff5f       __imp_load_uv_queue_work   0000000180020f5f f   node:node.exe
 0001:0001ff6b       __tailMerge_node_exe       0000000180020f6b     node:node.exe
 0001:0001ffe4       __imp_load_?Global@Context@v8@@QEAA?AV?$Local@VObject@v8@@@2@XZ 0000000180020fe4 f   node:node.exe
 0001:0001fff0       __imp_load_?Value@External@v8@@QEBAPEAXXZ 0000000180020ff0 f   node:node.exe
 0001:0001fffc       __imp_load_?New@External@v8@@SA?AV?$Local@VExternal@v8@@@2@PEAVIsolate@2@PEAX@Z 0000000180020ffc f   node:node.exe
 0001:00020008       __imp_load_?New@Integer@v8@@SA?AV?$Local@VInteger@v8@@@2@PEAVIsolate@2@H@Z 0000000180021008 f   node:node.exe
 0001:00020014       __imp_load_?GetCurrentContext@Isolate@v8@@QEAA?AV?$Local@VContext@v8@@@2@XZ 0000000180021014 f   node:node.exe
 0001:00020020       __imp_load_?GetCurrent@Isolate@v8@@SAPEAV12@XZ 0000000180021020 f   node:node.exe
 0001:0002002c       __imp_load_?CreateHandle@HandleScope@v8@@KAPEAPEAVObject@internal@2@PEAVIsolate@42@PEAV342@@Z 000000018002102c f   node:node.exe
 0001:00020038       __imp_load_?CreateHandle@HandleScope@v8@@CAPEAPEAVObject@internal@2@PEAVHeapObject@42@PEAV342@@Z 0000000180021038 f   node:node.exe
 0001:00020044       __imp_load_??1HandleScope@v8@@QEAA@XZ 0000000180021044 f   node:node.exe
 0001:00020050       __imp_load_??0HandleScope@v8@@QEAA@PEAVIsolate@1@@Z 0000000180021050 f   node:node.exe
 0001:0002005c       __imp_load_?Error@Exception@v8@@SA?AV?$Local@VValue@v8@@@2@V?$Local@VString@v8@@@2@@Z 000000018002105c f   node:node.exe
 0001:00020068       __imp_load_?New@Array@v8@@SA?AV?$Local@VArray@v8@@@2@PEAVIsolate@2@H@Z 0000000180021068 f   node:node.exe
 0001:00020074       __imp_load_?SetClassName@FunctionTemplate@v8@@QEAAXV?$Local@VString@v8@@@2@@Z 0000000180021074 f   node:node.exe
 0001:00020080       __imp_load_?GetFunction@FunctionTemplate@v8@@QEAA?AV?$MaybeLocal@VFunction@v8@@@2@V?$Local@VContext@v8@@@2@@Z 0000000180021080 f   node:node.exe
 0001:0002008c       __imp_load_?New@FunctionTemplate@v8@@SA?AV?$Local@VFunctionTemplate@v8@@@2@PEAVIsolate@2@P6AXAEBV?$FunctionCallbackInfo@VValue@v8@@@2@@ZV?$Local@VValue@v8@@@2@V?$Local@VSignature@v8@@@2@HW4ConstructorBehavior@2@W4SideEffectType@2@@Z 000000018002108c f   node:node.exe
 0001:00020098       __imp_load_?ToLocalEmpty@V8@v8@@CAXXZ 0000000180021098 f   node:node.exe
 0001:000200a4       __imp_load_?DisposeGlobal@V8@v8@@CAXPEAPEAVObject@internal@2@@Z 00000001800210a4 f   node:node.exe
 0001:000200b0       __imp_load_?GlobalizeReference@V8@v8@@CAPEAPEAVObject@internal@2@PEAVIsolate@42@PEAPEAV342@@Z 00000001800210b0 f   node:node.exe
 0001:000200bc       __imp_load_?Int32Value@Value@v8@@QEBAHXZ 00000001800210bc f   node:node.exe
 0001:000200c8       __imp_load_?IntegerValue@Value@v8@@QEBA_JXZ 00000001800210c8 f   node:node.exe
 0001:000200d4       __imp_load_?NumberValue@Value@v8@@QEBANXZ 00000001800210d4 f   node:node.exe
 0001:000200e0       __imp_load_?ToInteger@Value@v8@@QEBA?AV?$MaybeLocal@VInteger@v8@@@2@V?$Local@VContext@v8@@@2@@Z 00000001800210e0 f   node:node.exe
 0001:000200ec       __imp_load_?Escape@EscapableHandleScope@v8@@AEAAPEAPEAVObject@internal@2@PEAPEAV342@@Z 00000001800210ec f   node:node.exe
 0001:000200f8       __imp_load_??0EscapableHandleScope@v8@@QEAA@PEAVIsolate@1@@Z 00000001800210f8 f   node:node.exe
 0001:00020104       __imp_load_?NewFromUtf8@String@v8@@SA?AV?$MaybeLocal@VString@v8@@@2@PEAVIsolate@2@PEBDW4NewStringType@2@H@Z 0000000180021104 f   node:node.exe
 0001:00020110       __imp_load_?New@Number@v8@@SA?AV?$Local@VNumber@v8@@@2@PEAVIsolate@2@N@Z 0000000180021110 f   node:node.exe
 0001:0002011c       __imp_load_?SlowGetInternalField@Object@v8@@AEAA?AV?$Local@VValue@v8@@@2@H@Z 000000018002111c f   node:node.exe
 0001:00020128       __imp_load_?New@Object@v8@@SA?AV?$Local@VObject@v8@@@2@PEAVIsolate@2@@Z 0000000180021128 f   node:node.exe
 0001:00020134       __imp_load_?SetInternalField@Object@v8@@QEAAXHV?$Local@VValue@v8@@@2@@Z 0000000180021134 f   node:node.exe
 0001:00020140       __imp_load_?DefineOwnProperty@Object@v8@@QEAA?AV?$Maybe@_N@2@V?$Local@VContext@v8@@@2@V?$Local@VName@v8@@@2@V?$Local@VValue@v8@@@2@W4PropertyAttribute@2@@Z 0000000180021140 f   node:node.exe
 0001:0002014c       __imp_load_?Set@Object@v8@@QEAA?AV?$Maybe@_N@2@V?$Local@VContext@v8@@@2@V?$Local@VValue@v8@@@2@1@Z 000000018002114c f   node:node.exe
 0001:00020158       __imp_load_?Set@Object@v8@@QEAA?AV?$Maybe@_N@2@V?$Local@VContext@v8@@@2@IV?$Local@VValue@v8@@@2@@Z 0000000180021158 f   node:node.exe
 0001:00020164       __imp_load_?SetInternalFieldCount@ObjectTemplate@v8@@QEAAXH@Z 0000000180021164 f   node:node.exe
 0001:00020170       __imp_load_?NewInstance@ObjectTemplate@v8@@QEAA?AV?$MaybeLocal@VObject@v8@@@2@V?$Local@VContext@v8@@@2@@Z 0000000180021170 f   node:node.exe
 0001:0002017c       __imp_load_?New@ObjectTemplate@v8@@SA?AV?$Local@VObjectTemplate@v8@@@2@PEAVIsolate@2@V?$Local@VFunctionTemplate@v8@@@2@@Z 000000018002117c f   node:node.exe
 0001:00020188       __imp_load_?EmitAsyncDestroy@node@@YAXPEAVIsolate@v8@@Uasync_context@1@@Z 0000000180021188 f   node:node.exe
 0001:00020194       __imp_load_node_module_register 0000000180021194 f   node:node.exe
 0001:000201a0       __imp_load_?HasInstance@Buffer@node@@YA_NV?$Local@VValue@v8@@@v8@@@Z 00000001800211a0 f   node:node.exe
 0001:000201ac       __imp_load_?New@Buffer@node@@YA?AV?$MaybeLocal@VObject@v8@@@v8@@PEAVIsolate@4@_K@Z 00000001800211ac f   node:node.exe
 0001:000201b8       __imp_load_?Data@Buffer@node@@YAPEADV?$Local@VObject@v8@@@v8@@@Z 00000001800211b8 f   node:node.exe
 0001:000201c4       __imp_load_?MakeCallback@node@@YA?AV?$MaybeLocal@VValue@v8@@@v8@@PEAVIsolate@3@V?$Local@VObject@v8@@@3@V?$Local@VFunction@v8@@@3@HPEAV?$Local@VValue@v8@@@3@Uasync_context@1@@Z 00000001800211c4 f   node:node.exe
 0001:000201d0       __imp_load_?EmitAsyncInit@node@@YA?AUasync_context@1@PEAVIsolate@v8@@V?$Local@VObject@v8@@@4@V?$Local@VString@v8@@@4@N@Z 00000001800211d0 f   node:node.exe
 0001:000201dc       __imp_load_?GetCurrentEventLoop@node@@YAPEAUuv_loop_s@@PEAVIsolate@v8@@@Z 00000001800211dc f   node:node.exe
 0001:00020200       __security_check_cookie    0000000180021200 f   LIBCMT:amdsecgs.obj
 0001:00020224       ??3@YAXPEAX_K@Z            0000000180021224 f   LIBCMT:delete_scalar_size.obj
 0001:00020224       ??_V@YAXPEAX@Z             0000000180021224 f   LIBCMT:delete_array.obj
 0001:0002022c       ??2@YAPEAX_K@Z             000000018002122c f   LIBCMT:new_scalar.obj
 0001:00020588       _DllMainCRTStartup         0000000180021588 f   LIBCMT:dll_dllmain.obj
 0001:000205c8       __raise_securityfailure    00000001800215c8 f   LIBCMT:gs_report.obj
 0001:000205fc       __report_gsfailure         00000001800215fc f   LIBCMT:gs_report.obj
 0001:000206d0       __report_rangecheckfailure 00000001800216d0 f   LIBCMT:gs_report.obj
 0001:000206e4       __report_securityfailure   00000001800216e4 f   LIBCMT:gs_report.obj
 0001:00020864       ??3@YAXPEAX@Z              0000000180021864 f   LIBCMT:delete_scalar.obj
 0001:0002086c       ??0bad_alloc@std@@QEAA@AEBV01@@Z 000000018002186c f i LIBCMT:throw_bad_alloc.obj
 0001:000208a8       ??0bad_alloc@std@@QEAA@XZ  00000001800218a8 f i LIBCMT:throw_bad_alloc.obj
 0001:000208c8       ??0bad_array_new_length@std@@QEAA@AEBV01@@Z 00000001800218c8 f i LIBCMT:throw_bad_alloc.obj
 0001:00020904       ??0bad_array_new_length@std@@QEAA@XZ 0000000180021904 f i LIBCMT:throw_bad_alloc.obj
 0001:00020924       ??0exception@std@@QEAA@AEBV01@@Z 0000000180021924 f i LIBCMT:throw_bad_alloc.obj
 0001:00020958       ??1bad_alloc@std@@UEAA@XZ  0000000180021958 f i LIBCMT:throw_bad_alloc.obj
 0001:00020958       ??1bad_array_new_length@std@@UEAA@XZ 0000000180021958 f i LIBCMT:throw_bad_alloc.obj
 0001:0002096c       ??_Gbad_alloc@std@@UEAAPEAXI@Z 000000018002196c f i LIBCMT:throw_bad_alloc.obj
 0001:0002096c       ??_Ebad_alloc@std@@UEAAPEAXI@Z 000000018002196c f i LIBCMT:throw_bad_alloc.obj
 0001:0002096c       ??_Eexception@std@@UEAAPEAXI@Z 000000018002196c f i LIBCMT:throw_bad_alloc.obj
 0001:0002096c       ??_Ebad_array_new_length@std@@UEAAPEAXI@Z 000000018002196c f i LIBCMT:throw_bad_alloc.obj
 0001:0002096c       ??_Gexception@std@@UEAAPEAXI@Z 000000018002196c f i LIBCMT:throw_bad_alloc.obj
 0001:0002096c       ??_Gbad_array_new_length@std@@UEAAPEAXI@Z 000000018002196c f i LIBCMT:throw_bad_alloc.obj
 0001:000209b0       ?__scrt_throw_std_bad_alloc@@YAXXZ 00000001800219b0 f   LIBCMT:throw_bad_alloc.obj
 0001:000209d0       ?__scrt_throw_std_bad_array_new_length@@YAXXZ 00000001800219d0 f   LIBCMT:throw_bad_alloc.obj
 0001:000209f0       ?what@exception@std@@UEBAPEBDXZ 00000001800219f0 f i LIBCMT:throw_bad_alloc.obj
 0001:00020a04       __security_init_cookie     0000000180021a04 f   LIBCMT:gs_support.obj
 0001:00020ab0       _get_startup_argv_mode     0000000180021ab0 f   LIBCMT:argv_mode.obj
 0001:00020ab0       DllMain                    0000000180021ab0 f   LIBCMT:dll_dllmain_stub.obj
 0001:00020ab8       ?__scrt_initialize_type_info@@YAXXZ 0000000180021ab8 f   LIBCMT:tncleanup.obj
 0001:00020ac8       ?__scrt_uninitialize_type_info@@YAXXZ 0000000180021ac8 f   LIBCMT:tncleanup.obj
 0001:00020ad4       __local_stdio_printf_options 0000000180021ad4 f i LIBCMT:default_local_stdio_options.obj
 0001:00020adc       __local_stdio_scanf_options 0000000180021adc f i LIBCMT:default_local_stdio_options.obj
 0001:00020ae4       __scrt_initialize_default_local_stdio_options 0000000180021ae4 f   LIBCMT:default_local_stdio_options.obj
 0001:00020b00       __scrt_acquire_startup_lock 0000000180021b00 f   LIBCMT:utility.obj
 0001:00020b3c       __scrt_dllmain_after_initialize_c 0000000180021b3c f   LIBCMT:utility.obj
 0001:00020b70       __scrt_dllmain_before_initialize_c 0000000180021b70 f   LIBCMT:utility.obj
 0001:00020b88       __scrt_dllmain_crt_thread_attach 0000000180021b88 f   LIBCMT:utility.obj
 0001:00020bb0       __scrt_dllmain_crt_thread_detach 0000000180021bb0 f   LIBCMT:utility.obj
 0001:00020bc8       __scrt_dllmain_exception_filter 0000000180021bc8 f   LIBCMT:utility.obj
 0001:00020c28       __scrt_dllmain_uninitialize_c 0000000180021c28 f   LIBCMT:utility.obj
 0001:00020c58       __scrt_dllmain_uninitialize_critical 0000000180021c58 f   LIBCMT:utility.obj
 0001:00020c6c       __scrt_initialize_crt      0000000180021c6c f   LIBCMT:utility.obj
 0001:00020cb8       __scrt_initialize_onexit_tables 0000000180021cb8 f   LIBCMT:utility.obj
 0001:00020d44       __scrt_is_nonwritable_in_current_image 0000000180021d44 f   LIBCMT:utility.obj
 0001:00020ddc       __scrt_release_startup_lock 0000000180021ddc f   LIBCMT:utility.obj
 0001:00020e00       __scrt_uninitialize_crt    0000000180021e00 f   LIBCMT:utility.obj
 0001:00020e2c       __scrt_get_dyn_tls_init_callback 0000000180021e2c f   LIBCMT:dyn_tls_init.obj
 0001:00020e34       __crt_debugger_hook        0000000180021e34 f   LIBCMT:utility_desktop.obj
 0001:00020e3c       __scrt_fastfail            0000000180021e3c f   LIBCMT:utility_desktop.obj
 0001:00020f88       _RTC_Initialize            0000000180021f88 f   LIBCMT:initsect.obj
 0001:00020fc4       _RTC_Terminate             0000000180021fc4 f   LIBCMT:initsect.obj
 0001:00021000       _guard_check_icall_nop     0000000180022000 f i LIBCMT:guard_support.obj
 0001:00021004       ??_Etype_info@@UEAAPEAXI@Z 0000000180022004 f i LIBCMT:std_type_info_static.obj
 0001:00021004       ??_Gtype_info@@UEAAPEAXI@Z 0000000180022004 f i LIBCMT:std_type_info_static.obj
 0001:00021030       __isa_available_init       0000000180022030 f   LIBCMT:cpu_disp.obj
 0001:000211ac       __scrt_is_ucrt_dll_in_use  00000001800221ac f   LIBCMT:ucrt_detection.obj
 0001:000211c0       _purecall                  00000001800221c0 f   libvcruntime:purevirt.obj
 0001:000211dc       __C_specific_handler       00000001800221dc f   libvcruntime:riscchandler.obj
 0001:000213e8       __std_exception_copy       00000001800223e8 f   libvcruntime:std_exception.obj
 0001:00021478       __std_exception_destroy    0000000180022478 f   libvcruntime:std_exception.obj
 0001:000214a0       _CxxThrowException         00000001800224a0 f   libvcruntime:throw.obj
 0001:00021560       __std_type_info_destroy_list 0000000180022560 f   libvcruntime:std_type_info.obj
 0001:0002158c       __vcrt_initialize          000000018002258c f   libvcruntime:initialization.obj
 0001:000215b4       __vcrt_thread_attach       00000001800225b4 f   libvcruntime:initialization.obj
 0001:000215c8       __vcrt_thread_detach       00000001800225c8 f   libvcruntime:initialization.obj
 0001:000215dc       __vcrt_uninitialize        00000001800225dc f   libvcruntime:initialization.obj
 0001:000215f8       __vcrt_uninitialize_critical 00000001800225f8 f   libvcruntime:initialization.obj
 0001:00021620       memset_repmovs             0000000180022620 f   libvcruntime:memset.obj
 0001:00021640       memset                     0000000180022640 f   libvcruntime:memset.obj
 0001:000217e0       _NLG_Notify                00000001800227e0 f   libvcruntime:notify.obj
 0001:00021800       __NLG_Dispatch2            0000000180022800 f   libvcruntime:notify.obj
 0001:00021810       __NLG_Return2              0000000180022810 f   libvcruntime:notify.obj
 0001:00021814       __except_validate_context_record 0000000180022814 f   libvcruntime:jbcxrval.obj
 0001:0002184c       __DestructExceptionObject  000000018002284c f   libvcruntime:ehhelpers.obj
 0001:000218c0       ?_CallMemberFunction0@@YAXQEAX0@Z 00000001800228c0 f i libvcruntime:ehhelpers.obj
 0001:000218c4       __vcrt_freefls             00000001800228c4 f   libvcruntime:per_thread_data.obj
 0001:000218e4       __vcrt_freeptd             00000001800228e4 f   libvcruntime:per_thread_data.obj
 0001:00021934       __vcrt_getptd_noexit       0000000180022934 f   libvcruntime:per_thread_data.obj
 0001:000219f4       __vcrt_initialize_ptd      00000001800229f4 f   libvcruntime:per_thread_data.obj
 0001:00021a3c       __vcrt_uninitialize_ptd    0000000180022a3c f   libvcruntime:per_thread_data.obj
 0001:00021a60       __vcrt_initialize_locks    0000000180022a60 f   libvcruntime:locks.obj
 0001:00021aa8       __vcrt_uninitialize_locks  0000000180022aa8 f   libvcruntime:locks.obj
 0001:00021af0       memcpy_repmovs             0000000180022af0 f   libvcruntime:memcpy.obj
 0001:00021b10       memmove                    0000000180022b10 f   libvcruntime:memcpy.obj
 0001:00021b10       memcpy                     0000000180022b10 f   libvcruntime:memcpy.obj
 0001:00022044       __vcrt_FlsAlloc            0000000180023044 f   libvcruntime:winapi_downlevel.obj
 0001:0002208c       __vcrt_FlsFree             000000018002308c f   libvcruntime:winapi_downlevel.obj
 0001:000220d4       __vcrt_FlsGetValue         00000001800230d4 f   libvcruntime:winapi_downlevel.obj
 0001:0002211c       __vcrt_FlsSetValue         000000018002311c f   libvcruntime:winapi_downlevel.obj
 0001:00022170       __vcrt_InitializeCriticalSectionEx 0000000180023170 f   libvcruntime:winapi_downlevel.obj
 0001:000221f0       _CallSettingFrame          00000001800231f0 f   libvcruntime:handlers.obj
 0001:00022240       _CallSettingFrameEncoded   0000000180023240 f   libvcruntime:handlers.obj
 0001:000229a0       ??$ftprintf@PEAU_iobuf@@PEB_WAEBQEB_WAEBQEB_WAEBI@?$__crt_char_traits@_W@@SAH$$QEAPEAU_iobuf@@$$QEAPEB_WAEBQEB_W2AEBI@Z 00000001800239a0 f i libucrt:assert.obj
 0001:000229c8       _wassert                   00000001800239c8 f   libucrt:assert.obj
 0001:00022a3c       fwprintf                   0000000180023a3c f i libucrt:assert.obj
 0001:00022a80       swprintf                   0000000180023a80 f i libucrt:assert.obj
 0001:00022ad4       ??0_LocaleUpdate@@QEAA@QEAU__crt_locale_pointers@@@Z 0000000180023ad4 f i libucrt:stricmp.obj
 0001:00022b70       __ascii_stricmp            0000000180023b70 f   libucrt:stricmp.obj
 0001:00022bb0       _stricmp                   0000000180023bb0 f   libucrt:stricmp.obj
 0001:00022bf8       _stricmp_l                 0000000180023bf8 f   libucrt:stricmp.obj
 0001:00022cac       calloc                     0000000180023cac f   libucrt:calloc.obj
 0001:00022cb4       realloc                    0000000180023cb4 f   libucrt:realloc.obj
 0001:00022cbc       free                       0000000180023cbc f   libucrt:free.obj
 0001:00022cd0       malloc                     0000000180023cd0 f   libucrt:malloc.obj
 0001:00022d38       _tolower_l                 0000000180023d38 f   libucrt:tolower_toupper.obj
 0001:00022e78       tolower                    0000000180023e78 f   libucrt:tolower_toupper.obj
 0001:00022eb0       qsort                      0000000180023eb0 f   libucrt:qsort.obj
 0001:00023270       ldexp                      0000000180024270 f   libucrt:ldexp.obj
 0001:0002364c       __acrt_initialize_thread_local_exit_callback 000000018002464c f   libucrt:exit.obj
 0001:00023654       _cexit                     0000000180024654 f   libucrt:exit.obj
 0001:00023664       _exit                      0000000180024664 f   libucrt:exit.obj
 0001:00023670       _is_c_termination_complete 0000000180024670 f   libucrt:exit.obj
 0001:00023678       exit                       0000000180024678 f   libucrt:exit.obj
 0001:00023684       __acrt_initialize_new_handler 0000000180024684 f   libucrt:new_handler.obj
 0001:0002368c       _callnewh                  000000018002468c f   libucrt:new_handler.obj
 0001:000236bc       _query_new_handler         00000001800246bc f   libucrt:new_handler.obj
 0001:000236f0       _initterm                  00000001800246f0 f   libucrt:initterm.obj
 0001:00023754       _initterm_e                0000000180024754 f   libucrt:initterm.obj
 0001:00023794       _seh_filter_dll            0000000180024794 f   libucrt:exception_filter.obj
 0001:000237a8       _seh_filter_exe            00000001800247a8 f   libucrt:exception_filter.obj
 0001:00023af0       __acrt_allocate_buffer_for_argv 0000000180024af0 f   libucrt:argv_parsing.obj
 0001:00023b50       _configure_narrow_argv     0000000180024b50 f   libucrt:argv_parsing.obj
 0001:00023ec8       __dcrt_uninitialize_environments_nolock 0000000180024ec8 f   libucrt:environment_initialization.obj
 0001:00023f00       _initialize_narrow_environment 0000000180024f00 f   libucrt:environment_initialization.obj
 0001:0002405c       _execute_onexit_table      000000018002505c f   libucrt:onexit.obj
 0001:00024098       _initialize_onexit_table   0000000180025098 f   libucrt:onexit.obj
 0001:000240f8       __acrt_uninitialize_command_line 00000001800250f8 f   libucrt:argv_data.obj
 0001:000241f0       __acrt_initialize          00000001800251f0 f   libucrt:initialization.obj
 0001:00024204       __acrt_thread_attach       0000000180025204 f   libucrt:initialization.obj
 0001:00024218       __acrt_thread_detach       0000000180025218 f   libucrt:initialization.obj
 0001:00024228       __acrt_uninitialize        0000000180025228 f   libucrt:initialization.obj
 0001:00024260       __acrt_uninitialize_critical 0000000180025260 f   libucrt:initialization.obj
 0001:00024270       terminate                  0000000180025270 f   libucrt:terminate.obj
 0001:00024290       abort                      0000000180025290 f   libucrt:abort.obj
 0001:000242e8       strcpy_s                   00000001800252e8 f   libucrt:strcpy_s.obj
 0001:0002455c       ??$ensure_buffer_is_big_enough@D@formatting_buffer@__crt_stdio_output@@QEAA_N_K@Z 000000018002555c f i libucrt:output.obj
 0001:00024604       ??$ensure_buffer_is_big_enough@_W@formatting_buffer@__crt_stdio_output@@QEAA_N_K@Z 0000000180025604 f i libucrt:output.obj
 0001:000246b0       ??$is_wide_character_specifier@_W@__crt_stdio_output@@YA_N_K_WW4length_modifier@0@@Z 00000001800256b0 f i libucrt:output.obj
 0001:000246f0       ??$type_case_integer_parse_into_buffer@I@?$output_processor@_WV?$string_output_adapter@_W@__crt_stdio_output@@V?$standard_base@_WV?$string_output_adapter@_W@__crt_stdio_output@@@2@@__crt_stdio_output@@AEAAXII_N@Z 00000001800256f0 f i libucrt:output.obj
 0001:000246f0       ??$type_case_integer_parse_into_buffer@I@?$output_processor@_WV?$stream_output_adapter@_W@__crt_stdio_output@@V?$standard_base@_WV?$stream_output_adapter@_W@__crt_stdio_output@@@2@@__crt_stdio_output@@AEAAXII_N@Z 00000001800256f0 f i libucrt:output.obj
 0001:00024794       ??$type_case_integer_parse_into_buffer@_K@?$output_processor@_WV?$stream_output_adapter@_W@__crt_stdio_output@@V?$standard_base@_WV?$stream_output_adapter@_W@__crt_stdio_output@@@2@@__crt_stdio_output@@AEAAX_KI_N@Z 0000000180025794 f i libucrt:output.obj
 0001:00024794       ??$type_case_integer_parse_into_buffer@_K@?$output_processor@_WV?$string_output_adapter@_W@__crt_stdio_output@@V?$standard_base@_WV?$string_output_adapter@_W@__crt_stdio_output@@@2@@__crt_stdio_output@@AEAAX_KI_N@Z 0000000180025794 f i libucrt:output.obj
 0001:00024838       ??$write_multiple_characters@V?$stream_output_adapter@_W@__crt_stdio_output@@D@__crt_stdio_output@@YAXAEBV?$stream_output_adapter@_W@0@DHQEAH@Z 0000000180025838 f i libucrt:output.obj
 0001:000248cc       ??$write_multiple_characters@V?$string_output_adapter@_W@__crt_stdio_output@@D@__crt_stdio_output@@YAXAEBV?$string_output_adapter@_W@0@DHQEAH@Z 00000001800258cc f i libucrt:output.obj
 0001:00024a7c       ?crop_zeroes@__crt_stdio_output@@YAXPEADQEAU__crt_locale_pointers@@@Z 0000000180025a7c f i libucrt:output.obj
 0001:00024ae8       ?force_decimal_point@__crt_stdio_output@@YAXPEADQEAU__crt_locale_pointers@@@Z 0000000180025ae8 f i libucrt:output.obj
 0001:00024b58       ?parse_int_from_format_string@?$output_processor@_WV?$stream_output_adapter@_W@__crt_stdio_output@@V?$standard_base@_WV?$stream_output_adapter@_W@__crt_stdio_output@@@2@@__crt_stdio_output@@AEAA_NQEAH@Z 0000000180025b58 f i libucrt:output.obj
 0001:00024b58       ?parse_int_from_format_string@?$output_processor@_WV?$string_output_adapter@_W@__crt_stdio_output@@V?$standard_base@_WV?$string_output_adapter@_W@__crt_stdio_output@@@2@@__crt_stdio_output@@AEAA_NQEAH@Z 0000000180025b58 f i libucrt:output.obj
 0001:00024bfc       ?process@?$output_processor@_WV?$stream_output_adapter@_W@__crt_stdio_output@@V?$standard_base@_WV?$stream_output_adapter@_W@__crt_stdio_output@@@2@@__crt_stdio_output@@QEAAHXZ 0000000180025bfc f i libucrt:output.obj
 0001:00024e68       ?process@?$output_processor@_WV?$string_output_adapter@_W@__crt_stdio_output@@V?$standard_base@_WV?$string_output_adapter@_W@__crt_stdio_output@@@2@@__crt_stdio_output@@QEAAHXZ 0000000180025e68 f i libucrt:output.obj
 0001:000250e4       ?state_case_size@?$output_processor@_WV?$stream_output_adapter@_W@__crt_stdio_output@@V?$standard_base@_WV?$stream_output_adapter@_W@__crt_stdio_output@@@2@@__crt_stdio_output@@AEAA_NXZ 00000001800260e4 f i libucrt:output.obj
 0001:0002527c       ?state_case_size@?$output_processor@_WV?$string_output_adapter@_W@__crt_stdio_output@@V?$standard_base@_WV?$string_output_adapter@_W@__crt_stdio_output@@@2@@__crt_stdio_output@@AEAA_NXZ 000000018002627c f i libucrt:output.obj
 0001:00025414       ?state_case_type@?$output_processor@_WV?$stream_output_adapter@_W@__crt_stdio_output@@V?$standard_base@_WV?$stream_output_adapter@_W@__crt_stdio_output@@@2@@__crt_stdio_output@@AEAA_NXZ 0000000180026414 f i libucrt:output.obj
 0001:000256f4       ?state_case_type@?$output_processor@_WV?$string_output_adapter@_W@__crt_stdio_output@@V?$standard_base@_WV?$string_output_adapter@_W@__crt_stdio_output@@@2@@__crt_stdio_output@@AEAA_NXZ 00000001800266f4 f i libucrt:output.obj
 0001:000259c0       ?type_case_Z@?$output_processor@_WV?$string_output_adapter@_W@__crt_stdio_output@@V?$standard_base@_WV?$string_output_adapter@_W@__crt_stdio_output@@@2@@__crt_stdio_output@@AEAA_NXZ 00000001800269c0 f i libucrt:output.obj
 0001:000259c0       ?type_case_Z@?$output_processor@_WV?$stream_output_adapter@_W@__crt_stdio_output@@V?$standard_base@_WV?$stream_output_adapter@_W@__crt_stdio_output@@@2@@__crt_stdio_output@@AEAA_NXZ 00000001800269c0 f i libucrt:output.obj
 0001:00025a3c       ?type_case_a@?$output_processor@_WV?$string_output_adapter@_W@__crt_stdio_output@@V?$standard_base@_WV?$string_output_adapter@_W@__crt_stdio_output@@@2@@__crt_stdio_output@@AEAA_NXZ 0000000180026a3c f i libucrt:output.obj
 0001:00025a3c       ?type_case_a@?$output_processor@_WV?$stream_output_adapter@_W@__crt_stdio_output@@V?$standard_base@_WV?$stream_output_adapter@_W@__crt_stdio_output@@@2@@__crt_stdio_output@@AEAA_NXZ 0000000180026a3c f i libucrt:output.obj
 0001:00025c1c       ?type_case_c_tchar@?$output_processor@_WV?$string_output_adapter@_W@__crt_stdio_output@@V?$standard_base@_WV?$string_output_adapter@_W@__crt_stdio_output@@@2@@__crt_stdio_output@@AEAA_N_W@Z 0000000180026c1c f i libucrt:output.obj
 0001:00025c1c       ?type_case_c_tchar@?$output_processor@_WV?$stream_output_adapter@_W@__crt_stdio_output@@V?$standard_base@_WV?$stream_output_adapter@_W@__crt_stdio_output@@@2@@__crt_stdio_output@@AEAA_N_W@Z 0000000180026c1c f i libucrt:output.obj
 0001:00025cc4       ?type_case_integer@?$output_processor@_WV?$string_output_adapter@_W@__crt_stdio_output@@V?$standard_base@_WV?$string_output_adapter@_W@__crt_stdio_output@@@2@@__crt_stdio_output@@AEAA_NI_N@Z 0000000180026cc4 f i libucrt:output.obj
 0001:00025cc4       ?type_case_integer@?$output_processor@_WV?$stream_output_adapter@_W@__crt_stdio_output@@V?$standard_base@_WV?$stream_output_adapter@_W@__crt_stdio_output@@@2@@__crt_stdio_output@@AEAA_NI_N@Z 0000000180026cc4 f i libucrt:output.obj
 0001:00025e90       ?type_case_n@?$output_processor@_WV?$stream_output_adapter@_W@__crt_stdio_output@@V?$standard_base@_WV?$stream_output_adapter@_W@__crt_stdio_output@@@2@@__crt_stdio_output@@AEAA_NXZ 0000000180026e90 f i libucrt:output.obj
 0001:00025e90       ?type_case_n@?$output_processor@_WV?$string_output_adapter@_W@__crt_stdio_output@@V?$standard_base@_WV?$string_output_adapter@_W@__crt_stdio_output@@@2@@__crt_stdio_output@@AEAA_NXZ 0000000180026e90 f i libucrt:output.obj
 0001:00025f6c       ?type_case_s@?$output_processor@_WV?$stream_output_adapter@_W@__crt_stdio_output@@V?$standard_base@_WV?$stream_output_adapter@_W@__crt_stdio_output@@@2@@__crt_stdio_output@@AEAA_NXZ 0000000180026f6c f i libucrt:output.obj
 0001:00025f6c       ?type_case_s@?$output_processor@_WV?$string_output_adapter@_W@__crt_stdio_output@@V?$standard_base@_WV?$string_output_adapter@_W@__crt_stdio_output@@@2@@__crt_stdio_output@@AEAA_NXZ 0000000180026f6c f i libucrt:output.obj
 0001:00026034       ?write_stored_string_tchar@?$output_processor@_WV?$stream_output_adapter@_W@__crt_stdio_output@@V?$standard_base@_WV?$stream_output_adapter@_W@__crt_stdio_output@@@2@@__crt_stdio_output@@AEAA_N_W@Z 0000000180027034 f i libucrt:output.obj
 0001:0002613c       ?write_stored_string_tchar@?$output_processor@_WV?$string_output_adapter@_W@__crt_stdio_output@@V?$standard_base@_WV?$string_output_adapter@_W@__crt_stdio_output@@@2@@__crt_stdio_output@@AEAA_N_W@Z 000000018002713c f i libucrt:output.obj
 0001:00026228       ?write_string@?$string_output_adapter@_W@__crt_stdio_output@@QEBAXQEB_WHQEAHAEAV__crt_deferred_errno_cache@@@Z 0000000180027228 f i libucrt:output.obj
 0001:000262d0       ?write_string_impl@?$output_adapter_common@_WV?$stream_output_adapter@_W@__crt_stdio_output@@@__crt_stdio_output@@IEBAXQEB_WHQEAHAEAV__crt_deferred_errno_cache@@@Z 00000001800272d0 f i libucrt:output.obj
 0001:000263d4       __stdio_common_vfwprintf   00000001800273d4 f   libucrt:output.obj
 0001:00026460       __stdio_common_vswprintf   0000000180027460 f   libucrt:output.obj
 0001:00026468       ??$parse_integer@KV?$c_string_character_source@_W@__crt_strtox@@@__crt_strtox@@YAKQEAU__crt_locale_pointers@@V?$c_string_character_source@_W@0@H_N@Z 0000000180027468 f i libucrt:atox.obj
 0001:00026b30       strncmp                    0000000180027b30 f   libucrt:strncmp.obj
 0001:00026bb0       wcsncmp                    0000000180027bb0 f   libucrt:wcsncmp.obj
 0001:00026bdc       __acrt_call_reportfault    0000000180027bdc f   libucrt:invalid_parameter.obj
 0001:00026d38       __acrt_initialize_invalid_parameter_handler 0000000180027d38 f   libucrt:invalid_parameter.obj
 0001:00026d40       _invalid_parameter         0000000180027d40 f   libucrt:invalid_parameter.obj
 0001:00026df0       _invalid_parameter_noinfo  0000000180027df0 f   libucrt:invalid_parameter.obj
 0001:00026e10       _invoke_watson             0000000180027e10 f   libucrt:invalid_parameter.obj
 0001:00026e58       _query_app_type            0000000180027e58 f   libucrt:report_runtime_error.obj
 0001:00026e60       __acrt_errno_from_os_error 0000000180027e60 f   libucrt:errno.obj
 0001:00026ea8       __acrt_errno_map_os_error  0000000180027ea8 f   libucrt:errno.obj
 0001:00026ef8       __doserrno                 0000000180027ef8 f   libucrt:errno.obj
 0001:00026f18       _errno                     0000000180027f18 f   libucrt:errno.obj
 0001:00027078       _itow_s                    0000000180028078 f   libucrt:xtoa.obj
 0001:00027098       _set_error_mode            0000000180028098 f   libucrt:set_error_mode.obj
 0001:000270d8       wcscat_s                   00000001800280d8 f   libucrt:wcscat_s.obj
 0001:00027158       wcscpy_s                   0000000180028158 f   libucrt:wcscpy_s.obj
 0001:000271c0       wcsncat_s                  00000001800281c0 f   libucrt:wcsncat_s.obj
 0001:000272c0       ??$__acrt_wcs_to_mbs_cp@U__crt_win32_buffer_no_resizing@@@@YAHQEB_WAEAV?$__crt_win32_buffer@DU__crt_win32_buffer_no_resizing@@@@I@Z 00000001800282c0 f i libucrt:getmodulefilenamea.obj
 0001:000273d4       __acrt_GetModuleFileNameA  00000001800283d4 f   libucrt:getmodulefilenamea.obj
 0001:000274f4       __acrt_show_wide_message_box 00000001800284f4 f   libucrt:crtmbox.obj
 0001:00027598       __acrt_initialize_stdio    0000000180028598 f   libucrt:_file.obj
 0001:000276b8       __acrt_iob_func            00000001800286b8 f   libucrt:_file.obj
 0001:000276cc       __acrt_uninitialize_stdio  00000001800286cc f   libucrt:_file.obj
 0001:00027728       _lock_file                 0000000180028728 f   libucrt:_file.obj
 0001:00027734       _unlock_file               0000000180028734 f   libucrt:_file.obj
 0001:0002795c       __acrt_stdio_flush_nolock  000000018002895c f   libucrt:fflush.obj
 0001:000279d8       _fflush_nolock             00000001800289d8 f   libucrt:fflush.obj
 0001:00027a24       _flushall                  0000000180028a24 f   libucrt:fflush.obj
 0001:00027a2c       fflush                     0000000180028a2c f   libucrt:fflush.obj
 0001:00027bb4       setvbuf                    0000000180028bb4 f   libucrt:setvbuf.obj
 0001:00027c98       __acrt_get_sigabrt_handler 0000000180028c98 f   libucrt:signal.obj
 0001:00027cc8       __acrt_initialize_signal_handlers 0000000180028cc8 f   libucrt:signal.obj
 0001:00027ce8       raise                      0000000180028ce8 f   libucrt:signal.obj
 0001:000282cc       __acrt_freeptd             00000001800292cc f   libucrt:per_thread_data.obj
 0001:00028310       __acrt_getptd              0000000180029310 f   libucrt:per_thread_data.obj
 0001:000283e4       __acrt_getptd_head         00000001800293e4 f   libucrt:per_thread_data.obj
 0001:0002848c       __acrt_getptd_noexit       000000018002948c f   libucrt:per_thread_data.obj
 0001:00028558       __acrt_initialize_ptd      0000000180029558 f   libucrt:per_thread_data.obj
 0001:00028594       __acrt_uninitialize_ptd    0000000180029594 f   libucrt:per_thread_data.obj
 0001:000285b8       __acrt_update_locale_info  00000001800295b8 f   libucrt:locale_update.obj
 0001:000285ec       __acrt_update_multibyte_info 00000001800295ec f   libucrt:locale_update.obj
 0001:00028690       __acrt_set_locale_changed  0000000180029690 f   libucrt:wsetlocale.obj
 0001:0002869c       __acrt_uninitialize_locale 000000018002969c f   libucrt:wsetlocale.obj
 0001:000286cc       _calloc_base               00000001800296cc f   libucrt:calloc_base.obj
 0001:00028744       _realloc_base              0000000180029744 f   libucrt:realloc_base.obj
 0001:000287c0       _free_base                 00000001800297c0 f   libucrt:free_base.obj
 0001:00028800       _malloc_base               0000000180029800 f   libucrt:malloc_base.obj
 0001:00028860       __pctype_func              0000000180029860 f   libucrt:ctype.obj
 0001:00028890       _isleadbyte_l              0000000180029890 f i libucrt:_wctype.obj
 0001:000288dc       _isctype_l                 00000001800298dc f   libucrt:isctype.obj
 0001:00028d04       __acrt_LCMapStringA        0000000180029d04 f   libucrt:lcmapstringa.obj
 0001:00028d9c       _copysign                  0000000180029d9c f   libucrt:_copysign.obj
 0001:00028dd0       _decomp                    0000000180029dd0 f   libucrt:util.obj
 0001:00028f08       _set_exp                   0000000180029f08 f   libucrt:util.obj
 0001:00028f40       _sptype                    0000000180029f40 f   libucrt:util.obj
 0001:00028fb4       _errcode                   0000000180029fb4 f   libucrt:fpexcept.obj
 0001:00028ff8       _except2                   0000000180029ff8 f   libucrt:fpexcept.obj
 0001:00029100       _handle_exc                000000018002a100 f   libucrt:fpexcept.obj
 0001:00029368       _handle_qnan2              000000018002a368 f   libucrt:fpexcept.obj
 0001:00029370       _raise_exc                 000000018002a370 f   libucrt:fpexcept.obj
 0001:00029398       _raise_exc_ex              000000018002a398 f   libucrt:fpexcept.obj
 0001:000296a8       _set_errno_from_matherr    000000018002a6a8 f   libucrt:fpexcept.obj
 0001:000296d8       _umatherr                  000000018002a6d8 f   libucrt:fpexcept.obj
 0001:000297ac       _clrfp                     000000018002a7ac f   libucrt:fpctrl.obj
 0001:000297cc       _ctrlfp                    000000018002a7cc f   libucrt:fpctrl.obj
 0001:00029848       _set_statfp                000000018002a848 f   libucrt:fpctrl.obj
 0001:00029868       _statfp                    000000018002a868 f   libucrt:fpctrl.obj
 0001:0002987c       __acrt_initialize_locks    000000018002a87c f   libucrt:locks.obj
 0001:000298c4       __acrt_lock                000000018002a8c4 f   libucrt:locks.obj
 0001:000298e0       __acrt_uninitialize_locks  000000018002a8e0 f   libucrt:locks.obj
 0001:00029918       __acrt_unlock              000000018002a918 f   libucrt:locks.obj
 0001:00029934       __acrt_get_developer_information_policy 000000018002a934 f   libucrt:win_policies.obj
 0001:00029988       __acrt_get_process_end_policy 000000018002a988 f   libucrt:win_policies.obj
 0001:000299c4       __acrt_get_windowing_model_policy 000000018002a9c4 f   libucrt:win_policies.obj
 0001:00029a44       ??$__acrt_mbs_to_wcs_cp@U__crt_win32_buffer_internal_dynamic_resizing@@@@YAHQEBDAEAV?$__crt_win32_buffer@_WU__crt_win32_buffer_internal_dynamic_resizing@@@@I@Z 000000018002aa44 f i libucrt:argv_wildcards.obj
 0001:00029bbc       ??$__acrt_wcs_to_mbs_cp@U__crt_win32_buffer_internal_dynamic_resizing@@@@YAHQEB_WAEAV?$__crt_win32_buffer@DU__crt_win32_buffer_internal_dynamic_resizing@@@@I@Z 000000018002abbc f i libucrt:argv_wildcards.obj
 0001:0002a3ec       __acrt_expand_narrow_argv_wildcards 000000018002b3ec f   libucrt:argv_wildcards.obj
 0001:0002ab20       __acrt_initialize_multibyte 000000018002bb20 f   libucrt:mbctype.obj
 0001:0002ab80       __acrt_update_thread_multibyte_data 000000018002bb80 f   libucrt:mbctype.obj
 0001:0002ab9c       _setmbcp_nolock            000000018002bb9c f   libucrt:mbctype.obj
 0001:0002aed0       _ismbblead                 000000018002bed0 f   libucrt:ismbbyte.obj
 0001:0002aee4       __acrt_initialize_command_line 000000018002bee4 f   libucrt:argv_data.obj
 0001:0002af0c       __acrt_MultiByteToWideChar 000000018002bf0c f   libucrt:multibytetowidechar.obj
 0001:0002af68       __acrt_WideCharToMultiByte 000000018002bf68 f   libucrt:widechartomultibyte.obj
 0001:0002b000       __dcrt_get_narrow_environment_from_os 000000018002c000 f   libucrt:get_environment_from_os.obj
 0001:0002b104       _recalloc_base             000000018002c104 f   libucrt:recalloc.obj
 0001:0002b374       __acrt_AppPolicyGetProcessTerminationMethodInternal 000000018002c374 f   libucrt:winapi_thunks.obj
 0001:0002b3c4       __acrt_AppPolicyGetShowDeveloperDiagnosticInternal 000000018002c3c4 f   libucrt:winapi_thunks.obj
 0001:0002b414       __acrt_AppPolicyGetWindowingModelInternal 000000018002c414 f   libucrt:winapi_thunks.obj
 0001:0002b464       __acrt_AreFileApisANSI     000000018002c464 f   libucrt:winapi_thunks.obj
 0001:0002b4a0       __acrt_FlsAlloc            000000018002c4a0 f   libucrt:winapi_thunks.obj
 0001:0002b4e8       __acrt_FlsFree             000000018002c4e8 f   libucrt:winapi_thunks.obj
 0001:0002b530       __acrt_FlsGetValue         000000018002c530 f   libucrt:winapi_thunks.obj
 0001:0002b578       __acrt_FlsSetValue         000000018002c578 f   libucrt:winapi_thunks.obj
 0001:0002b5cc       __acrt_InitializeCriticalSectionEx 000000018002c5cc f   libucrt:winapi_thunks.obj
 0001:0002b630       __acrt_LCMapStringEx       000000018002c630 f   libucrt:winapi_thunks.obj
 0001:0002b70c       __acrt_LocaleNameToLCID    000000018002c70c f   libucrt:winapi_thunks.obj
 0001:0002b75c       __acrt_MessageBoxW         000000018002c75c f   libucrt:winapi_thunks.obj
 0001:0002b7d0       __acrt_can_show_message_box 000000018002c7d0 f   libucrt:winapi_thunks.obj
 0001:0002b840       __acrt_get_parent_window   000000018002c840 f   libucrt:winapi_thunks.obj
 0001:0002b8b8       __acrt_initialize_winapi_thunks 000000018002c8b8 f   libucrt:winapi_thunks.obj
 0001:0002b8ec       __acrt_is_interactive      000000018002c8ec f   libucrt:winapi_thunks.obj
 0001:0002b9b4       __acrt_uninitialize_winapi_thunks 000000018002c9b4 f   libucrt:winapi_thunks.obj
 0001:0002b9f8       __acrt_initialize_heap     000000018002c9f8 f   libucrt:heap_handle.obj
 0001:0002ba14       __acrt_uninitialize_heap   000000018002ca14 f   libucrt:heap_handle.obj
 0001:0002bc1c       __acrt_initialize_lowio    000000018002cc1c f   libucrt:ioinit.obj
 0001:0002bc58       __acrt_uninitialize_lowio  000000018002cc58 f   libucrt:ioinit.obj
 0001:0002bc98       __acrt_execute_initializers 000000018002cc98 f   libucrt:shared_initialization.obj
 0001:0002bd18       __acrt_execute_uninitializers 000000018002cd18 f   libucrt:shared_initialization.obj
 0001:0002bd54       __acrt_has_user_matherr    000000018002cd54 f   libucrt:matherr.obj
 0001:0002bd74       __acrt_initialize_user_matherr 000000018002cd74 f   libucrt:matherr.obj
 0001:0002bd7c       __acrt_invoke_user_matherr 000000018002cd7c f   libucrt:matherr.obj
 0001:0002bdac       __acrt_stdio_begin_temporary_buffering_nolock 000000018002cdac f   libucrt:_sftbuf.obj
 0001:0002be7c       __acrt_stdio_end_temporary_buffering_nolock 000000018002ce7c f   libucrt:_sftbuf.obj
 0001:0002beb8       isdigit                    000000018002ceb8 f i libucrt:_ctype.obj
 0001:0002bf4c       wcstol                     000000018002cf4c f   libucrt:strtox.obj
 0001:0002bf78       _mbtowc_l                  000000018002cf78 f   libucrt:mbtowc.obj
 0001:0002c0f4       mbtowc                     000000018002d0f4 f   libucrt:mbtowc.obj
 0001:0002c0fc       _wctomb_s_l                000000018002d0fc f   libucrt:wctomb.obj
 0001:0002c29c       wctomb_s                   000000018002d29c f   libucrt:wctomb.obj
 0001:0002c2b0       wcsnlen                    000000018002d2b0 f   libucrt:strnlen.obj
 0001:0002ce5c       __acrt_fp_format           000000018002de5c f   libucrt:cvt.obj
 0001:0002d0e4       _fputwc_nolock             000000018002e0e4 f   libucrt:fputwc.obj
 0001:0002d260       _fileno                    000000018002e260 f   libucrt:fileno.obj
 0001:0002d288       _fputc_nolock              000000018002e288 f   libucrt:fputc.obj
 0001:0002d2a0       _get_printf_count_output   000000018002e2a0 f   libucrt:printf_count_output.obj
 0001:0002d2b8       iswctype                   000000018002e2b8 f   libucrt:iswctype.obj
 0001:0002d328       _fcloseall                 000000018002e328 f   libucrt:closeall.obj
 0001:0002d3dc       __acrt_stdio_free_buffer_nolock 000000018002e3dc f   libucrt:_freebuf.obj
 0001:0002d4a8       _commit                    000000018002e4a8 f   libucrt:commit.obj
 0001:0002dda8       _write                     000000018002eda8 f   libucrt:write.obj
 0001:0002de94       _write_nolock              000000018002ee94 f   libucrt:write.obj
 0001:0002e170       __acrt_add_locale_ref      000000018002f170 f   libucrt:locale_refcounting.obj
 0001:0002e1fc       __acrt_free_locale         000000018002f1fc f   libucrt:locale_refcounting.obj
 0001:0002e374       __acrt_locale_add_lc_time_reference 000000018002f374 f   libucrt:locale_refcounting.obj
 0001:0002e39c       __acrt_locale_free_lc_time_if_unreferenced 000000018002f39c f   libucrt:locale_refcounting.obj
 0001:0002e3d4       __acrt_locale_release_lc_time_reference 000000018002f3d4 f   libucrt:locale_refcounting.obj
 0001:0002e3fc       __acrt_release_locale_ref  000000018002f3fc f   libucrt:locale_refcounting.obj
 0001:0002e4a4       __acrt_update_thread_locale_data 000000018002f4a4 f   libucrt:locale_refcounting.obj
 0001:0002e514       _updatetlocinfoEx_nolock   000000018002f514 f   libucrt:locale_refcounting.obj
 0001:0002e57c       __acrt_locale_free_monetary 000000018002f57c f   libucrt:initmon.obj
 0001:0002e688       __acrt_locale_free_numeric 000000018002f688 f   libucrt:initnum.obj
 0001:0002e74c       __acrt_locale_free_time    000000018002f74c f   libucrt:inittime.obj
 0001:0002e854       __acrt_GetStringTypeA      000000018002f854 f   libucrt:getstringtypea.obj
 0001:0002e9e4       _query_new_mode            000000018002f9e4 f   libucrt:new_mode.obj
 0001:0002e9ec       __strncnt                  000000018002f9ec f   libucrt:strncnt.obj
 0001:0002ea20       _get_fpsr                  000000018002fa20 f   libucrt:fpsr.obj
 0001:0002ea30       _set_fpsr                  000000018002fa30 f   libucrt:fpsr.obj
 0001:0002ea3a       _fclrf                     000000018002fa3a f   libucrt:fpsr.obj
 0001:0002ea4e       _frnd                      000000018002fa4e f   libucrt:fpsr.obj
 0001:0002ea70       strncpy_s                  000000018002fa70 f   libucrt:strncpy_s.obj
 0001:0002ebf0       strpbrk                    000000018002fbf0 f   libucrt:strpbrk.obj
 0001:0002efd0       _mbsdec                    000000018002ffd0 f   libucrt:mbsdec.obj
 0001:0002efd8       _mbsdec_l                  000000018002ffd8 f   libucrt:mbsdec.obj
 0001:0002f084       _msize_base                0000000180030084 f   libucrt:msize.obj
 0001:0002f1a8       __acrt_DownlevelLocaleNameToLCID 00000001800301a8 f   libucrt:lcidtoname_downlevel.obj
 0001:0002f1dc       __acrt_lowio_create_handle_array 00000001800301dc f   libucrt:osfinfo.obj
 0001:0002f284       __acrt_lowio_destroy_handle_array 0000000180030284 f   libucrt:osfinfo.obj
 0001:0002f2d4       __acrt_lowio_ensure_fh_exists 00000001800302d4 f   libucrt:osfinfo.obj
 0001:0002f37c       __acrt_lowio_lock_fh       000000018003037c f   libucrt:osfinfo.obj
 0001:0002f3a4       __acrt_lowio_unlock_fh     00000001800303a4 f   libucrt:osfinfo.obj
 0001:0002f3cc       _free_osfhnd               00000001800303cc f   libucrt:osfinfo.obj
 0001:0002f488       _get_osfhandle             0000000180030488 f   libucrt:osfinfo.obj
 0001:0002f500       _isatty                    0000000180030500 f   libucrt:isatty.obj
 0001:0002f560       ?__mbrtowc_utf8@__crt_mbstring@@YA_KPEA_WPEBD_KPEAU_Mbstatet@@@Z 0000000180030560 f   libucrt:mbrtowc.obj
 0001:0002f59c       ?__mbsrtowcs_utf8@__crt_mbstring@@YA_KPEA_WPEAPEBD_KPEAU_Mbstatet@@@Z 000000018003059c f   libucrt:mbrtowc.obj
 0001:0002f714       ?__c32rtomb_utf8@__crt_mbstring@@YA_KPEAD_UPEAU_Mbstatet@@@Z 0000000180030714 f   libucrt:c32rtomb.obj
 0001:0002f7cc       __acrt_fp_strflt_to_string 00000001800307cc f   libucrt:_fptostr.obj
 0001:0002f8b0       ?divide@__crt_strtox@@YA_KAEAUbig_integer@1@AEBU21@@Z 00000001800308b0 f i libucrt:cfout.obj
 0001:0002fcdc       __acrt_fltout              0000000180030cdc f   libucrt:cfout.obj
 0001:000311dc       __acrt_stdio_flush_and_write_narrow_nolock 00000001800321dc f   libucrt:_flsbuf.obj
 0001:000312c8       __acrt_stdio_flush_and_write_wide_nolock 00000001800322c8 f   libucrt:_flsbuf.obj
 0001:000313b4       __acrt_GetStringTypeW      00000001800323b4 f   libucrt:getstringtypew.obj
 0001:000313bc       _fclose_nolock             00000001800323bc f   libucrt:fclose.obj
 0001:00031440       fclose                     0000000180032440 f   libucrt:fclose.obj
 0001:00031630       _lseeki64                  0000000180032630 f   libucrt:lseek.obj
 0001:00031638       _lseeki64_nolock           0000000180032638 f   libucrt:lseek.obj
 0001:00031640       _putwch_nolock             0000000180032640 f   libucrt:putwch.obj
 0001:0003167c       ?__mbrtoc32_utf8@__crt_mbstring@@YA_KPEA_UPEBD_KPEAU_Mbstatet@@@Z 000000018003267c f   libucrt:mbrtoc32.obj
 0001:00031858       fegetenv                   0000000180032858 f   libucrt:fegetenv.obj
 0001:00031878       fesetenv                   0000000180032878 f   libucrt:fesetenv.obj
 0001:000318c8       feholdexcept               00000001800328c8 f   libucrt:feholdexcept.obj
 0001:00031918       ceil                       0000000180032918 f   libucrt:ceil.obj
 0001:000319e0       log10                      00000001800329e0 f   libucrt:log10.obj
 0001:00031f8c       __acrt_stdio_allocate_buffer_nolock 0000000180032f8c f   libucrt:_getbuf.obj
 0001:00032068       _close                     0000000180033068 f   libucrt:close.obj
 0001:0003210c       _close_nolock              000000018003310c f   libucrt:close.obj
 0001:000321cc       ?__acrt_stdio_free_stream@@YAXV__crt_stdio_stream@@@Z 00000001800331cc f   libucrt:stream.obj
 0001:000321e8       __dcrt_lowio_ensure_console_output_initialized 00000001800331e8 f   libucrt:initcon.obj
 0001:0003223c       __dcrt_terminate_console_output 000000018003323c f   libucrt:initcon.obj
 0001:00032258       __dcrt_write_console       0000000180033258 f   libucrt:initcon.obj
 0001:00032318       __acrt_fenv_get_control    0000000180033318 f   libucrt:_fenvutils.obj
 0001:0003240c       __acrt_fenv_get_status     000000018003340c f   libucrt:_fenvutils.obj
 0001:00032460       __acrt_fenv_set_control    0000000180033460 f   libucrt:_fenvutils.obj
 0001:000325a8       __acrt_fenv_set_status     00000001800335a8 f   libucrt:_fenvutils.obj
 0001:0003262c       _clearfp                   000000018003362c f   libucrt:ieee.obj
 0001:000327c0       _handle_error              00000001800337c0 f   libucrt:libm_error.obj
 0001:000328e8       _handle_nan                00000001800338e8 f   libucrt:libm_error.obj
 0001:00032910       __acrt_initialize_fma3     0000000180033910 f   libucrt:fma3_available.obj
 0001:00032980       _log10_special             0000000180033980 f   libucrt:log_special.obj
 0001:000329a0       _log_special               00000001800339a0 f   libucrt:log_special.obj
 0001:00032a56       IsProcessorFeaturePresent  0000000180033a56 f   kernel32:KERNEL32.dll
 0001:00032a5c       ?DloadAcquireSectionWriteAccess@@YAXXZ 0000000180033a5c f i DelayImp:delayhlp.obj
 0001:00032b08       ?DloadGetSRWLockFunctionPointers@@YAEXZ 0000000180033b08 f i DelayImp:delayhlp.obj
 0001:00032ba4       ?DloadMakePermanentImageCommit@@YAXPEAX_K@Z 0000000180033ba4 f i DelayImp:delayhlp.obj
 0001:00032c3c       ?DloadObtainSection@@YAPEAXPEAK0@Z 0000000180033c3c f i DelayImp:delayhlp.obj
 0001:00032cd8       ?DloadProtectSection@@YAXKPEAK@Z 0000000180033cd8 f i DelayImp:delayhlp.obj
 0001:00032d68       ?DloadReleaseSectionWriteAccess@@YAXXZ 0000000180033d68 f i DelayImp:delayhlp.obj
 0001:00032dfc       __delayLoadHelper2         0000000180033dfc f   DelayImp:delayhlp.obj
 0001:000330e0       _FindPESection             00000001800340e0 f   LIBCMT:pesect.obj
 0001:00033130       _IsNonwritableInCurrentImage 0000000180034130 f   LIBCMT:pesect.obj
 0001:00033180       _ValidateImageBase         0000000180034180 f   LIBCMT:pesect.obj
 0001:000331b0       __GSHandlerCheck           00000001800341b0 f   LIBCMT:gshandler.obj
 0001:000331d0       __GSHandlerCheckCommon     00000001800341d0 f   LIBCMT:gshandler.obj
 0001:00033240       __chkstk                   0000000180034240 f   LIBCMT:chkstk.obj
 0001:00033240       _alloca_probe              0000000180034240 f   LIBCMT:chkstk.obj
 0001:000332b0       memcmp                     00000001800342b0 f   libvcruntime:memcmp.obj
 0001:00033378       strrchr                    0000000180034378 f   libvcruntime:strrchr.obj
 0001:000334a8       atan                       00000001800344a8 f   libucrt:atan.obj
 0001:000336c0       cos                        00000001800346c0 f   libucrt:cos.obj
 0001:00033c40       exp                        0000000180034c40 f   libucrt:exp.obj
 0001:00034038       floor                      0000000180035038 f   libucrt:floor.obj
 0001:000340f0       log                        00000001800350f0 f   libucrt:log.obj
 0001:00034620       pow                        0000000180035620 f   libucrt:pow.obj
 0001:00035cc0       sin                        0000000180036cc0 f   libucrt:sin.obj
 0001:0003622c       sqrt                       000000018003722c f   libucrt:sqrt.obj
 0001:00036300       __remainder_piby2_forAsm   0000000180037300 f   libucrt:remainder_piby2_forasm.obj
 0001:00036510       __remainder_piby2_cw_forAsm 0000000180037510 f   libucrt:remainder_piby2_forasm.obj
 0001:00036650       __remainder_piby2_fma3     0000000180037650 f   libucrt:remainder_piby2_forfma3.obj
 0001:00036840       __remainder_piby2_fma3_bdl 0000000180037840 f   libucrt:remainder_piby2_forfma3.obj
 0001:000368b8       _cos_special               00000001800378b8 f   libucrt:sincos_special.obj
 0001:000368cc       _sin_special               00000001800378cc f   libucrt:sincos_special.obj
 0001:00036990       _exp_special               0000000180037990 f   libucrt:exp_special.obj
 0001:00036a30       _pow_special               0000000180037a30 f   libucrt:pow_special.obj
 0001:00036b70       _guard_dispatch_icall_nop  0000000180037b70 f   LIBCMT:guard_dispatch.obj
 0002:00000000       __imp_GetModuleHandleA     0000000180038000     kernel32:KERNEL32.dll
 0002:00000008       __imp_LoadLibraryExA       0000000180038008     kernel32:KERNEL32.dll
 0002:00000010       __imp_RtlCaptureContext    0000000180038010     kernel32:KERNEL32.dll
 0002:00000018       __imp_RtlLookupFunctionEntry 0000000180038018     kernel32:KERNEL32.dll
 0002:00000020       __imp_RtlVirtualUnwind     0000000180038020     kernel32:KERNEL32.dll
 0002:00000028       __imp_UnhandledExceptionFilter 0000000180038028     kernel32:KERNEL32.dll
 0002:00000030       __imp_SetUnhandledExceptionFilter 0000000180038030     kernel32:KERNEL32.dll
 0002:00000038       __imp_GetCurrentProcess    0000000180038038     kernel32:KERNEL32.dll
 0002:00000040       __imp_TerminateProcess     0000000180038040     kernel32:KERNEL32.dll
 0002:00000048       __imp_IsProcessorFeaturePresent 0000000180038048     kernel32:KERNEL32.dll
 0002:00000050       __imp_QueryPerformanceCounter 0000000180038050     kernel32:KERNEL32.dll
 0002:00000058       __imp_GetCurrentProcessId  0000000180038058     kernel32:KERNEL32.dll
 0002:00000060       __imp_GetCurrentThreadId   0000000180038060     kernel32:KERNEL32.dll
 0002:00000068       __imp_GetSystemTimeAsFileTime 0000000180038068     kernel32:KERNEL32.dll
 0002:00000070       __imp_InitializeSListHead  0000000180038070     kernel32:KERNEL32.dll
 0002:00000078       __imp_IsDebuggerPresent    0000000180038078     kernel32:KERNEL32.dll
 0002:00000080       __imp_GetStartupInfoW      0000000180038080     kernel32:KERNEL32.dll
 0002:00000088       __imp_GetModuleHandleW     0000000180038088     kernel32:KERNEL32.dll
 0002:00000090       __imp_RtlUnwindEx          0000000180038090     kernel32:KERNEL32.dll
 0002:00000098       __imp_RtlPcToFileHeader    0000000180038098     kernel32:KERNEL32.dll
 0002:000000a0       __imp_RaiseException       00000001800380a0     kernel32:KERNEL32.dll
 0002:000000a8       __imp_InterlockedFlushSList 00000001800380a8     kernel32:KERNEL32.dll
 0002:000000b0       __imp_GetLastError         00000001800380b0     kernel32:KERNEL32.dll
 0002:000000b8       __imp_SetLastError         00000001800380b8     kernel32:KERNEL32.dll
 0002:000000c0       __imp_EnterCriticalSection 00000001800380c0     kernel32:KERNEL32.dll
 0002:000000c8       __imp_LeaveCriticalSection 00000001800380c8     kernel32:KERNEL32.dll
 0002:000000d0       __imp_DeleteCriticalSection 00000001800380d0     kernel32:KERNEL32.dll
 0002:000000d8       __imp_InitializeCriticalSectionAndSpinCount 00000001800380d8     kernel32:KERNEL32.dll
 0002:000000e0       __imp_TlsAlloc             00000001800380e0     kernel32:KERNEL32.dll
 0002:000000e8       __imp_TlsGetValue          00000001800380e8     kernel32:KERNEL32.dll
 0002:000000f0       __imp_TlsSetValue          00000001800380f0     kernel32:KERNEL32.dll
 0002:000000f8       __imp_TlsFree              00000001800380f8     kernel32:KERNEL32.dll
 0002:00000100       __imp_FreeLibrary          0000000180038100     kernel32:KERNEL32.dll
 0002:00000108       __imp_GetProcAddress       0000000180038108     kernel32:KERNEL32.dll
 0002:00000110       __imp_LoadLibraryExW       0000000180038110     kernel32:KERNEL32.dll
 0002:00000118       __imp_GetStdHandle         0000000180038118     kernel32:KERNEL32.dll
 0002:00000120       __imp_GetFileType          0000000180038120     kernel32:KERNEL32.dll
 0002:00000128       __imp_GetModuleFileNameW   0000000180038128     kernel32:KERNEL32.dll
 0002:00000130       __imp_GetModuleHandleExW   0000000180038130     kernel32:KERNEL32.dll
 0002:00000138       __imp_WriteConsoleW        0000000180038138     kernel32:KERNEL32.dll
 0002:00000140       __imp_ExitProcess          0000000180038140     kernel32:KERNEL32.dll
 0002:00000148       __imp_WriteFile            0000000180038148     kernel32:KERNEL32.dll
 0002:00000150       __imp_OutputDebugStringW   0000000180038150     kernel32:KERNEL32.dll
 0002:00000158       __imp_HeapAlloc            0000000180038158     kernel32:KERNEL32.dll
 0002:00000160       __imp_HeapReAlloc          0000000180038160     kernel32:KERNEL32.dll
 0002:00000168       __imp_HeapFree             0000000180038168     kernel32:KERNEL32.dll
 0002:00000170       __imp_FindClose            0000000180038170     kernel32:KERNEL32.dll
 0002:00000178       __imp_FindFirstFileExW     0000000180038178     kernel32:KERNEL32.dll
 0002:00000180       __imp_FindNextFileW        0000000180038180     kernel32:KERNEL32.dll
 0002:00000188       __imp_IsValidCodePage      0000000180038188     kernel32:KERNEL32.dll
 0002:00000190       __imp_GetACP               0000000180038190     kernel32:KERNEL32.dll
 0002:00000198       __imp_GetOEMCP             0000000180038198     kernel32:KERNEL32.dll
 0002:000001a0       __imp_GetCPInfo            00000001800381a0     kernel32:KERNEL32.dll
 0002:000001a8       __imp_GetCommandLineA      00000001800381a8     kernel32:KERNEL32.dll
 0002:000001b0       __imp_GetCommandLineW      00000001800381b0     kernel32:KERNEL32.dll
 0002:000001b8       __imp_MultiByteToWideChar  00000001800381b8     kernel32:KERNEL32.dll
 0002:000001c0       __imp_WideCharToMultiByte  00000001800381c0     kernel32:KERNEL32.dll
 0002:000001c8       __imp_GetEnvironmentStringsW 00000001800381c8     kernel32:KERNEL32.dll
 0002:000001d0       __imp_FreeEnvironmentStringsW 00000001800381d0     kernel32:KERNEL32.dll
 0002:000001d8       __imp_LCMapStringW         00000001800381d8     kernel32:KERNEL32.dll
 0002:000001e0       __imp_GetProcessHeap       00000001800381e0     kernel32:KERNEL32.dll
 0002:000001e8       __imp_FlushFileBuffers     00000001800381e8     kernel32:KERNEL32.dll
 0002:000001f0       __imp_GetConsoleCP         00000001800381f0     kernel32:KERNEL32.dll
 0002:000001f8       __imp_GetConsoleMode       00000001800381f8     kernel32:KERNEL32.dll
 0002:00000200       __imp_GetStringTypeW       0000000180038200     kernel32:KERNEL32.dll
 0002:00000208       __imp_HeapSize             0000000180038208     kernel32:KERNEL32.dll
 0002:00000210       __imp_SetStdHandle         0000000180038210     kernel32:KERNEL32.dll
 0002:00000218       __imp_GetFileSizeEx        0000000180038218     kernel32:KERNEL32.dll
 0002:00000220       __imp_SetFilePointerEx     0000000180038220     kernel32:KERNEL32.dll
 0002:00000228       __imp_CloseHandle          0000000180038228     kernel32:KERNEL32.dll
 0002:00000230       __imp_CreateFileW          0000000180038230     kernel32:KERNEL32.dll
 0002:00000238       __imp_VirtualQuery         0000000180038238     kernel32:KERNEL32.dll
 0002:00000240       __imp_VirtualProtect       0000000180038240     kernel32:KERNEL32.dll
 0002:00000248       __imp_GetSystemInfo        0000000180038248     kernel32:KERNEL32.dll
 0002:00000250       \177KERNEL32_NULL_THUNK_DATA 0000000180038250     kernel32:KERNEL32.dll
 0002:00000258       __imp_oggpack_reset        0000000180038258     ogg:ogg.node
 0002:00000260       __imp_oggpack_readinit     0000000180038260     ogg:ogg.node
 0002:00000268       __imp_oggpack_writetrunc   0000000180038268     ogg:ogg.node
 0002:00000270       __imp_oggpack_adv          0000000180038270     ogg:ogg.node
 0002:00000278       __imp_oggpack_look         0000000180038278     ogg:ogg.node
 0002:00000280       __imp_oggpack_get_buffer   0000000180038280     ogg:ogg.node
 0002:00000288       __imp_oggpack_read         0000000180038288     ogg:ogg.node
 0002:00000290       __imp_oggpack_bytes        0000000180038290     ogg:ogg.node
 0002:00000298       __imp_oggpack_writeclear   0000000180038298     ogg:ogg.node
 0002:000002a0       __imp_oggpack_writeinit    00000001800382a0     ogg:ogg.node
 0002:000002a8       __imp_oggpack_write        00000001800382a8     ogg:ogg.node
 0002:000002b0       \177ogg_NULL_THUNK_DATA    00000001800382b0     ogg:ogg.node
 0002:000002b8       __guard_check_icall_fptr   00000001800382b8     LIBCMT:guard_support.obj
 0002:000002c0       __guard_dispatch_icall_fptr 00000001800382c0     LIBCMT:guard_support.obj
 0002:000002c8       __xc_a                     00000001800382c8     LIBCMT:initializers.obj
 0002:000002d0       _register_vorbis_          00000001800382d0     binding.obj
 0002:000002d8       __xc_z                     00000001800382d8     LIBCMT:initializers.obj
 0002:000002e0       __xi_a                     00000001800382e0     LIBCMT:initializers.obj
 0002:000002e8       __acrt_stdio_initializer   00000001800382e8     libucrt:stdio_initializer.obj
 0002:000002f0       __acrt_multibyte_initializer 00000001800382f0     libucrt:multibyte_initializer.obj
 0002:000002f8       __acrt_tran_fma3_initializer 00000001800382f8     libucrt:fma3_initializer.obj
 0002:00000300       __xi_z                     0000000180038300     LIBCMT:initializers.obj
 0002:00000308       __xp_a                     0000000180038308     LIBCMT:initializers.obj
 0002:00000310       __acrt_locale_terminator   0000000180038310     libucrt:locale_initializer.obj
 0002:00000318       __dcrt_console_output_terminator 0000000180038318     libucrt:console_output_initializer.obj
 0002:00000320       __acrt_stdio_terminator    0000000180038320     libucrt:stdio_initializer.obj
 0002:00000328       __xp_z                     0000000180038328     LIBCMT:initializers.obj
 0002:00000330       __xt_a                     0000000180038330     LIBCMT:initializers.obj
 0002:00000338       __xt_z                     0000000180038338     LIBCMT:initializers.obj
 0002:00000340       __sz_node_exe              0000000180038340     node:node.exe
 0002:00000350       _pDefaultRawDllMain        0000000180038350     LIBCMT:dll_dllmain.obj
 0002:00000350       _pRawDllMain               0000000180038350     LIBCMT:dll_dllmain.obj
 0002:00000370       ??_7exception@std@@6B@     0000000180038370     LIBCMT:throw_bad_alloc.obj
 0002:00000380       ??_C@_0BC@EOODALEL@Unknown?5exception@ 0000000180038380     LIBCMT:throw_bad_alloc.obj
 0002:000003a0       ??_7bad_alloc@std@@6B@     00000001800383a0     LIBCMT:throw_bad_alloc.obj
 0002:000003b0       ??_C@_0P@GHFPNOJB@bad?5allocation@ 00000001800383b0     LIBCMT:throw_bad_alloc.obj
 0002:000003c8       ??_7bad_array_new_length@std@@6B@ 00000001800383c8     LIBCMT:throw_bad_alloc.obj
 0002:000003d8       ??_C@_0BF@KINCDENJ@bad?5array?5new?5length@ 00000001800383d8     LIBCMT:throw_bad_alloc.obj
 0002:000003f8       ??_7type_info@@6B@         00000001800383f8     LIBCMT:std_type_info_static.obj
 0002:00000440       _pDestructExceptionObject  0000000180038440     libvcruntime:ehhelpers.obj
 0002:00000790       ??_C@_08EHJDFFNH@__based?$CI@ 0000000180038790     libvcruntime:undname.obj
 0002:000007a0       ??_C@_07KOLFKCDI@__cdecl@  00000001800387a0     libvcruntime:undname.obj
 0002:000007a8       ??_C@_08GHMPAG@__pascal@   00000001800387a8     libvcruntime:undname.obj
 0002:000007b8       ??_C@_09IFJBGAPI@__stdcall@ 00000001800387b8     libvcruntime:undname.obj
 0002:000007c8       ??_C@_0L@NPHFGOKO@__thiscall@ 00000001800387c8     libvcruntime:undname.obj
 0002:000007d8       ??_C@_0L@JMKHOMEK@__fastcall@ 00000001800387d8     libvcruntime:undname.obj
 0002:000007e8       ??_C@_0N@BCKKPABJ@__vectorcall@ 00000001800387e8     libvcruntime:undname.obj
 0002:000007f8       ??_C@_09HIJEGCPM@__clrcall@ 00000001800387f8     libvcruntime:undname.obj
 0002:00000804       ??_C@_06GHPCKEAG@__eabi@   0000000180038804     libvcruntime:undname.obj
 0002:00000810       ??_C@_09IOPIDJLG@__swift_1@ 0000000180038810     libvcruntime:undname.obj
 0002:00000820       ??_C@_09KFNFGKHF@__swift_2@ 0000000180038820     libvcruntime:undname.obj
 0002:00000830       ??_C@_07JOMMBBKO@__ptr64@  0000000180038830     libvcruntime:undname.obj
 0002:00000838       ??_C@_0L@PILCLIHE@__restrict@ 0000000180038838     libvcruntime:undname.obj
 0002:00000848       ??_C@_0M@GFIIJFMG@__unaligned@ 0000000180038848     libvcruntime:undname.obj
 0002:00000858       ??_C@_09DHDLOLLB@restrict?$CI@ 0000000180038858     libvcruntime:undname.obj
 0002:00000862       ??_C@_00CNPNBAHC@@         0000000180038862     libvcruntime:undname.obj
 0002:00000864       ??_C@_04NIHEBCM@?5new@     0000000180038864     libvcruntime:undname.obj
 0002:00000870       ??_C@_07FPCDHGMM@?5delete@ 0000000180038870     libvcruntime:undname.obj
 0002:00000878       ??_C@_02GPIOPFAK@?$DO?$DO@ 0000000180038878     libvcruntime:undname.obj
 0002:0000087c       ??_C@_02FODMEDOG@?$DM?$DM@ 000000018003887c     libvcruntime:undname.obj
 0002:00000880       ??_C@_01DCLJPIOD@?$CB@     0000000180038880     libvcruntime:undname.obj
 0002:00000884       ??_C@_02EGOFBIJA@?$DN?$DN@ 0000000180038884     libvcruntime:undname.obj
 0002:00000888       ??_C@_02FDNJECIE@?$CB?$DN@ 0000000180038888     libvcruntime:undname.obj
 0002:0000088c       ??_C@_02GPECMEKF@?$FL?$FN@ 000000018003888c     libvcruntime:undname.obj
 0002:00000890       ??_C@_08LHJFAFGD@operator@ 0000000180038890     libvcruntime:undname.obj
 0002:0000089c       ??_C@_02HBOOOICD@?9?$DO@   000000018003889c     libvcruntime:undname.obj
 0002:000008a0       ??_C@_01NBENCBCI@?$CK@     00000001800388a0     libvcruntime:undname.obj
 0002:000008a4       ??_C@_02ECNGHCIF@?$CL?$CL@ 00000001800388a4     libvcruntime:undname.obj
 0002:000008a8       ??_C@_02BAABKJLB@?9?9@     00000001800388a8     libvcruntime:undname.obj
 0002:000008ac       ??_C@_01JOAMLHOP@?9@       00000001800388ac     libvcruntime:undname.obj
 0002:000008b0       ??_C@_01MIFGBAGJ@?$CL@     00000001800388b0     libvcruntime:undname.obj
 0002:000008b4       ??_C@_01HNPIGOCE@?$CG@     00000001800388b4     libvcruntime:undname.obj
 0002:000008b8       ??_C@_03MNHNFDLC@?9?$DO?$CK@ 00000001800388b8     libvcruntime:undname.obj
 0002:000008bc       ??_C@_01KMDKNFGN@?1@       00000001800388bc     libvcruntime:undname.obj
 0002:000008c0       ??_C@_01FGNFDNOH@?$CF@     00000001800388c0     libvcruntime:undname.obj
 0002:000008c4       ??_C@_01MNNFJEPP@?$DM@     00000001800388c4     libvcruntime:undname.obj
 0002:000008c8       ??_C@_02EHCHHCKH@?$DM?$DN@ 00000001800388c8     libvcruntime:undname.obj
 0002:000008cc       ??_C@_01PPODPGHN@?$DO@     00000001800388cc     libvcruntime:undname.obj
 0002:000008d0       ??_C@_02EEKDKGMJ@?$DO?$DN@ 00000001800388d0     libvcruntime:undname.obj
 0002:000008d4       ??_C@_01IHBHIGKO@?0@       00000001800388d4     libvcruntime:undname.obj
 0002:000008d8       ??_C@_02HCKGKOFO@?$CI?$CJ@ 00000001800388d8     libvcruntime:undname.obj
 0002:000008dc       ??_C@_01PJKLJHI@?$HO@      00000001800388dc     libvcruntime:undname.obj
 0002:000008e0       ??_C@_01JKBOJNNK@?$FO@     00000001800388e0     libvcruntime:undname.obj
 0002:000008e4       ??_C@_01DNKMNLPK@?$HM@     00000001800388e4     libvcruntime:undname.obj
 0002:000008e8       ??_C@_02PPKAJPJL@?$CG?$CG@ 00000001800388e8     libvcruntime:undname.obj
 0002:000008ec       ??_C@_02NONPIBCD@?$HM?$HM@ 00000001800388ec     libvcruntime:undname.obj
 0002:000008f0       ??_C@_02FPIMKNGF@?$CK?$DN@ 00000001800388f0     libvcruntime:undname.obj
 0002:000008f4       ??_C@_02FOEOMHFC@?$CL?$DN@ 00000001800388f4     libvcruntime:undname.obj
 0002:000008f8       ??_C@_02FKMDLLOA@?9?$DN@   00000001800388f8     libvcruntime:undname.obj
 0002:000008fc       ??_C@_02FJEHGPIO@?1?$DN@   00000001800388fc     libvcruntime:undname.obj
 0002:00000900       ??_C@_02FENAOKFI@?$CF?$DN@ 0000000180038900     libvcruntime:undname.obj
 0002:00000904       ??_C@_03IKFCCPFF@?$DO?$DO?$DN@ 0000000180038904     libvcruntime:undname.obj
 0002:00000908       ??_C@_03CDNPDDLA@?$DM?$DM?$DN@ 0000000180038908     libvcruntime:undname.obj
 0002:0000090c       ??_C@_02FGJGFEAB@?$CG?$DN@ 000000018003890c     libvcruntime:undname.obj
 0002:00000910       ??_C@_02DHLNPPGH@?$HM?$DN@ 0000000180038910     libvcruntime:undname.obj
 0002:00000914       ??_C@_02MHEGNOJ@?$FO?$DN@  0000000180038914     libvcruntime:undname.obj
 0002:00000918       ??_C@_09IFPLHPGF@?$GAvftable?8@ 0000000180038918     libvcruntime:undname.obj
 0002:00000928       ??_C@_09BLBHBJP@?$GAvbtable?8@ 0000000180038928     libvcruntime:undname.obj
 0002:00000938       ??_C@_07FEEIOKP@?$GAvcall?8@ 0000000180038938     libvcruntime:undname.obj
 0002:00000940       ??_C@_08LLFFHHDJ@?$GAtypeof?8@ 0000000180038940     libvcruntime:undname.obj
 0002:00000950       ??_C@_0BF@KDPPACIK@?$GAlocal?5static?5guard?8@ 0000000180038950     libvcruntime:undname.obj
 0002:00000968       ??_C@_08OBABFOLI@?$GAstring?8@ 0000000180038968     libvcruntime:undname.obj
 0002:00000978       ??_C@_0BD@JDLKDPAB@?$GAvbase?5destructor?8@ 0000000180038978     libvcruntime:undname.obj
 0002:00000990       ??_C@_0BN@DEGPLNFK@?$GAvector?5deleting?5destructor?8@ 0000000180038990     libvcruntime:undname.obj
 0002:000009b0       ??_C@_0BO@OBMKPJIG@?$GAdefault?5constructor?5closure?8@ 00000001800389b0     libvcruntime:undname.obj
 0002:000009d0       ??_C@_0BN@IMDCHIKM@?$GAscalar?5deleting?5destructor?8@ 00000001800389d0     libvcruntime:undname.obj
 0002:000009f0       ??_C@_0BO@PFGOCPJJ@?$GAvector?5constructor?5iterator?8@ 00000001800389f0     libvcruntime:undname.obj
 0002:00000a10       ??_C@_0BN@LFPFMEDL@?$GAvector?5destructor?5iterator?8@ 0000000180038a10     libvcruntime:undname.obj
 0002:00000a30       ??_C@_0CE@IKBNEHA@?$GAvector?5vbase?5constructor?5itera@ 0000000180038a30     libvcruntime:undname.obj
 0002:00000a58       ??_C@_0BL@NILFHHPC@?$GAvirtual?5displacement?5map?8@ 0000000180038a58     libvcruntime:undname.obj
 0002:00000a78       ??_C@_0CB@JONCMFFK@?$GAeh?5vector?5constructor?5iterator@ 0000000180038a78     libvcruntime:undname.obj
 0002:00000aa0       ??_C@_0CA@GCEOPDGL@?$GAeh?5vector?5destructor?5iterator?8@ 0000000180038aa0     libvcruntime:undname.obj
 0002:00000ac0       ??_C@_0CH@OOJPLCPH@?$GAeh?5vector?5vbase?5constructor?5it@ 0000000180038ac0     libvcruntime:undname.obj
 0002:00000ae8       ??_C@_0BL@LLKPOHJI@?$GAcopy?5constructor?5closure?8@ 0000000180038ae8     libvcruntime:undname.obj
 0002:00000b08       ??_C@_0BA@KBCDOMBN@?$GAudt?5returning?8@ 0000000180038b08     libvcruntime:undname.obj
 0002:00000b18       ??_C@_03KLGMFNMG@?$GAEH@   0000000180038b18     libvcruntime:undname.obj
 0002:00000b1c       ??_C@_05KHLCHHI@?$GARTTI@  0000000180038b1c     libvcruntime:undname.obj
 0002:00000b28       ??_C@_0BA@KKLDJDLB@?$GAlocal?5vftable?8@ 0000000180038b28     libvcruntime:undname.obj
 0002:00000b38       ??_C@_0CE@IIHCMGGL@?$GAlocal?5vftable?5constructor?5clos@ 0000000180038b38     libvcruntime:undname.obj
 0002:00000b5c       ??_C@_06FHBGPFGH@?5new?$FL?$FN@ 0000000180038b5c     libvcruntime:undname.obj
 0002:00000b68       ??_C@_09LBNFPBCA@?5delete?$FL?$FN@ 0000000180038b68     libvcruntime:undname.obj
 0002:00000b78       ??_C@_0P@HJKNJFNN@?$GAomni?5callsig?8@ 0000000180038b78     libvcruntime:undname.obj
 0002:00000b88       ??_C@_0BL@CNOONJFP@?$GAplacement?5delete?5closure?8@ 0000000180038b88     libvcruntime:undname.obj
 0002:00000ba8       ??_C@_0BN@CKNJLHMB@?$GAplacement?5delete?$FL?$FN?5closure?8@ 0000000180038ba8     libvcruntime:undname.obj
 0002:00000bc8       ??_C@_0CG@CFDHKGGD@?$GAmanaged?5vector?5constructor?5ite@ 0000000180038bc8     libvcruntime:undname.obj
 0002:00000bf0       ??_C@_0CF@IMGKMJNO@?$GAmanaged?5vector?5destructor?5iter@ 0000000180038bf0     libvcruntime:undname.obj
 0002:00000c18       ??_C@_0CG@HLDDJMAG@?$GAeh?5vector?5copy?5constructor?5ite@ 0000000180038c18     libvcruntime:undname.obj
 0002:00000c40       ??_C@_0CM@FCBBDIGB@?$GAeh?5vector?5vbase?5copy?5construct@ 0000000180038c40     libvcruntime:undname.obj
 0002:00000c70       ??_C@_0BL@CLIPGLGB@?$GAdynamic?5initializer?5for?5?8@ 0000000180038c70     libvcruntime:undname.obj
 0002:00000c90       ??_C@_0CB@PDBIFEP@?$GAdynamic?5atexit?5destructor?5for?5@ 0000000180038c90     libvcruntime:undname.obj
 0002:00000cb8       ??_C@_0CD@CGAJBKEJ@?$GAvector?5copy?5constructor?5iterat@ 0000000180038cb8     libvcruntime:undname.obj
 0002:00000ce0       ??_C@_0CJ@GJELGAMM@?$GAvector?5vbase?5copy?5constructor?5@ 0000000180038ce0     libvcruntime:undname.obj
 0002:00000d10       ??_C@_0CL@FGIJHLCE@?$GAmanaged?5vector?5copy?5constructo@ 0000000180038d10     libvcruntime:undname.obj
 0002:00000d40       ??_C@_0BM@PMGGMLDN@?$GAlocal?5static?5thread?5guard?8@ 0000000180038d40     libvcruntime:undname.obj
 0002:00000d60       ??_C@_0N@BDNMDMOL@operator?5?$CC?$CC?5@ 0000000180038d60     libvcruntime:undname.obj
 0002:00000d70       ??_C@_0BC@GGEBGALA@operator?5co_await@ 0000000180038d70     libvcruntime:undname.obj
 0002:00000d88       ??_C@_0M@GAAIMMOH@operator?$DM?$DN?$DO@ 0000000180038d88     libvcruntime:undname.obj
 0002:00000d98       ??_C@_0BC@DAFEJGAK@?5Type?5Descriptor?8@ 0000000180038d98     libvcruntime:undname.obj
 0002:00000db0       ??_C@_0BM@LDKODKLH@?5Base?5Class?5Descriptor?5at?5?$CI@ 0000000180038db0     libvcruntime:undname.obj
 0002:00000dd0       ??_C@_0BD@LGICGFMM@?5Base?5Class?5Array?8@ 0000000180038dd0     libvcruntime:undname.obj
 0002:00000de8       ??_C@_0BN@MECKDCOJ@?5Class?5Hierarchy?5Descriptor?8@ 0000000180038de8     libvcruntime:undname.obj
 0002:00000e08       ??_C@_0BK@CFCOFLF@?5Complete?5Object?5Locator?8@ 0000000180038e08     libvcruntime:undname.obj
 0002:00000e40       ??_C@_1DM@KHCHBNEB@?$AAa?$AAp?$AAi?$AA?9?$AAm?$AAs?$AA?9?$AAw?$AAi?$AAn?$AA?9?$AAc?$AAo?$AAr?$AAe@ 0000000180038e40     libvcruntime:winapi_downlevel.obj
 0002:00000e80       ??_C@_1DK@LPPGFMPP@?$AAa?$AAp?$AAi?$AA?9?$AAm?$AAs?$AA?9?$AAw?$AAi?$AAn?$AA?9?$AAc?$AAo?$AAr?$AAe@ 0000000180038e80     libvcruntime:winapi_downlevel.obj
 0002:00000ec0       ??_C@_1BC@GDMECMAK@?$AAk?$AAe?$AAr?$AAn?$AAe?$AAl?$AA3?$AA2@ 0000000180038ec0     libvcruntime:winapi_downlevel.obj
 0002:00000ed8       ??_C@_1BA@PFFKHIOG@?$AAa?$AAp?$AAi?$AA?9?$AAm?$AAs?$AA?9@ 0000000180038ed8     libvcruntime:winapi_downlevel.obj
 0002:00000ef0       ??_C@_08KNHFBNJ@FlsAlloc@  0000000180038ef0     libvcruntime:winapi_downlevel.obj
 0002:00000f08       ??_C@_07PEJMOBNF@FlsFree@  0000000180038f08     libvcruntime:winapi_downlevel.obj
 0002:00000f18       ??_C@_0M@GDNOONDI@FlsGetValue@ 0000000180038f18     libvcruntime:winapi_downlevel.obj
 0002:00000f30       ??_C@_0M@JCPCPOEF@FlsSetValue@ 0000000180038f30     libvcruntime:winapi_downlevel.obj
 0002:00000f48       ??_C@_0BM@HCFOFFN@InitializeCriticalSectionEx@ 0000000180038f48     libvcruntime:winapi_downlevel.obj
 0002:00000f70       ??_C@_1FE@LHBLIKM@?$AAA?$AAs?$AAs?$AAe?$AAr?$AAt?$AAi?$AAo?$AAn?$AA?5?$AAf?$AAa?$AAi?$AAl?$AAe?$AAd?$AA?3?$AA?5?$AA?$CF?$AAT?$AAs?$AA?0?$AA?5?$AAf?$AAi?$AAl?$AAe?$AA?5?$AA?$CF?$AAT?$AAs?$AA?0@ 0000000180038f70     libucrt:assert.obj
 0002:00000fd0       ??_C@_1EK@MBDPDCGA@?$AAM?$AAi?$AAc?$AAr?$AAo?$AAs?$AAo?$AAf?$AAt?$AA?5?$AAV?$AAi?$AAs?$AAu?$AAa?$AAl?$AA?5?$AAC?$AA?$CL?$AA?$CL?$AA?5?$AAR?$AAu?$AAn?$AAt?$AAi?$AAm?$AAe?$AA?5?$AAL?$AAi?$AAb@ 0000000180038fd0     libucrt:assert.obj
 0002:00001020       ??_C@_1CE@OJBNHDMO@?$AAA?$AAs?$AAs?$AAe?$AAr?$AAt?$AAi?$AAo?$AAn?$AA?5?$AAf?$AAa?$AAi?$AAl?$AAe?$AAd?$AA?$CB?$AA?$AA@ 0000000180039020     libucrt:assert.obj
 0002:00001048       ??_C@_1BE@PHKBBGE@?$AAP?$AAr?$AAo?$AAg?$AAr?$AAa?$AAm?$AA?3?$AA?5?$AA?$AA@ 0000000180039048     libucrt:assert.obj
 0002:00001060       ??_C@_1O@HEMHKNDC@?$AAF?$AAi?$AAl?$AAe?$AA?3?$AA?5?$AA?$AA@ 0000000180039060     libucrt:assert.obj
 0002:00001070       ??_C@_1O@KCAFKHJE@?$AAL?$AAi?$AAn?$AAe?$AA?3?$AA?5?$AA?$AA@ 0000000180039070     libucrt:assert.obj
 0002:00001080       ??_C@_1BK@PEDCIPMA@?$AAE?$AAx?$AAp?$AAr?$AAe?$AAs?$AAs?$AAi?$AAo?$AAn?$AA?3?$AA?5?$AA?$AA@ 0000000180039080     libucrt:assert.obj
 0002:000010a0       ??_C@_1OA@EGMLFBHJ@?$AAF?$AAo?$AAr?$AA?5?$AAi?$AAn?$AAf?$AAo?$AAr?$AAm?$AAa?$AAt?$AAi?$AAo?$AAn?$AA?5?$AAo?$AAn?$AA?5?$AAh?$AAo?$AAw?$AA?5?$AAy?$AAo?$AAu?$AAr?$AA?5?$AAp?$AAr?$AAo?$AAg@ 00000001800390a0     libucrt:assert.obj
 0002:00001180       ??_C@_1HK@POCJMFGK@?$AA?$CI?$AAP?$AAr?$AAe?$AAs?$AAs?$AA?5?$AAR?$AAe?$AAt?$AAr?$AAy?$AA?5?$AAt?$AAo?$AA?5?$AAd?$AAe?$AAb?$AAu?$AAg?$AA?5?$AAt?$AAh?$AAe?$AA?5?$AAa?$AAp?$AAp?$AAl?$AAi?$AAc@ 0000000180039180     libucrt:assert.obj
 0002:00001200       ??_C@_17LGKOMLJ@?$AA?4?$AA?4?$AA?4?$AA?$AA@ 0000000180039200     libucrt:assert.obj
 0002:00001208       ??_C@_13LBAGMAIH@?$AA?6?$AA?$AA@ 0000000180039208     libucrt:assert.obj
 0002:0000120c       ??_C@_15IABLJNFO@?$AA?6?$AA?6?$AA?$AA@ 000000018003920c     libucrt:assert.obj
 0002:00001218       ??_C@_1CO@EAEJAADC@?$AA?$DM?$AAp?$AAr?$AAo?$AAg?$AAr?$AAa?$AAm?$AA?5?$AAn?$AAa?$AAm?$AAe?$AA?5?$AAu?$AAn?$AAk?$AAn?$AAo?$AAw?$AAn?$AA?$DO?$AA?$AA@ 0000000180039218     libucrt:assert.obj
 0002:00001248       __real@0000000000000000    0000000180039248     libucrt:ldexp.obj
 0002:00001250       ??_C@_1BI@BGOHAHKC@?$AAm?$AAs?$AAc?$AAo?$AAr?$AAe?$AAe?$AA?4?$AAd?$AAl?$AAl?$AA?$AA@ 0000000180039250     libucrt:exit.obj
 0002:00001268       ??_C@_0P@MIGLKIOC@CorExitProcess?$AA@ 0000000180039268     libucrt:exit.obj
 0002:00001280       __acrt_exception_action_table 0000000180039280     libucrt:exception_filter.obj
 0002:00001340       __acrt_signal_action_table_count 0000000180039340     libucrt:exception_filter.obj
 0002:00001348       __acrt_signal_action_first_fpe_index 0000000180039348     libucrt:exception_filter.obj
 0002:00001350       __acrt_signal_action_fpe_count 0000000180039350     libucrt:exception_filter.obj
 0002:00001460       standard_lookup_table      0000000180039460     libucrt:output.obj
 0002:000014c0       ??_C@_1O@CEDCILHN@?$AA?$CI?$AAn?$AAu?$AAl?$AAl?$AA?$CJ?$AA?$AA@ 00000001800394c0     libucrt:output.obj
 0002:000014d0       ??_C@_06OJHGLDPL@?$CInull?$CJ?$AA@ 00000001800394d0     libucrt:output.obj
 0002:00001650       __lc_time_c                0000000180039650     libucrt:nlsdata.obj
 0002:00001910       ??_C@_03KOEHGMDN@Sun?$AA@  0000000180039910     libucrt:nlsdata.obj
 0002:00001914       ??_C@_03PDAGKDH@Mon?$AA@   0000000180039914     libucrt:nlsdata.obj
 0002:00001918       ??_C@_03NAGEINEP@Tue?$AA@  0000000180039918     libucrt:nlsdata.obj
 0002:0000191c       ??_C@_03MHOMLAJA@Wed?$AA@  000000018003991c     libucrt:nlsdata.obj
 0002:00001920       ??_C@_03IOFIKPDN@Thu?$AA@  0000000180039920     libucrt:nlsdata.obj
 0002:00001924       ??_C@_03IDIOELNC@Fri?$AA@  0000000180039924     libucrt:nlsdata.obj
 0002:00001928       ??_C@_03FEFJNEK@Sat?$AA@   0000000180039928     libucrt:nlsdata.obj
 0002:0000192c       ??_C@_06OOPIFAJ@Sunday?$AA@ 000000018003992c     libucrt:nlsdata.obj
 0002:00001934       ??_C@_06JLEDEDGH@Monday?$AA@ 0000000180039934     libucrt:nlsdata.obj
 0002:00001940       ??_C@_07BAAGCFCM@Tuesday?$AA@ 0000000180039940     libucrt:nlsdata.obj
 0002:00001948       ??_C@_09DLIGFAKA@Wednesday?$AA@ 0000000180039948     libucrt:nlsdata.obj
 0002:00001958       ??_C@_08HACCIKIA@Thursday?$AA@ 0000000180039958     libucrt:nlsdata.obj
 0002:00001964       ??_C@_06JECMNKMI@Friday?$AA@ 0000000180039964     libucrt:nlsdata.obj
 0002:00001970       ??_C@_08INBOOONO@Saturday?$AA@ 0000000180039970     libucrt:nlsdata.obj
 0002:0000197c       ??_C@_03JIHJHPIE@Jan?$AA@  000000018003997c     libucrt:nlsdata.obj
 0002:00001980       ??_C@_03HJBDCHOM@Feb?$AA@  0000000180039980     libucrt:nlsdata.obj
 0002:00001984       ??_C@_03ODNJBKGA@Mar?$AA@  0000000180039984     libucrt:nlsdata.obj
 0002:00001988       ??_C@_03LEOLGMJP@Apr?$AA@  0000000180039988     libucrt:nlsdata.obj
 0002:0000198c       ??_C@_03CNMDKL@May?$AA@    000000018003998c     libucrt:nlsdata.obj
 0002:00001990       ??_C@_03IDFGHECI@Jun?$AA@  0000000180039990     libucrt:nlsdata.obj
 0002:00001994       ??_C@_03LBGABGKK@Jul?$AA@  0000000180039994     libucrt:nlsdata.obj
 0002:00001998       ??_C@_03IFJFEIGA@Aug?$AA@  0000000180039998     libucrt:nlsdata.obj
 0002:0000199c       ??_C@_03GGCAPAJC@Sep?$AA@  000000018003999c     libucrt:nlsdata.obj
 0002:000019a0       ??_C@_03BMAOKBAD@Oct?$AA@  00000001800399a0     libucrt:nlsdata.obj
 0002:000019a4       ??_C@_03JPJOFNIA@Nov?$AA@  00000001800399a4     libucrt:nlsdata.obj
 0002:000019a8       ??_C@_03MKABNOCG@Dec?$AA@  00000001800399a8     libucrt:nlsdata.obj
 0002:000019b0       ??_C@_07CGJPFGJA@January?$AA@ 00000001800399b0     libucrt:nlsdata.obj
 0002:000019b8       ??_C@_08GNJGEPFN@February?$AA@ 00000001800399b8     libucrt:nlsdata.obj
 0002:000019c4       ??_C@_05HPCKOFNC@March?$AA@ 00000001800399c4     libucrt:nlsdata.obj
 0002:000019cc       ??_C@_05DMJDNLEJ@April?$AA@ 00000001800399cc     libucrt:nlsdata.obj
 0002:000019d4       ??_C@_04CNLMGBGM@June?$AA@ 00000001800399d4     libucrt:nlsdata.obj
 0002:000019dc       ??_C@_04MIEPOIFP@July?$AA@ 00000001800399dc     libucrt:nlsdata.obj
 0002:000019e4       ??_C@_06LBBHFDDG@August?$AA@ 00000001800399e4     libucrt:nlsdata.obj
 0002:000019f0       ??_C@_09BHHEALKD@September?$AA@ 00000001800399f0     libucrt:nlsdata.obj
 0002:00001a00       ??_C@_07JJNFCEND@October?$AA@ 0000000180039a00     libucrt:nlsdata.obj
 0002:00001a08       ??_C@_08HCHEGEOA@November?$AA@ 0000000180039a08     libucrt:nlsdata.obj
 0002:00001a18       ??_C@_08EDHMEBNP@December?$AA@ 0000000180039a18     libucrt:nlsdata.obj
 0002:00001a24       ??_C@_02DEDBPAFC@AM?$AA@   0000000180039a24     libucrt:nlsdata.obj
 0002:00001a28       ??_C@_02CJNFDJBF@PM?$AA@   0000000180039a28     libucrt:nlsdata.obj
 0002:00001a30       ??_C@_08BPBNCDIB@MM?1dd?1yy?$AA@ 0000000180039a30     libucrt:nlsdata.obj
 0002:00001a40       ??_C@_0BE@CKGJFCPC@dddd?0?5MMMM?5dd?0?5yyyy?$AA@ 0000000180039a40     libucrt:nlsdata.obj
 0002:00001a58       ??_C@_08JCCMCCIL@HH?3mm?3ss?$AA@ 0000000180039a58     libucrt:nlsdata.obj
 0002:00001a68       ??_C@_17MBGCMIPB@?$AAS?$AAu?$AAn?$AA?$AA@ 0000000180039a68     libucrt:nlsdata.obj
 0002:00001a70       ??_C@_17KBOMKBF@?$AAM?$AAo?$AAn?$AA?$AA@ 0000000180039a70     libucrt:nlsdata.obj
 0002:00001a78       ??_C@_17BMKGEGOJ@?$AAT?$AAu?$AAe?$AA?$AA@ 0000000180039a78     libucrt:nlsdata.obj
 0002:00001a80       ??_C@_17CJEDCEPE@?$AAW?$AAe?$AAd?$AA?$AA@ 0000000180039a80     libucrt:nlsdata.obj
 0002:00001a88       ??_C@_17PDPHAADD@?$AAT?$AAh?$AAu?$AA?$AA@ 0000000180039a88     libucrt:nlsdata.obj
 0002:00001a90       ??_C@_17HFOLPPLP@?$AAF?$AAr?$AAi?$AA?$AA@ 0000000180039a90     libucrt:nlsdata.obj
 0002:00001a98       ??_C@_17GGIBDPIH@?$AAS?$AAa?$AAt?$AA?$AA@ 0000000180039a98     libucrt:nlsdata.obj
 0002:00001aa0       ??_C@_1O@IHNHDHPB@?$AAS?$AAu?$AAn?$AAd?$AAa?$AAy?$AA?$AA@ 0000000180039aa0     libucrt:nlsdata.obj
 0002:00001ab0       ??_C@_1O@MMNBFLIA@?$AAM?$AAo?$AAn?$AAd?$AAa?$AAy?$AA?$AA@ 0000000180039ab0     libucrt:nlsdata.obj
 0002:00001ac0       ??_C@_1BA@ENFBFFEK@?$AAT?$AAu?$AAe?$AAs?$AAd?$AAa?$AAy?$AA?$AA@ 0000000180039ac0     libucrt:nlsdata.obj
 0002:00001ad0       ??_C@_1BE@EBOGMDOH@?$AAW?$AAe?$AAd?$AAn?$AAe?$AAs?$AAd?$AAa?$AAy?$AA?$AA@ 0000000180039ad0     libucrt:nlsdata.obj
 0002:00001ae8       ??_C@_1BC@HHMNLIHE@?$AAT?$AAh?$AAu?$AAr?$AAs?$AAd?$AAa?$AAy?$AA?$AA@ 0000000180039ae8     libucrt:nlsdata.obj
 0002:00001b00       ??_C@_1O@PDICJHAG@?$AAF?$AAr?$AAi?$AAd?$AAa?$AAy?$AA?$AA@ 0000000180039b00     libucrt:nlsdata.obj
 0002:00001b10       ??_C@_1BC@ENMNNPAJ@?$AAS?$AAa?$AAt?$AAu?$AAr?$AAd?$AAa?$AAy?$AA?$AA@ 0000000180039b10     libucrt:nlsdata.obj
 0002:00001b28       ??_C@_17DKNBKCHM@?$AAJ?$AAa?$AAn?$AA?$AA@ 0000000180039b28     libucrt:nlsdata.obj
 0002:00001b30       ??_C@_17LMDJEKJN@?$AAF?$AAe?$AAb?$AA?$AA@ 0000000180039b30     libucrt:nlsdata.obj
 0002:00001b38       ??_C@_17CKNLEDEC@?$AAM?$AAa?$AAr?$AA?$AA@ 0000000180039b38     libucrt:nlsdata.obj
 0002:00001b40       ??_C@_17LFPOIHDD@?$AAA?$AAp?$AAr?$AA?$AA@ 0000000180039b40     libucrt:nlsdata.obj
 0002:00001b48       ??_C@_17PNNKMEED@?$AAM?$AAa?$AAy?$AA?$AA@ 0000000180039b48     libucrt:nlsdata.obj
 0002:00001b50       ??_C@_17KCJGOCPB@?$AAJ?$AAu?$AAn?$AA?$AA@ 0000000180039b50     libucrt:nlsdata.obj
 0002:00001b58       ??_C@_17IJPCKHK@?$AAJ?$AAu?$AAl?$AA?$AA@ 0000000180039b58     libucrt:nlsdata.obj
 0002:00001b60       ??_C@_17ICPELBCN@?$AAA?$AAu?$AAg?$AA?$AA@ 0000000180039b60     libucrt:nlsdata.obj
 0002:00001b68       ??_C@_17HCHCOKMG@?$AAS?$AAe?$AAp?$AA?$AA@ 0000000180039b68     libucrt:nlsdata.obj
 0002:00001b70       ??_C@_17FNLKOI@?$AAO?$AAc?$AAt?$AA?$AA@ 0000000180039b70     libucrt:nlsdata.obj
 0002:00001b78       ??_C@_17BBDMLCIG@?$AAN?$AAo?$AAv?$AA?$AA@ 0000000180039b78     libucrt:nlsdata.obj
 0002:00001b80       ??_C@_17EGKACKIF@?$AAD?$AAe?$AAc?$AA?$AA@ 0000000180039b80     libucrt:nlsdata.obj
 0002:00001b88       ??_C@_1BA@EFMEIEBA@?$AAJ?$AAa?$AAn?$AAu?$AAa?$AAr?$AAy?$AA?$AA@ 0000000180039b88     libucrt:nlsdata.obj
 0002:00001b98       ??_C@_1BC@JGDDFFAM@?$AAF?$AAe?$AAb?$AAr?$AAu?$AAa?$AAr?$AAy?$AA?$AA@ 0000000180039b98     libucrt:nlsdata.obj
 0002:00001bb0       ??_C@_1M@IKEENEDF@?$AAM?$AAa?$AAr?$AAc?$AAh?$AA?$AA@ 0000000180039bb0     libucrt:nlsdata.obj
 0002:00001bc0       ??_C@_1M@GJNLMHFD@?$AAA?$AAp?$AAr?$AAi?$AAl?$AA?$AA@ 0000000180039bc0     libucrt:nlsdata.obj
 0002:00001bd0       ??_C@_19EPFLPGAP@?$AAJ?$AAu?$AAn?$AAe?$AA?$AA@ 0000000180039bd0     libucrt:nlsdata.obj
 0002:00001be0       ??_C@_19BIFMLPCD@?$AAJ?$AAu?$AAl?$AAy?$AA?$AA@ 0000000180039be0     libucrt:nlsdata.obj
 0002:00001bf0       ??_C@_1O@PAHLKOAC@?$AAA?$AAu?$AAg?$AAu?$AAs?$AAt?$AA?$AA@ 0000000180039bf0     libucrt:nlsdata.obj
 0002:00001c00       ??_C@_1BE@DKAAMBJL@?$AAS?$AAe?$AAp?$AAt?$AAe?$AAm?$AAb?$AAe?$AAr?$AA?$AA@ 0000000180039c00     libucrt:nlsdata.obj
 0002:00001c18       ??_C@_1BA@EPANDLNG@?$AAO?$AAc?$AAt?$AAo?$AAb?$AAe?$AAr?$AA?$AA@ 0000000180039c18     libucrt:nlsdata.obj
 0002:00001c28       ??_C@_1BC@BGLIFPF@?$AAN?$AAo?$AAv?$AAe?$AAm?$AAb?$AAe?$AAr?$AA?$AA@ 0000000180039c28     libucrt:nlsdata.obj
 0002:00001c40       ??_C@_1BC@FEMKIFH@?$AAD?$AAe?$AAc?$AAe?$AAm?$AAb?$AAe?$AAr?$AA?$AA@ 0000000180039c40     libucrt:nlsdata.obj
 0002:00001c54       ??_C@_15ODEHAHHF@?$AAA?$AAM?$AA?$AA@ 0000000180039c54     libucrt:nlsdata.obj
 0002:00001c5c       ??_C@_15CLMNNGEL@?$AAP?$AAM?$AA?$AA@ 0000000180039c5c     libucrt:nlsdata.obj
 0002:00001c68       ??_C@_1BC@IEBCMHCM@?$AAM?$AAM?$AA?1?$AAd?$AAd?$AA?1?$AAy?$AAy?$AA?$AA@ 0000000180039c68     libucrt:nlsdata.obj
 0002:00001c80       ??_C@_1CI@KNAKOEBC@?$AAd?$AAd?$AAd?$AAd?$AA?0?$AA?5?$AAM?$AAM?$AAM?$AAM?$AA?5?$AAd?$AAd?$AA?0?$AA?5?$AAy?$AAy?$AAy?$AAy?$AA?$AA@ 0000000180039c80     libucrt:nlsdata.obj
 0002:00001ca8       ??_C@_1BC@GDGBMEMK@?$AAH?$AAH?$AA?3?$AAm?$AAm?$AA?3?$AAs?$AAs?$AA?$AA@ 0000000180039ca8     libucrt:nlsdata.obj
 0002:00001cc0       ??_C@_1M@BMHNFIME@?$AAe?$AAn?$AA?9?$AAU?$AAS?$AA?$AA@ 0000000180039cc0     libucrt:nlsdata.obj
 0002:00001cd0       __newctype                 0000000180039cd0     libucrt:ctype.obj
 0002:00001fd0       __newclmap                 0000000180039fd0     libucrt:ctype.obj
 0002:00002150       __newcumap                 000000018003a150     libucrt:ctype.obj
 0002:000022d0       _wctype                    000000018003a2d0     libucrt:ctype.obj
 0002:000024d8       _d_inf                     000000018003a4d8     libucrt:util.obj
 0002:000024e0       _d_max                     000000018003a4e0     libucrt:util.obj
 0002:000026c0       ??_C@_03KHJOGHMM@exp?$AA@  000000018003a6c0     libucrt:fpexcept.obj
 0002:000026c4       ??_C@_03JGHBODFD@pow?$AA@  000000018003a6c4     libucrt:fpexcept.obj
 0002:000026c8       ??_C@_03MGHMBJCF@log?$AA@  000000018003a6c8     libucrt:fpexcept.obj
 0002:000026cc       ??_C@_05HGHHAHAP@log10?$AA@ 000000018003a6cc     libucrt:fpexcept.obj
 0002:000026d4       ??_C@_04COOMCNPB@sinh?$AA@ 000000018003a6d4     libucrt:fpexcept.obj
 0002:000026dc       ??_C@_04HPJJNFIM@cosh?$AA@ 000000018003a6dc     libucrt:fpexcept.obj
 0002:000026e4       ??_C@_04FJHINJAO@tanh?$AA@ 000000018003a6e4     libucrt:fpexcept.obj
 0002:000026ec       ??_C@_04FIHNOPOL@asin?$AA@ 000000018003a6ec     libucrt:fpexcept.obj
 0002:000026f4       ??_C@_04PDIFKINK@acos?$AA@ 000000018003a6f4     libucrt:fpexcept.obj
 0002:000026fc       ??_C@_04MLLJIGOK@atan?$AA@ 000000018003a6fc     libucrt:fpexcept.obj
 0002:00002704       ??_C@_05KNGEOGJB@atan2?$AA@ 000000018003a704     libucrt:fpexcept.obj
 0002:0000270c       ??_C@_04EIAKFFMI@sqrt?$AA@ 000000018003a70c     libucrt:fpexcept.obj
 0002:00002714       ??_C@_03BLEJJJBH@sin?$AA@  000000018003a714     libucrt:fpexcept.obj
 0002:00002718       ??_C@_03LALBNOCG@cos?$AA@  000000018003a718     libucrt:fpexcept.obj
 0002:0000271c       ??_C@_03IIINPABG@tan?$AA@  000000018003a71c     libucrt:fpexcept.obj
 0002:00002720       ??_C@_04GFPJNGEK@ceil?$AA@ 000000018003a720     libucrt:fpexcept.obj
 0002:00002728       ??_C@_05PBJFFIGL@floor?$AA@ 000000018003a728     libucrt:fpexcept.obj
 0002:00002730       ??_C@_04ODHECPBC@fabs?$AA@ 000000018003a730     libucrt:fpexcept.obj
 0002:00002738       ??_C@_04EHEDPDJG@modf?$AA@ 000000018003a738     libucrt:fpexcept.obj
 0002:00002740       ??_C@_05CEJMAHNP@ldexp?$AA@ 000000018003a740     libucrt:fpexcept.obj
 0002:00002748       ??_C@_05KBKMEMPO@_cabs?$AA@ 000000018003a748     libucrt:fpexcept.obj
 0002:00002750       ??_C@_06MEIMCGCF@_hypot?$AA@ 000000018003a750     libucrt:fpexcept.obj
 0002:00002758       ??_C@_04KEPJIHGP@fmod?$AA@ 000000018003a758     libucrt:fpexcept.obj
 0002:00002760       ??_C@_05GKKHEGJL@frexp?$AA@ 000000018003a760     libucrt:fpexcept.obj
 0002:00002768       ??_C@_03MJLDFKDL@_y0?$AA@  000000018003a768     libucrt:fpexcept.obj
 0002:0000276c       ??_C@_03NAKIGLHK@_y1?$AA@  000000018003a76c     libucrt:fpexcept.obj
 0002:00002770       ??_C@_03ONILCKOB@_yn?$AA@  000000018003a770     libucrt:fpexcept.obj
 0002:00002774       ??_C@_05JGDBENOH@_logb?$AA@ 000000018003a774     libucrt:fpexcept.obj
 0002:00002780       ??_C@_0L@KDOEJCKC@_nextafter?$AA@ 000000018003a780     libucrt:fpexcept.obj
 0002:000027b0       ??_C@_1M@HPNHIDJI@?$AAj?$AAa?$AA?9?$AAJ?$AAP?$AA?$AA@ 000000018003a7b0     libucrt:mbctype.obj
 0002:000027c0       ??_C@_1M@BIBDDEMK@?$AAz?$AAh?$AA?9?$AAC?$AAN?$AA?$AA@ 000000018003a7c0     libucrt:mbctype.obj
 0002:000027d0       ??_C@_1M@JLOOOEGK@?$AAk?$AAo?$AA?9?$AAK?$AAR?$AA?$AA@ 000000018003a7d0     libucrt:mbctype.obj
 0002:000027e0       ??_C@_1M@CLNBBOPM@?$AAz?$AAh?$AA?9?$AAT?$AAW?$AA?$AA@ 000000018003a7e0     libucrt:mbctype.obj
 0002:00002890       ??_C@_1EA@JGEFHKEI@?$AAa?$AAp?$AAi?$AA?9?$AAm?$AAs?$AA?9?$AAw?$AAi?$AAn?$AA?9?$AAc?$AAo?$AAr?$AAe?$AA?9?$AAd?$AAa?$AAt?$AAe?$AAt?$AAi?$AAm?$AAe?$AA?9?$AAl?$AA1?$AA?9?$AA1?$AA?9?$AA1?$AA?$AA@ 000000018003a890     libucrt:winapi_thunks.obj
 0002:000028d0       ??_C@_1DM@KHCHBNEB@?$AAa?$AAp?$AAi?$AA?9?$AAm?$AAs?$AA?9?$AAw?$AAi?$AAn?$AA?9?$AAc?$AAo?$AAr?$AAe?$AA?9?$AAf?$AAi?$AAb?$AAe?$AAr?$AAs?$AA?9?$AAl?$AA1?$AA?9?$AA1?$AA?9?$AA1?$AA?$AA@ 000000018003a8d0     libucrt:winapi_thunks.obj
 0002:00002910       ??_C@_1DI@IJCEHOCB@?$AAa?$AAp?$AAi?$AA?9?$AAm?$AAs?$AA?9?$AAw?$AAi?$AAn?$AA?9?$AAc?$AAo?$AAr?$AAe?$AA?9?$AAf?$AAi?$AAl?$AAe?$AA?9?$AAl?$AA1?$AA?9?$AA2?$AA?9?$AA2?$AA?$AA@ 000000018003a910     libucrt:winapi_thunks.obj
 0002:00002950       ??_C@_1EI@MPIAOHOC@?$AAa?$AAp?$AAi?$AA?9?$AAm?$AAs?$AA?9?$AAw?$AAi?$AAn?$AA?9?$AAc?$AAo?$AAr?$AAe?$AA?9?$AAl?$AAo?$AAc?$AAa?$AAl?$AAi?$AAz?$AAa?$AAt?$AAi?$AAo?$AAn?$AA?9?$AAl?$AA1?$AA?9@ 000000018003a950     libucrt:winapi_thunks.obj
 0002:000029a0       ??_C@_1FK@FPHCKFIE@?$AAa?$AAp?$AAi?$AA?9?$AAm?$AAs?$AA?9?$AAw?$AAi?$AAn?$AA?9?$AAc?$AAo?$AAr?$AAe?$AA?9?$AAl?$AAo?$AAc?$AAa?$AAl?$AAi?$AAz?$AAa?$AAt?$AAi?$AAo?$AAn?$AA?9?$AAo?$AAb?$AAs@ 000000018003a9a0     libucrt:winapi_thunks.obj
 0002:00002a00       ??_C@_1EM@DILCGIIO@?$AAa?$AAp?$AAi?$AA?9?$AAm?$AAs?$AA?9?$AAw?$AAi?$AAn?$AA?9?$AAc?$AAo?$AAr?$AAe?$AA?9?$AAp?$AAr?$AAo?$AAc?$AAe?$AAs?$AAs?$AAt?$AAh?$AAr?$AAe?$AAa?$AAd?$AAs?$AA?9?$AAl@ 000000018003aa00     libucrt:winapi_thunks.obj
 0002:00002a50       ??_C@_1DM@LNCGDDPN@?$AAa?$AAp?$AAi?$AA?9?$AAm?$AAs?$AA?9?$AAw?$AAi?$AAn?$AA?9?$AAc?$AAo?$AAr?$AAe?$AA?9?$AAs?$AAt?$AAr?$AAi?$AAn?$AAg?$AA?9?$AAl?$AA1?$AA?9?$AA1?$AA?9?$AA0?$AA?$AA@ 000000018003aa50     libucrt:winapi_thunks.obj
 0002:00002a90       ??_C@_1DK@LPPGFMPP@?$AAa?$AAp?$AAi?$AA?9?$AAm?$AAs?$AA?9?$AAw?$AAi?$AAn?$AA?9?$AAc?$AAo?$AAr?$AAe?$AA?9?$AAs?$AAy?$AAn?$AAc?$AAh?$AA?9?$AAl?$AA1?$AA?9?$AA2?$AA?9?$AA0?$AA?$AA@ 000000018003aa90     libucrt:winapi_thunks.obj
 0002:00002ad0       ??_C@_1DO@FPAPJEMD@?$AAa?$AAp?$AAi?$AA?9?$AAm?$AAs?$AA?9?$AAw?$AAi?$AAn?$AA?9?$AAc?$AAo?$AAr?$AAe?$AA?9?$AAs?$AAy?$AAs?$AAi?$AAn?$AAf?$AAo?$AA?9?$AAl?$AA1?$AA?9?$AA2?$AA?9?$AA1?$AA?$AA@ 000000018003aad0     libucrt:winapi_thunks.obj
 0002:00002b10       ??_C@_1DK@NDHNAHIO@?$AAa?$AAp?$AAi?$AA?9?$AAm?$AAs?$AA?9?$AAw?$AAi?$AAn?$AA?9?$AAc?$AAo?$AAr?$AAe?$AA?9?$AAw?$AAi?$AAn?$AAr?$AAt?$AA?9?$AAl?$AA1?$AA?9?$AA1?$AA?9?$AA0?$AA?$AA@ 000000018003ab10     libucrt:winapi_thunks.obj
 0002:00002b50       ??_C@_1DM@KGHDGBCM@?$AAa?$AAp?$AAi?$AA?9?$AAm?$AAs?$AA?9?$AAw?$AAi?$AAn?$AA?9?$AAc?$AAo?$AAr?$AAe?$AA?9?$AAx?$AAs?$AAt?$AAa?$AAt?$AAe?$AA?9?$AAl?$AA2?$AA?9?$AA1?$AA?9?$AA0?$AA?$AA@ 000000018003ab50     libucrt:winapi_thunks.obj
 0002:00002b90       ??_C@_1EO@IJIOEFOH@?$AAa?$AAp?$AAi?$AA?9?$AAm?$AAs?$AA?9?$AAw?$AAi?$AAn?$AA?9?$AAr?$AAt?$AAc?$AAo?$AAr?$AAe?$AA?9?$AAn?$AAt?$AAu?$AAs?$AAe?$AAr?$AA?9?$AAw?$AAi?$AAn?$AAd?$AAo?$AAw?$AA?9@ 000000018003ab90     libucrt:winapi_thunks.obj
 0002:00002be0       ??_C@_1FG@HHGEKANL@?$AAa?$AAp?$AAi?$AA?9?$AAm?$AAs?$AA?9?$AAw?$AAi?$AAn?$AA?9?$AAs?$AAe?$AAc?$AAu?$AAr?$AAi?$AAt?$AAy?$AA?9?$AAs?$AAy?$AAs?$AAt?$AAe?$AAm?$AAf?$AAu?$AAn?$AAc?$AAt?$AAi@ 000000018003abe0     libucrt:winapi_thunks.obj
 0002:00002c40       ??_C@_1EG@DBIOJECG@?$AAe?$AAx?$AAt?$AA?9?$AAm?$AAs?$AA?9?$AAw?$AAi?$AAn?$AA?9?$AAn?$AAt?$AAu?$AAs?$AAe?$AAr?$AA?9?$AAd?$AAi?$AAa?$AAl?$AAo?$AAg?$AAb?$AAo?$AAx?$AA?9?$AAl?$AA1?$AA?9?$AA1@ 000000018003ac40     libucrt:winapi_thunks.obj
 0002:00002c90       ??_C@_1EO@FIHMJCLF@?$AAe?$AAx?$AAt?$AA?9?$AAm?$AAs?$AA?9?$AAw?$AAi?$AAn?$AA?9?$AAn?$AAt?$AAu?$AAs?$AAe?$AAr?$AA?9?$AAw?$AAi?$AAn?$AAd?$AAo?$AAw?$AAs?$AAt?$AAa?$AAt?$AAi?$AAo?$AAn?$AA?9@ 000000018003ac90     libucrt:winapi_thunks.obj
 0002:00002ce0       ??_C@_1BC@DNHGCMLG@?$AAa?$AAd?$AAv?$AAa?$AAp?$AAi?$AA3?$AA2?$AA?$AA@ 000000018003ace0     libucrt:winapi_thunks.obj
 0002:00002cf8       ??_C@_1BC@GDMECMAK@?$AAk?$AAe?$AAr?$AAn?$AAe?$AAl?$AA3?$AA2?$AA?$AA@ 000000018003acf8     libucrt:winapi_thunks.obj
 0002:00002d10       ??_C@_1M@OAIMIKLP@?$AAn?$AAt?$AAd?$AAl?$AAl?$AA?$AA@ 000000018003ad10     libucrt:winapi_thunks.obj
 0002:00002d20       ??_C@_1EG@DPGNFKGC@?$AAa?$AAp?$AAi?$AA?9?$AAm?$AAs?$AA?9?$AAw?$AAi?$AAn?$AA?9?$AAa?$AAp?$AAp?$AAm?$AAo?$AAd?$AAe?$AAl?$AA?9?$AAr?$AAu?$AAn?$AAt?$AAi?$AAm?$AAe?$AA?9?$AAl?$AA1?$AA?9?$AA1@ 000000018003ad20     libucrt:winapi_thunks.obj
 0002:00002d68       ??_C@_1O@BCCLBEOE@?$AAu?$AAs?$AAe?$AAr?$AA3?$AA2?$AA?$AA@ 000000018003ad68     libucrt:winapi_thunks.obj
 0002:00002d78       ??_C@_1BA@PFFKHIOG@?$AAa?$AAp?$AAi?$AA?9?$AAm?$AAs?$AA?9?$AA?$AA@ 000000018003ad78     libucrt:winapi_thunks.obj
 0002:00002d88       ??_C@_1BA@IAIFMGEF@?$AAe?$AAx?$AAt?$AA?9?$AAm?$AAs?$AA?9?$AA?$AA@ 000000018003ad88     libucrt:winapi_thunks.obj
 0002:00002da0       ??_C@_0BA@FHFNEAED@AreFileApisANSI?$AA@ 000000018003ada0     libucrt:winapi_thunks.obj
 0002:00002db8       ??_C@_08KNHFBNJ@FlsAlloc?$AA@ 000000018003adb8     libucrt:winapi_thunks.obj
 0002:00002dd0       ??_C@_07PEJMOBNF@FlsFree?$AA@ 000000018003add0     libucrt:winapi_thunks.obj
 0002:00002de0       ??_C@_0M@GDNOONDI@FlsGetValue?$AA@ 000000018003ade0     libucrt:winapi_thunks.obj
 0002:00002df8       ??_C@_0M@JCPCPOEF@FlsSetValue?$AA@ 000000018003adf8     libucrt:winapi_thunks.obj
 0002:00002e10       ??_C@_0BA@HNOPNCHB@GetActiveWindow?$AA@ 000000018003ae10     libucrt:winapi_thunks.obj
 0002:00002e28       ??_C@_0BD@HHGDFDBJ@GetLastActivePopup?$AA@ 000000018003ae28     libucrt:winapi_thunks.obj
 0002:00002e48       ??_C@_0BI@DFKBFLJE@GetProcessWindowStation?$AA@ 000000018003ae48     libucrt:winapi_thunks.obj
 0002:00002e68       ??_C@_0BK@DEKFELLI@GetUserObjectInformationW?$AA@ 000000018003ae68     libucrt:winapi_thunks.obj
 0002:00002e90       ??_C@_0BM@HCFOFFN@InitializeCriticalSectionEx?$AA@ 000000018003ae90     libucrt:winapi_thunks.obj
 0002:00002eb8       ??_C@_0O@KKBNKAPF@LCMapStringEx?$AA@ 000000018003aeb8     libucrt:winapi_thunks.obj
 0002:00002ed0       ??_C@_0BB@HBDEELFH@LocaleNameToLCID?$AA@ 000000018003aed0     libucrt:winapi_thunks.obj
 0002:00002ef0       ??_C@_0M@CHKKJDAI@MessageBoxA?$AA@ 000000018003aef0     libucrt:winapi_thunks.obj
 0002:00002f08       ??_C@_0M@DLDCCGNP@MessageBoxW?$AA@ 000000018003af08     libucrt:winapi_thunks.obj
 0002:00002f18       ??_C@_0CF@OJOFEIGO@AppPolicyGetProcessTerminationMe@ 000000018003af18     libucrt:winapi_thunks.obj
 0002:00002f48       ??_C@_0CE@OICFMIKE@AppPolicyGetShowDeveloperDiagnos@ 000000018003af48     libucrt:winapi_thunks.obj
 0002:00002f70       ??_C@_0BL@ODDJNEDA@AppPolicyGetWindowingModel?$AA@ 000000018003af70     libucrt:winapi_thunks.obj
 0002:00002f8c       ??_C@_03OEIAHPBN@INF?$AA@  000000018003af8c     libucrt:cvt.obj
 0002:00002f90       ??_C@_03OJHLLCGB@inf?$AA@  000000018003af90     libucrt:cvt.obj
 0002:00002f94       ??_C@_03LKNCIKJB@NAN?$AA@  000000018003af94     libucrt:cvt.obj
 0002:00002f98       ??_C@_03LHCJEHON@nan?$AA@  000000018003af98     libucrt:cvt.obj
 0002:00002fa0       ??_C@_09OFJJIMPC@NAN?$CISNAN?$CJ?$AA@ 000000018003afa0     libucrt:cvt.obj
 0002:00002fb0       ??_C@_09IPFBKMDL@nan?$CIsnan?$CJ?$AA@ 000000018003afb0     libucrt:cvt.obj
 0002:00002fc0       ??_C@_08IKHNHAJ@NAN?$CIIND?$CJ?$AA@ 000000018003afc0     libucrt:cvt.obj
 0002:00002fd0       ??_C@_08OFCDMILK@nan?$CIind?$CJ?$AA@ 000000018003afd0     libucrt:cvt.obj
 0002:00002fdc       ??_C@_05KLBDPFGC@e?$CL000?$AA@ 000000018003afdc     libucrt:cvt.obj
 0002:00002fe4       ??_C@_15PJPFLCCM@?$AAu?$AAk?$AA?$AA@ 000000018003afe4     libucrt:get_qualified_locale.obj
 0002:00003e40       ??_C@_15EMKDOKLE@?$AAa?$AAr?$AA?$AA@ 000000018003be40     libucrt:lcidtoname_downlevel.obj
 0002:00003e48       ??_C@_15KNPADPLH@?$AAb?$AAg?$AA?$AA@ 000000018003be48     libucrt:lcidtoname_downlevel.obj
 0002:00003e50       ??_C@_15EDMHLDMO@?$AAc?$AAa?$AA?$AA@ 000000018003be50     libucrt:lcidtoname_downlevel.obj
 0002:00003e58       ??_C@_1O@BPEAJADD@?$AAz?$AAh?$AA?9?$AAC?$AAH?$AAS?$AA?$AA@ 000000018003be58     libucrt:lcidtoname_downlevel.obj
 0002:00003e68       ??_C@_15LJNHCMNK@?$AAc?$AAs?$AA?$AA@ 000000018003be68     libucrt:lcidtoname_downlevel.obj
 0002:00003e70       ??_C@_15FOMCIDHG@?$AAd?$AAa?$AA?$AA@ 000000018003be70     libucrt:lcidtoname_downlevel.obj
 0002:00003e78       ??_C@_15NBKABECB@?$AAd?$AAe?$AA?$AA@ 000000018003be78     libucrt:lcidtoname_downlevel.obj
 0002:00003e80       ??_C@_15GHPEIIAO@?$AAe?$AAl?$AA?$AA@ 000000018003be80     libucrt:lcidtoname_downlevel.obj
 0002:00003e88       ??_C@_15MNPNEAIF@?$AAe?$AAn?$AA?$AA@ 000000018003be88     libucrt:lcidtoname_downlevel.obj
 0002:00003e90       ??_C@_15GPIOMPMH@?$AAe?$AAs?$AA?$AA@ 000000018003be90     libucrt:lcidtoname_downlevel.obj
 0002:00003e98       ??_C@_15NGLOAKJC@?$AAf?$AAi?$AA?$AA@ 000000018003be98     libucrt:lcidtoname_downlevel.obj
 0002:00003ea0       ??_C@_15FBKGNKAM@?$AAf?$AAr?$AA?$AA@ 000000018003bea0     libucrt:lcidtoname_downlevel.obj
 0002:00003ea8       ??_C@_15KGGCNEFK@?$AAh?$AAe?$AA?$AA@ 000000018003bea8     libucrt:lcidtoname_downlevel.obj
 0002:00003eb0       ??_C@_15PGHLIDMF@?$AAh?$AAu?$AA?$AA@ 000000018003beb0     libucrt:lcidtoname_downlevel.obj
 0002:00003eb8       ??_C@_15BIEMAPLM@?$AAi?$AAs?$AA?$AA@ 000000018003beb8     libucrt:lcidtoname_downlevel.obj
 0002:00003ec0       ??_C@_15IFJLDHAF@?$AAi?$AAt?$AA?$AA@ 000000018003bec0     libucrt:lcidtoname_downlevel.obj
 0002:00003ec8       ??_C@_15GEMIOCAG@?$AAj?$AAa?$AA?$AA@ 000000018003bec8     libucrt:lcidtoname_downlevel.obj
 0002:00003ed0       ??_C@_15EPELEGJA@?$AAk?$AAo?$AA?$AA@ 000000018003bed0     libucrt:lcidtoname_downlevel.obj
 0002:00003ed8       ??_C@_15NDDHIMN@?$AAn?$AAl?$AA?$AA@ 000000018003bed8     libucrt:lcidtoname_downlevel.obj
 0002:00003ee0       ??_C@_15BPIGNHCD@?$AAn?$AAo?$AA?$AA@ 000000018003bee0     libucrt:lcidtoname_downlevel.obj
 0002:00003ee8       ??_C@_15DEOPBLCG@?$AAp?$AAl?$AA?$AA@ 000000018003bee8     libucrt:lcidtoname_downlevel.obj
 0002:00003ef0       ??_C@_15KBECGEFG@?$AAp?$AAt?$AA?$AA@ 000000018003bef0     libucrt:lcidtoname_downlevel.obj
 0002:00003ef8       ??_C@_15GLJCBFMD@?$AAr?$AAo?$AA?$AA@ 000000018003bef8     libucrt:lcidtoname_downlevel.obj
 0002:00003f00       ??_C@_15FEDGKCDI@?$AAr?$AAu?$AA?$AA@ 000000018003bf00     libucrt:lcidtoname_downlevel.obj
 0002:00003f08       ??_C@_15GLKMLLHM@?$AAh?$AAr?$AA?$AA@ 000000018003bf08     libucrt:lcidtoname_downlevel.obj
 0002:00003f10       ??_C@_15CPKMFBDB@?$AAs?$AAk?$AA?$AA@ 000000018003bf10     libucrt:lcidtoname_downlevel.obj
 0002:00003f18       ??_C@_15BAAIOGMK@?$AAs?$AAq?$AA?$AA@ 000000018003bf18     libucrt:lcidtoname_downlevel.obj
 0002:00003f20       ??_C@_15INNPNOHD@?$AAs?$AAv?$AA?$AA@ 000000018003bf20     libucrt:lcidtoname_downlevel.obj
 0002:00003f28       ??_C@_15CABMMOGH@?$AAt?$AAh?$AA?$AA@ 000000018003bf28     libucrt:lcidtoname_downlevel.obj
 0002:00003f30       ??_C@_15BPLIHJJM@?$AAt?$AAr?$AA?$AA@ 000000018003bf30     libucrt:lcidtoname_downlevel.obj
 0002:00003f38       ??_C@_15NEOEKKDJ@?$AAu?$AAr?$AA?$AA@ 000000018003bf38     libucrt:lcidtoname_downlevel.obj
 0002:00003f40       ??_C@_15NFICGAJK@?$AAi?$AAd?$AA?$AA@ 000000018003bf40     libucrt:lcidtoname_downlevel.obj
 0002:00003f48       ??_C@_15HPJPHDM@?$AAb?$AAe?$AA?$AA@ 000000018003bf48     libucrt:lcidtoname_downlevel.obj
 0002:00003f50       ??_C@_15LCHLGJII@?$AAs?$AAl?$AA?$AA@ 000000018003bf50     libucrt:lcidtoname_downlevel.obj
 0002:00003f58       ??_C@_15PCFJPHHO@?$AAe?$AAt?$AA?$AA@ 000000018003bf58     libucrt:lcidtoname_downlevel.obj
 0002:00003f60       ??_C@_15HPFPGODN@?$AAl?$AAv?$AA?$AA@ 000000018003bf60     libucrt:lcidtoname_downlevel.obj
 0002:00003f68       ??_C@_15NFFGKGLG@?$AAl?$AAt?$AA?$AA@ 000000018003bf68     libucrt:lcidtoname_downlevel.obj
 0002:00003f70       ??_C@_15BDAKCCHN@?$AAf?$AAa?$AA?$AA@ 000000018003bf70     libucrt:lcidtoname_downlevel.obj
 0002:00003f78       ??_C@_15NFGIAIAJ@?$AAv?$AAi?$AA?$AA@ 000000018003bf78     libucrt:lcidtoname_downlevel.obj
 0002:00003f80       ??_C@_15LMKNDMHN@?$AAh?$AAy?$AA?$AA@ 000000018003bf80     libucrt:lcidtoname_downlevel.obj
 0002:00003f88       ??_C@_15IJBHMCFL@?$AAa?$AAz?$AA?$AA@ 000000018003bf88     libucrt:lcidtoname_downlevel.obj
 0002:00003f90       ??_C@_15EKOFJABL@?$AAe?$AAu?$AA?$AA@ 000000018003bf90     libucrt:lcidtoname_downlevel.obj
 0002:00003f98       ??_C@_15BGHADCNK@?$AAm?$AAk?$AA?$AA@ 000000018003bf98     libucrt:lcidtoname_downlevel.obj
 0002:00003fa0       ??_C@_15JDNICKHM@?$AAa?$AAf?$AA?$AA@ 000000018003bfa0     libucrt:lcidtoname_downlevel.obj
 0002:00003fa8       ??_C@_15KPJEDBKD@?$AAk?$AAa?$AA?$AA@ 000000018003bfa8     libucrt:lcidtoname_downlevel.obj
 0002:00003fb0       ??_C@_15PDNFFFEO@?$AAf?$AAo?$AA?$AA@ 000000018003bfb0     libucrt:lcidtoname_downlevel.obj
 0002:00003fb8       ??_C@_15OMLEGLOC@?$AAh?$AAi?$AA?$AA@ 000000018003bfb8     libucrt:lcidtoname_downlevel.obj
 0002:00003fc0       ??_C@_15IDNNENKK@?$AAm?$AAs?$AA?$AA@ 000000018003bfc0     libucrt:lcidtoname_downlevel.obj
 0002:00003fc8       ??_C@_15MACJNBMH@?$AAk?$AAk?$AA?$AA@ 000000018003bfc8     libucrt:lcidtoname_downlevel.obj
 0002:00003fd0       ??_C@_15DKDJEOND@?$AAk?$AAy?$AA?$AA@ 000000018003bfd0     libucrt:lcidtoname_downlevel.obj
 0002:00003fd8       ??_C@_15DFGDLJBG@?$AAs?$AAw?$AA?$AA@ 000000018003bfd8     libucrt:lcidtoname_downlevel.obj
 0002:00003fe0       ??_C@_15BBFAICNG@?$AAu?$AAz?$AA?$AA@ 000000018003bfe0     libucrt:lcidtoname_downlevel.obj
 0002:00003fe8       ??_C@_15DKNDCGEA@?$AAt?$AAt?$AA?$AA@ 000000018003bfe8     libucrt:lcidtoname_downlevel.obj
 0002:00003ff0       ??_C@_15MGIFMDPL@?$AAp?$AAa?$AA?$AA@ 000000018003bff0     libucrt:lcidtoname_downlevel.obj
 0002:00003ff8       ??_C@_15HCNDBBA@?$AAg?$AAu?$AA?$AA@ 000000018003bff8     libucrt:lcidtoname_downlevel.obj
 0002:00004000       ??_C@_15FNBEIBON@?$AAt?$AAa?$AA?$AA@ 000000018003c000     libucrt:lcidtoname_downlevel.obj
 0002:00004008       ??_C@_15NCHGBGLK@?$AAt?$AAe?$AA?$AA@ 000000018003c008     libucrt:lcidtoname_downlevel.obj
 0002:00004010       ??_C@_15PHPHCBPF@?$AAk?$AAn?$AA?$AA@ 000000018003c010     libucrt:lcidtoname_downlevel.obj
 0002:00004018       ??_C@_15DLGBCKMP@?$AAm?$AAr?$AA?$AA@ 000000018003c018     libucrt:lcidtoname_downlevel.obj
 0002:00004020       ??_C@_15EABBLBFF@?$AAs?$AAa?$AA?$AA@ 000000018003c020     libucrt:lcidtoname_downlevel.obj
 0002:00004028       ??_C@_15CBKOMCOI@?$AAm?$AAn?$AA?$AA@ 000000018003c028     libucrt:lcidtoname_downlevel.obj
 0002:00004030       ??_C@_15CKDMCJAF@?$AAg?$AAl?$AA?$AA@ 000000018003c030     libucrt:lcidtoname_downlevel.obj
 0002:00004038       ??_C@_17CNJFBPG@?$AAk?$AAo?$AAk?$AA?$AA@ 000000018003c038     libucrt:lcidtoname_downlevel.obj
 0002:00004040       ??_C@_17FFBJICPL@?$AAs?$AAy?$AAr?$AA?$AA@ 000000018003c040     libucrt:lcidtoname_downlevel.obj
 0002:00004048       ??_C@_17KPNDCPAF@?$AAd?$AAi?$AAv?$AA?$AA@ 000000018003c048     libucrt:lcidtoname_downlevel.obj
 0002:00004050       ??_C@_11LOCGONAA@?$AA?$AA@ 000000018003c050     libucrt:lcidtoname_downlevel.obj
 0002:00004058       ??_C@_1M@OKAHONE@?$AAa?$AAr?$AA?9?$AAS?$AAA?$AA?$AA@ 000000018003c058     libucrt:lcidtoname_downlevel.obj
 0002:00004068       ??_C@_1M@FFFIGIGK@?$AAb?$AAg?$AA?9?$AAB?$AAG?$AA?$AA@ 000000018003c068     libucrt:lcidtoname_downlevel.obj
 0002:00004078       ??_C@_1M@BJNKEDC@?$AAc?$AAa?$AA?9?$AAE?$AAS?$AA?$AA@ 000000018003c078     libucrt:lcidtoname_downlevel.obj
 0002:00004088       ??_C@_1M@IJJHFJHA@?$AAc?$AAs?$AA?9?$AAC?$AAZ?$AA?$AA@ 000000018003c088     libucrt:lcidtoname_downlevel.obj
 0002:00004098       ??_C@_1M@CLPEOBGI@?$AAd?$AAa?$AA?9?$AAD?$AAK?$AA?$AA@ 000000018003c098     libucrt:lcidtoname_downlevel.obj
 0002:000040a8       ??_C@_1M@MCMADGCB@?$AAd?$AAe?$AA?9?$AAD?$AAE?$AA?$AA@ 000000018003c0a8     libucrt:lcidtoname_downlevel.obj
 0002:000040b8       ??_C@_1M@OOCKEMAM@?$AAe?$AAl?$AA?9?$AAG?$AAR?$AA?$AA@ 000000018003c0b8     libucrt:lcidtoname_downlevel.obj
 0002:000040c8       ??_C@_1M@DDNJFGID@?$AAf?$AAi?$AA?9?$AAF?$AAI?$AA?$AA@ 000000018003c0c8     libucrt:lcidtoname_downlevel.obj
 0002:000040d8       ??_C@_1M@GLIPPMAC@?$AAf?$AAr?$AA?9?$AAF?$AAR?$AA?$AA@ 000000018003c0d8     libucrt:lcidtoname_downlevel.obj
 0002:000040e8       ??_C@_1M@GFMCHPE@?$AAh?$AAe?$AA?9?$AAI?$AAL?$AA?$AA@ 000000018003c0e8     libucrt:lcidtoname_downlevel.obj
 0002:000040f8       ??_C@_1M@MHLPGNKM@?$AAh?$AAu?$AA?9?$AAH?$AAU?$AA?$AA@ 000000018003c0f8     libucrt:lcidtoname_downlevel.obj
 0002:00004108       ??_C@_1M@LPDDNNPN@?$AAi?$AAs?$AA?9?$AAI?$AAS?$AA?$AA@ 000000018003c108     libucrt:lcidtoname_downlevel.obj
 0002:00004118       ??_C@_1M@MADIPODN@?$AAi?$AAt?$AA?9?$AAI?$AAT?$AA?$AA@ 000000018003c118     libucrt:lcidtoname_downlevel.obj
 0002:00004128       ??_C@_1M@IHBJJGG@?$AAn?$AAl?$AA?9?$AAN?$AAL?$AA?$AA@ 000000018003c128     libucrt:lcidtoname_downlevel.obj
 0002:00004138       ??_C@_1M@EANAGDL@?$AAn?$AAb?$AA?9?$AAN?$AAO?$AA?$AA@ 000000018003c138     libucrt:lcidtoname_downlevel.obj
 0002:00004148       ??_C@_1M@NEIEMEGP@?$AAp?$AAl?$AA?9?$AAP?$AAL?$AA?$AA@ 000000018003c148     libucrt:lcidtoname_downlevel.obj
 0002:00004158       ??_C@_1M@BOCFIGEP@?$AAp?$AAt?$AA?9?$AAB?$AAR?$AA?$AA@ 000000018003c158     libucrt:lcidtoname_downlevel.obj
 0002:00004168       ??_C@_1M@IMPFOPBG@?$AAr?$AAo?$AA?9?$AAR?$AAO?$AA?$AA@ 000000018003c168     libucrt:lcidtoname_downlevel.obj
 0002:00004178       ??_C@_1M@IDNNEJMM@?$AAr?$AAu?$AA?9?$AAR?$AAU?$AA?$AA@ 000000018003c178     libucrt:lcidtoname_downlevel.obj
 0002:00004188       ??_C@_1M@LILEEOGM@?$AAh?$AAr?$AA?9?$AAH?$AAR?$AA?$AA@ 000000018003c188     libucrt:lcidtoname_downlevel.obj
 0002:00004198       ??_C@_1M@FKIFEHPB@?$AAs?$AAk?$AA?9?$AAS?$AAK?$AA?$AA@ 000000018003c198     libucrt:lcidtoname_downlevel.obj
 0002:000041a8       ??_C@_1M@LJMAMNPJ@?$AAs?$AAq?$AA?9?$AAA?$AAL?$AA?$AA@ 000000018003c1a8     libucrt:lcidtoname_downlevel.obj
 0002:000041b8       ??_C@_1M@GIAKDKJK@?$AAs?$AAv?$AA?9?$AAS?$AAE?$AA?$AA@ 000000018003c1b8     libucrt:lcidtoname_downlevel.obj
 0002:000041c8       ??_C@_1M@MKJKIKCL@?$AAt?$AAh?$AA?9?$AAT?$AAH?$AA?$AA@ 000000018003c1c8     libucrt:lcidtoname_downlevel.obj
 0002:000041d8       ??_C@_1M@MFLCCMPB@?$AAt?$AAr?$AA?9?$AAT?$AAR?$AA?$AA@ 000000018003c1d8     libucrt:lcidtoname_downlevel.obj
 0002:000041e8       ??_C@_1M@OIJHDKJN@?$AAu?$AAr?$AA?9?$AAP?$AAK?$AA?$AA@ 000000018003c1e8     libucrt:lcidtoname_downlevel.obj
 0002:000041f8       ??_C@_1M@LHIPCIEK@?$AAi?$AAd?$AA?9?$AAI?$AAD?$AA?$AA@ 000000018003c1f8     libucrt:lcidtoname_downlevel.obj
 0002:00004208       ??_C@_1M@MFMOBGI@?$AAu?$AAk?$AA?9?$AAU?$AAA?$AA?$AA@ 000000018003c208     libucrt:lcidtoname_downlevel.obj
 0002:00004218       ??_C@_1M@OBGLJIPL@?$AAb?$AAe?$AA?9?$AAB?$AAY?$AA?$AA@ 000000018003c218     libucrt:lcidtoname_downlevel.obj
 0002:00004228       ??_C@_1M@BCFAJEAD@?$AAs?$AAl?$AA?9?$AAS?$AAI?$AA?$AA@ 000000018003c228     libucrt:lcidtoname_downlevel.obj
 0002:00004238       ??_C@_1M@FKFFEDDN@?$AAe?$AAt?$AA?9?$AAE?$AAE?$AA?$AA@ 000000018003c238     libucrt:lcidtoname_downlevel.obj
 0002:00004248       ??_C@_1M@KGKKAACI@?$AAl?$AAv?$AA?9?$AAL?$AAV?$AA?$AA@ 000000018003c248     libucrt:lcidtoname_downlevel.obj
 0002:00004258       ??_C@_1M@IFGBIJO@?$AAl?$AAt?$AA?9?$AAL?$AAT?$AA?$AA@ 000000018003c258     libucrt:lcidtoname_downlevel.obj
 0002:00004268       ??_C@_1M@FGEAHEDM@?$AAf?$AAa?$AA?9?$AAI?$AAR?$AA?$AA@ 000000018003c268     libucrt:lcidtoname_downlevel.obj
 0002:00004278       ??_C@_1M@KBMAIBFN@?$AAv?$AAi?$AA?9?$AAV?$AAN?$AA?$AA@ 000000018003c278     libucrt:lcidtoname_downlevel.obj
 0002:00004288       ??_C@_1M@GPCBKDJK@?$AAh?$AAy?$AA?9?$AAA?$AAM?$AA?$AA@ 000000018003c288     libucrt:lcidtoname_downlevel.obj
 0002:00004298       ??_C@_1BG@BECMDDJB@?$AAa?$AAz?$AA?9?$AAA?$AAZ?$AA?9?$AAL?$AAa?$AAt?$AAn?$AA?$AA@ 000000018003c298     libucrt:lcidtoname_downlevel.obj
 0002:000042b0       ??_C@_1M@MAOFCAEA@?$AAe?$AAu?$AA?9?$AAE?$AAS?$AA?$AA@ 000000018003c2b0     libucrt:lcidtoname_downlevel.obj
 0002:000042c0       ??_C@_1M@IGHABKPI@?$AAm?$AAk?$AA?9?$AAM?$AAK?$AA?$AA@ 000000018003c2c0     libucrt:lcidtoname_downlevel.obj
 0002:000042d0       ??_C@_1M@IAIGNEJG@?$AAt?$AAn?$AA?9?$AAZ?$AAA?$AA?$AA@ 000000018003c2d0     libucrt:lcidtoname_downlevel.obj
 0002:000042e0       ??_C@_1M@IIJCOJFA@?$AAx?$AAh?$AA?9?$AAZ?$AAA?$AA?$AA@ 000000018003c2e0     libucrt:lcidtoname_downlevel.obj
 0002:000042f0       ??_C@_1M@LGPJHNJH@?$AAz?$AAu?$AA?9?$AAZ?$AAA?$AA?$AA@ 000000018003c2f0     libucrt:lcidtoname_downlevel.obj
 0002:00004300       ??_C@_1M@HOKAOIO@?$AAa?$AAf?$AA?9?$AAZ?$AAA?$AA?$AA@ 000000018003c300     libucrt:lcidtoname_downlevel.obj
 0002:00004310       ??_C@_1M@DPCLHLIE@?$AAk?$AAa?$AA?9?$AAG?$AAE?$AA?$AA@ 000000018003c310     libucrt:lcidtoname_downlevel.obj
 0002:00004320       ??_C@_1M@BLKMHJBI@?$AAf?$AAo?$AA?9?$AAF?$AAO?$AA?$AA@ 000000018003c320     libucrt:lcidtoname_downlevel.obj
 0002:00004330       ??_C@_1M@LGGJAPPB@?$AAh?$AAi?$AA?9?$AAI?$AAN?$AA?$AA@ 000000018003c330     libucrt:lcidtoname_downlevel.obj
 0002:00004340       ??_C@_1M@FIKPIHFE@?$AAm?$AAt?$AA?9?$AAM?$AAT?$AA?$AA@ 000000018003c340     libucrt:lcidtoname_downlevel.obj
 0002:00004350       ??_C@_1M@HEGGPBFA@?$AAs?$AAe?$AA?9?$AAN?$AAO?$AA?$AA@ 000000018003c350     libucrt:lcidtoname_downlevel.obj
 0002:00004360       ??_C@_1M@EIBJEEPA@?$AAm?$AAs?$AA?9?$AAM?$AAY?$AA?$AA@ 000000018003c360     libucrt:lcidtoname_downlevel.obj
 0002:00004370       ??_C@_1M@FHLBGMPP@?$AAk?$AAk?$AA?9?$AAK?$AAZ?$AA?$AA@ 000000018003c370     libucrt:lcidtoname_downlevel.obj
 0002:00004380       ??_C@_1M@NGJJLCGI@?$AAk?$AAy?$AA?9?$AAK?$AAG?$AA?$AA@ 000000018003c380     libucrt:lcidtoname_downlevel.obj
 0002:00004390       ??_C@_1M@GIENNBFC@?$AAs?$AAw?$AA?9?$AAK?$AAE?$AA?$AA@ 000000018003c390     libucrt:lcidtoname_downlevel.obj
 0002:000043a0       ??_C@_1BG@NDGMJIMJ@?$AAu?$AAz?$AA?9?$AAU?$AAZ?$AA?9?$AAL?$AAa?$AAt?$AAn?$AA?$AA@ 000000018003c3a0     libucrt:lcidtoname_downlevel.obj
 0002:000043b8       ??_C@_1M@IDCCIHBC@?$AAt?$AAt?$AA?9?$AAR?$AAU?$AA?$AA@ 000000018003c3b8     libucrt:lcidtoname_downlevel.obj
 0002:000043c8       ??_C@_1M@LOICPMOJ@?$AAb?$AAn?$AA?9?$AAI?$AAN?$AA?$AA@ 000000018003c3c8     libucrt:lcidtoname_downlevel.obj
 0002:000043d8       ??_C@_1M@KPKKNEAH@?$AAp?$AAa?$AA?9?$AAI?$AAN?$AA?$AA@ 000000018003c3d8     libucrt:lcidtoname_downlevel.obj
 0002:000043e8       ??_C@_1M@PJGPPBOG@?$AAg?$AAu?$AA?9?$AAI?$AAN?$AA?$AA@ 000000018003c3e8     libucrt:lcidtoname_downlevel.obj
 0002:000043f8       ??_C@_1M@KMKMOPHI@?$AAt?$AAa?$AA?9?$AAI?$AAN?$AA?$AA@ 000000018003c3f8     libucrt:lcidtoname_downlevel.obj
 0002:00004408       ??_C@_1M@KFEHEPAC@?$AAt?$AAe?$AA?9?$AAI?$AAN?$AA?$AA@ 000000018003c408     libucrt:lcidtoname_downlevel.obj
 0002:00004418       ??_C@_1M@CDCLMGHI@?$AAk?$AAn?$AA?9?$AAI?$AAN?$AA?$AA@ 000000018003c418     libucrt:lcidtoname_downlevel.obj
 0002:00004428       ??_C@_1M@MIODLDKF@?$AAm?$AAl?$AA?9?$AAI?$AAN?$AA?$AA@ 000000018003c428     libucrt:lcidtoname_downlevel.obj
 0002:00004438       ??_C@_1M@PBIEACPO@?$AAm?$AAr?$AA?9?$AAI?$AAN?$AA?$AA@ 000000018003c438     libucrt:lcidtoname_downlevel.obj
 0002:00004448       ??_C@_1M@NIDEAGPH@?$AAs?$AAa?$AA?9?$AAI?$AAN?$AA?$AA@ 000000018003c448     libucrt:lcidtoname_downlevel.obj
 0002:00004458       ??_C@_1M@FHIHCBIO@?$AAm?$AAn?$AA?9?$AAM?$AAN?$AA?$AA@ 000000018003c458     libucrt:lcidtoname_downlevel.obj
 0002:00004468       ??_C@_1M@JAIJPENP@?$AAc?$AAy?$AA?9?$AAG?$AAB?$AA?$AA@ 000000018003c468     libucrt:lcidtoname_downlevel.obj
 0002:00004478       ??_C@_1M@PHGFBEPN@?$AAg?$AAl?$AA?9?$AAE?$AAS?$AA?$AA@ 000000018003c478     libucrt:lcidtoname_downlevel.obj
 0002:00004488       ??_C@_1O@KPIPDNCP@?$AAk?$AAo?$AAk?$AA?9?$AAI?$AAN?$AA?$AA@ 000000018003c488     libucrt:lcidtoname_downlevel.obj
 0002:00004498       ??_C@_1O@KNHJLDJA@?$AAs?$AAy?$AAr?$AA?9?$AAS?$AAY?$AA?$AA@ 000000018003c498     libucrt:lcidtoname_downlevel.obj
 0002:000044a8       ??_C@_1O@MKEKBLAH@?$AAd?$AAi?$AAv?$AA?9?$AAM?$AAV?$AA?$AA@ 000000018003c4a8     libucrt:lcidtoname_downlevel.obj
 0002:000044b8       ??_C@_1O@OHDCKDDF@?$AAq?$AAu?$AAz?$AA?9?$AAB?$AAO?$AA?$AA@ 000000018003c4b8     libucrt:lcidtoname_downlevel.obj
 0002:000044c8       ??_C@_1M@LEPJNLFD@?$AAn?$AAs?$AA?9?$AAZ?$AAA?$AA?$AA@ 000000018003c4c8     libucrt:lcidtoname_downlevel.obj
 0002:000044d8       ??_C@_1M@OMLEIIJB@?$AAm?$AAi?$AA?9?$AAN?$AAZ?$AA?$AA@ 000000018003c4d8     libucrt:lcidtoname_downlevel.obj
 0002:000044e8       ??_C@_1M@PMPEAILG@?$AAa?$AAr?$AA?9?$AAI?$AAQ?$AA?$AA@ 000000018003c4e8     libucrt:lcidtoname_downlevel.obj
 0002:000044f8       ??_C@_1M@CNKPNOEE@?$AAd?$AAe?$AA?9?$AAC?$AAH?$AA?$AA@ 000000018003c4f8     libucrt:lcidtoname_downlevel.obj
 0002:00004508       ??_C@_1M@LKMGMLKO@?$AAe?$AAn?$AA?9?$AAG?$AAB?$AA?$AA@ 000000018003c508     libucrt:lcidtoname_downlevel.obj
 0002:00004518       ??_C@_1M@PGKJFFGL@?$AAe?$AAs?$AA?9?$AAM?$AAX?$AA?$AA@ 000000018003c518     libucrt:lcidtoname_downlevel.obj
 0002:00004528       ??_C@_1M@DNNANBDC@?$AAf?$AAr?$AA?9?$AAB?$AAE?$AA?$AA@ 000000018003c528     libucrt:lcidtoname_downlevel.obj
 0002:00004538       ??_C@_1M@HLGMDFHM@?$AAi?$AAt?$AA?9?$AAC?$AAH?$AA?$AA@ 000000018003c538     libucrt:lcidtoname_downlevel.obj
 0002:00004548       ??_C@_1M@CLLBGJH@?$AAn?$AAl?$AA?9?$AAB?$AAE?$AA?$AA@ 000000018003c548     libucrt:lcidtoname_downlevel.obj
 0002:00004558       ??_C@_1M@BODBOGLF@?$AAn?$AAn?$AA?9?$AAN?$AAO?$AA?$AA@ 000000018003c558     libucrt:lcidtoname_downlevel.obj
 0002:00004568       ??_C@_1M@HFFAHKAD@?$AAp?$AAt?$AA?9?$AAP?$AAT?$AA?$AA@ 000000018003c568     libucrt:lcidtoname_downlevel.obj
 0002:00004578       ??_C@_1BG@LNOAKHIE@?$AAs?$AAr?$AA?9?$AAS?$AAP?$AA?9?$AAL?$AAa?$AAt?$AAn?$AA?$AA@ 000000018003c578     libucrt:lcidtoname_downlevel.obj
 0002:00004590       ??_C@_1M@HBMHBGAK@?$AAs?$AAv?$AA?9?$AAF?$AAI?$AA?$AA@ 000000018003c590     libucrt:lcidtoname_downlevel.obj
 0002:000045a0       ??_C@_1BG@DGCJGJBE@?$AAa?$AAz?$AA?9?$AAA?$AAZ?$AA?9?$AAC?$AAy?$AAr?$AAl?$AA?$AA@ 000000018003c5a0     libucrt:lcidtoname_downlevel.obj
 0002:000045b8       ??_C@_1M@KEJDAAHB@?$AAs?$AAe?$AA?9?$AAS?$AAE?$AA?$AA@ 000000018003c5b8     libucrt:lcidtoname_downlevel.obj
 0002:000045c8       ??_C@_1M@HEIBJJAD@?$AAm?$AAs?$AA?9?$AAB?$AAN?$AA?$AA@ 000000018003c5c8     libucrt:lcidtoname_downlevel.obj
 0002:000045d8       ??_C@_1BG@PBGJMCEM@?$AAu?$AAz?$AA?9?$AAU?$AAZ?$AA?9?$AAC?$AAy?$AAr?$AAl?$AA?$AA@ 000000018003c5d8     libucrt:lcidtoname_downlevel.obj
 0002:000045f0       ??_C@_1O@LAOBCMDF@?$AAq?$AAu?$AAz?$AA?9?$AAE?$AAC?$AA?$AA@ 000000018003c5f0     libucrt:lcidtoname_downlevel.obj
 0002:00004600       ??_C@_1M@POEEMAIO@?$AAa?$AAr?$AA?9?$AAE?$AAG?$AA?$AA@ 000000018003c600     libucrt:lcidtoname_downlevel.obj
 0002:00004610       ??_C@_1M@EFAKDEDL@?$AAz?$AAh?$AA?9?$AAH?$AAK?$AA?$AA@ 000000018003c610     libucrt:lcidtoname_downlevel.obj
 0002:00004620       ??_C@_1M@HKKIJHGI@?$AAd?$AAe?$AA?9?$AAA?$AAT?$AA?$AA@ 000000018003c620     libucrt:lcidtoname_downlevel.obj
 0002:00004630       ??_C@_1M@KBFBEHJF@?$AAe?$AAn?$AA?9?$AAA?$AAU?$AA?$AA@ 000000018003c630     libucrt:lcidtoname_downlevel.obj
 0002:00004640       ??_C@_1M@MNPLFAAH@?$AAe?$AAs?$AA?9?$AAE?$AAS?$AA?$AA@ 000000018003c640     libucrt:lcidtoname_downlevel.obj
 0002:00004650       ??_C@_1M@HJOOJFMA@?$AAf?$AAr?$AA?9?$AAC?$AAA?$AA?$AA@ 000000018003c650     libucrt:lcidtoname_downlevel.obj
 0002:00004660       ??_C@_1BG@JPOFPNAB@?$AAs?$AAr?$AA?9?$AAS?$AAP?$AA?9?$AAC?$AAy?$AAr?$AAl?$AA?$AA@ 000000018003c660     libucrt:lcidtoname_downlevel.obj
 0002:00004678       ??_C@_1M@LNFOCMOB@?$AAs?$AAe?$AA?9?$AAF?$AAI?$AA?$AA@ 000000018003c678     libucrt:lcidtoname_downlevel.obj
 0002:00004688       ??_C@_1O@MGJBOAMB@?$AAq?$AAu?$AAz?$AA?9?$AAP?$AAE?$AA?$AA@ 000000018003c688     libucrt:lcidtoname_downlevel.obj
 0002:00004698       ??_C@_1M@GJINLBOK@?$AAa?$AAr?$AA?9?$AAL?$AAY?$AA?$AA@ 000000018003c698     libucrt:lcidtoname_downlevel.obj
 0002:000046a8       ??_C@_1M@GGMNHJNL@?$AAz?$AAh?$AA?9?$AAS?$AAG?$AA?$AA@ 000000018003c6a8     libucrt:lcidtoname_downlevel.obj
 0002:000046b8       ??_C@_1M@HOIKODND@?$AAd?$AAe?$AA?9?$AAL?$AAU?$AA?$AA@ 000000018003c6b8     libucrt:lcidtoname_downlevel.obj
 0002:000046c8       ??_C@_1M@DDOCCGFG@?$AAe?$AAn?$AA?9?$AAC?$AAA?$AA?$AA@ 000000018003c6c8     libucrt:lcidtoname_downlevel.obj
 0002:000046d8       ??_C@_1M@BNOEMJLF@?$AAe?$AAs?$AA?9?$AAG?$AAT?$AA?$AA@ 000000018003c6d8     libucrt:lcidtoname_downlevel.obj
 0002:000046e8       ??_C@_1M@EOGNKEK@?$AAf?$AAr?$AA?9?$AAC?$AAH?$AA?$AA@ 000000018003c6e8     libucrt:lcidtoname_downlevel.obj
 0002:000046f8       ??_C@_1M@FLIDJFHL@?$AAh?$AAr?$AA?9?$AAB?$AAA?$AA?$AA@ 000000018003c6f8     libucrt:lcidtoname_downlevel.obj
 0002:00004708       ??_C@_1O@FMCELNAJ@?$AAs?$AAm?$AAj?$AA?9?$AAN?$AAO?$AA?$AA@ 000000018003c708     libucrt:lcidtoname_downlevel.obj
 0002:00004718       ??_C@_1M@JHGLJMGJ@?$AAa?$AAr?$AA?9?$AAD?$AAZ?$AA?$AA@ 000000018003c718     libucrt:lcidtoname_downlevel.obj
 0002:00004728       ??_C@_1M@JKKFDCNP@?$AAz?$AAh?$AA?9?$AAM?$AAO?$AA?$AA@ 000000018003c728     libucrt:lcidtoname_downlevel.obj
 0002:00004738       ??_C@_1M@GEEFALPE@?$AAd?$AAe?$AA?9?$AAL?$AAI?$AA?$AA@ 000000018003c738     libucrt:lcidtoname_downlevel.obj
 0002:00004748       ??_C@_1M@IGEOFBG@?$AAe?$AAn?$AA?9?$AAN?$AAZ?$AA?$AA@ 000000018003c748     libucrt:lcidtoname_downlevel.obj
 0002:00004758       ??_C@_1M@KDBONEHP@?$AAe?$AAs?$AA?9?$AAC?$AAR?$AA?$AA@ 000000018003c758     libucrt:lcidtoname_downlevel.obj
 0002:00004768       ??_C@_1M@FHMDOHNN@?$AAf?$AAr?$AA?9?$AAL?$AAU?$AA?$AA@ 000000018003c768     libucrt:lcidtoname_downlevel.obj
 0002:00004778       ??_C@_1BG@NFKKMAFG@?$AAb?$AAs?$AA?9?$AAB?$AAA?$AA?9?$AAL?$AAa?$AAt?$AAn?$AA?$AA@ 000000018003c778     libucrt:lcidtoname_downlevel.obj
 0002:00004790       ??_C@_1O@IMNBEMCI@?$AAs?$AAm?$AAj?$AA?9?$AAS?$AAE?$AA?$AA@ 000000018003c790     libucrt:lcidtoname_downlevel.obj
 0002:000047a0       ??_C@_1M@DHHMBNDP@?$AAa?$AAr?$AA?9?$AAM?$AAA?$AA?$AA@ 000000018003c7a0     libucrt:lcidtoname_downlevel.obj
 0002:000047b0       ??_C@_1M@BNBLJCGH@?$AAe?$AAn?$AA?9?$AAI?$AAE?$AA?$AA@ 000000018003c7b0     libucrt:lcidtoname_downlevel.obj
 0002:000047c0       ??_C@_1M@GEPAFMDL@?$AAe?$AAs?$AA?9?$AAP?$AAA?$AA?$AA@ 000000018003c7c0     libucrt:lcidtoname_downlevel.obj
 0002:000047d0       ??_C@_1M@OJONDMDL@?$AAf?$AAr?$AA?9?$AAM?$AAC?$AA?$AA@ 000000018003c7d0     libucrt:lcidtoname_downlevel.obj
 0002:000047e0       ??_C@_1BG@OBCNFJB@?$AAs?$AAr?$AA?9?$AAB?$AAA?$AA?9?$AAL?$AAa?$AAt?$AAn?$AA?$AA@ 000000018003c7e0     libucrt:lcidtoname_downlevel.obj
 0002:000047f8       ??_C@_1O@KEMEEGPO@?$AAs?$AAm?$AAa?$AA?9?$AAN?$AAO?$AA?$AA@ 000000018003c7f8     libucrt:lcidtoname_downlevel.obj
 0002:00004808       ??_C@_1M@ELMGFODK@?$AAa?$AAr?$AA?9?$AAT?$AAN?$AA?$AA@ 000000018003c808     libucrt:lcidtoname_downlevel.obj
 0002:00004818       ??_C@_1M@BHDLHFAF@?$AAe?$AAn?$AA?9?$AAZ?$AAA?$AA?$AA@ 000000018003c818     libucrt:lcidtoname_downlevel.obj
 0002:00004828       ??_C@_1M@BMGIGLIF@?$AAe?$AAs?$AA?9?$AAD?$AAO?$AA?$AA@ 000000018003c828     libucrt:lcidtoname_downlevel.obj
 0002:00004838       ??_C@_1BG@CMBHIPBE@?$AAs?$AAr?$AA?9?$AAB?$AAA?$AA?9?$AAC?$AAy?$AAr?$AAl?$AA?$AA@ 000000018003c838     libucrt:lcidtoname_downlevel.obj
 0002:00004850       ??_C@_1O@HEDBLHNP@?$AAs?$AAm?$AAa?$AA?9?$AAS?$AAE?$AA?$AA@ 000000018003c850     libucrt:lcidtoname_downlevel.obj
 0002:00004860       ??_C@_1M@DAGCADIM@?$AAa?$AAr?$AA?9?$AAO?$AAM?$AA?$AA@ 000000018003c860     libucrt:lcidtoname_downlevel.obj
 0002:00004870       ??_C@_1M@FODLMICG@?$AAe?$AAn?$AA?9?$AAJ?$AAM?$AA?$AA@ 000000018003c870     libucrt:lcidtoname_downlevel.obj
 0002:00004880       ??_C@_1M@DNMLCIHB@?$AAe?$AAs?$AA?9?$AAV?$AAE?$AA?$AA@ 000000018003c880     libucrt:lcidtoname_downlevel.obj
 0002:00004890       ??_C@_1O@EOKHMKJK@?$AAs?$AAm?$AAs?$AA?9?$AAF?$AAI?$AA?$AA@ 000000018003c890     libucrt:lcidtoname_downlevel.obj
 0002:000048a0       ??_C@_1M@CAFJMKOF@?$AAa?$AAr?$AA?9?$AAY?$AAE?$AA?$AA@ 000000018003c8a0     libucrt:lcidtoname_downlevel.obj
 0002:000048b0       ??_C@_1M@CBFHIJLI@?$AAe?$AAn?$AA?9?$AAC?$AAB?$AA?$AA@ 000000018003c8b0     libucrt:lcidtoname_downlevel.obj
 0002:000048c0       ??_C@_1M@BGNFLDN@?$AAe?$AAs?$AA?9?$AAC?$AAO?$AA?$AA@ 000000018003c8c0     libucrt:lcidtoname_downlevel.obj
 0002:000048d0       ??_C@_1O@JMPHMAMC@?$AAs?$AAm?$AAn?$AA?9?$AAF?$AAI?$AA?$AA@ 000000018003c8d0     libucrt:lcidtoname_downlevel.obj
 0002:000048e0       ??_C@_1M@JLANABKE@?$AAa?$AAr?$AA?9?$AAS?$AAY?$AA?$AA@ 000000018003c8e0     libucrt:lcidtoname_downlevel.obj
 0002:000048f0       ??_C@_1M@HPKGCFGN@?$AAe?$AAn?$AA?9?$AAB?$AAZ?$AA?$AA@ 000000018003c8f0     libucrt:lcidtoname_downlevel.obj
 0002:00004900       ??_C@_1M@OLJCMLGM@?$AAe?$AAs?$AA?9?$AAP?$AAE?$AA?$AA@ 000000018003c900     libucrt:lcidtoname_downlevel.obj
 0002:00004910       ??_C@_1M@MKKGFKLE@?$AAa?$AAr?$AA?9?$AAJ?$AAO?$AA?$AA@ 000000018003c910     libucrt:lcidtoname_downlevel.obj
 0002:00004920       ??_C@_1M@EKPGLDNI@?$AAe?$AAn?$AA?9?$AAT?$AAT?$AA?$AA@ 000000018003c920     libucrt:lcidtoname_downlevel.obj
 0002:00004930       ??_C@_1M@OONGHFHE@?$AAe?$AAs?$AA?9?$AAA?$AAR?$AA?$AA@ 000000018003c930     libucrt:lcidtoname_downlevel.obj
 0002:00004940       ??_C@_1M@OOJFGBHE@?$AAa?$AAr?$AA?9?$AAL?$AAB?$AA?$AA@ 000000018003c940     libucrt:lcidtoname_downlevel.obj
 0002:00004950       ??_C@_1M@GCEJHNEG@?$AAe?$AAn?$AA?9?$AAZ?$AAW?$AA?$AA@ 000000018003c950     libucrt:lcidtoname_downlevel.obj
 0002:00004960       ??_C@_1M@JNOCAHJI@?$AAe?$AAs?$AA?9?$AAE?$AAC?$AA?$AA@ 000000018003c960     libucrt:lcidtoname_downlevel.obj
 0002:00004970       ??_C@_1M@JEFHPGGB@?$AAa?$AAr?$AA?9?$AAK?$AAW?$AA?$AA@ 000000018003c970     libucrt:lcidtoname_downlevel.obj
 0002:00004980       ??_C@_1M@MLKIBJOJ@?$AAe?$AAn?$AA?9?$AAP?$AAH?$AA?$AA@ 000000018003c980     libucrt:lcidtoname_downlevel.obj
 0002:00004990       ??_C@_1M@BDNIPEND@?$AAe?$AAs?$AA?9?$AAC?$AAL?$AA?$AA@ 000000018003c990     libucrt:lcidtoname_downlevel.obj
 0002:000049a0       ??_C@_1M@MPNMEKBD@?$AAa?$AAr?$AA?9?$AAA?$AAE?$AA?$AA@ 000000018003c9a0     libucrt:lcidtoname_downlevel.obj
 0002:000049b0       ??_C@_1M@KBJALCPI@?$AAe?$AAs?$AA?9?$AAU?$AAY?$AA?$AA@ 000000018003c9b0     libucrt:lcidtoname_downlevel.obj
 0002:000049c0       ??_C@_1M@LLCCOAGA@?$AAa?$AAr?$AA?9?$AAB?$AAH?$AA?$AA@ 000000018003c9c0     libucrt:lcidtoname_downlevel.obj
 0002:000049d0       ??_C@_1M@PBFNCDEL@?$AAe?$AAs?$AA?9?$AAP?$AAY?$AA?$AA@ 000000018003c9d0     libucrt:lcidtoname_downlevel.obj
 0002:000049e0       ??_C@_1M@EDGINPNP@?$AAa?$AAr?$AA?9?$AAQ?$AAA?$AA?$AA@ 000000018003c9e0     libucrt:lcidtoname_downlevel.obj
 0002:000049f0       ??_C@_1M@MKDBIIJI@?$AAe?$AAs?$AA?9?$AAB?$AAO?$AA?$AA@ 000000018003c9f0     libucrt:lcidtoname_downlevel.obj
 0002:00004a00       ??_C@_1M@CPKKEBLD@?$AAe?$AAs?$AA?9?$AAS?$AAV?$AA?$AA@ 000000018003ca00     libucrt:lcidtoname_downlevel.obj
 0002:00004a10       ??_C@_1M@NDBGMMJL@?$AAe?$AAs?$AA?9?$AAH?$AAN?$AA?$AA@ 000000018003ca10     libucrt:lcidtoname_downlevel.obj
 0002:00004a20       ??_C@_1M@JIJIBHDP@?$AAe?$AAs?$AA?9?$AAN?$AAI?$AA?$AA@ 000000018003ca20     libucrt:lcidtoname_downlevel.obj
 0002:00004a30       ??_C@_1M@CGFMKEEK@?$AAe?$AAs?$AA?9?$AAP?$AAR?$AA?$AA@ 000000018003ca30     libucrt:lcidtoname_downlevel.obj
 0002:00004a40       ??_C@_1O@ICJHKIIK@?$AAz?$AAh?$AA?9?$AAC?$AAH?$AAT?$AA?$AA@ 000000018003ca40     libucrt:lcidtoname_downlevel.obj
 0002:00004a50       ??_C@_15CLNEJCE@?$AAs?$AAr?$AA?$AA@ 000000018003ca50     libucrt:lcidtoname_downlevel.obj
 0002:000058a0       ??_C@_1M@KAHEKEIG@?$AAa?$AAf?$AA?9?$AAz?$AAa?$AA?$AA@ 000000018003d8a0     libucrt:lcidtoname_downlevel.obj
 0002:000058b0       ??_C@_1M@GIECOABL@?$AAa?$AAr?$AA?9?$AAa?$AAe?$AA?$AA@ 000000018003d8b0     libucrt:lcidtoname_downlevel.obj
 0002:000058c0       ??_C@_1M@BMLMEKGI@?$AAa?$AAr?$AA?9?$AAb?$AAh?$AA?$AA@ 000000018003d8c0     libucrt:lcidtoname_downlevel.obj
 0002:000058d0       ??_C@_1M@DAPFDGGB@?$AAa?$AAr?$AA?9?$AAd?$AAz?$AA?$AA@ 000000018003d8d0     libucrt:lcidtoname_downlevel.obj
 0002:000058e0       ??_C@_1M@FJNKGKIG@?$AAa?$AAr?$AA?9?$AAe?$AAg?$AA?$AA@ 000000018003d8e0     libucrt:lcidtoname_downlevel.obj
 0002:000058f0       ??_C@_1M@FLGKKCLO@?$AAa?$AAr?$AA?9?$AAi?$AAq?$AA?$AA@ 000000018003d8f0     libucrt:lcidtoname_downlevel.obj
 0002:00005900       ??_C@_1M@GNDIPALM@?$AAa?$AAr?$AA?9?$AAj?$AAo?$AA?$AA@ 000000018003d900     libucrt:lcidtoname_downlevel.obj
 0002:00005910       ??_C@_1M@DDMJFMGJ@?$AAa?$AAr?$AA?9?$AAk?$AAw?$AA?$AA@ 000000018003d910     libucrt:lcidtoname_downlevel.obj
 0002:00005920       ??_C@_1M@EJALMLHM@?$AAa?$AAr?$AA?9?$AAl?$AAb?$AA?$AA@ 000000018003d920     libucrt:lcidtoname_downlevel.obj
 0002:00005930       ??_C@_1M@MOBDBLOC@?$AAa?$AAr?$AA?9?$AAl?$AAy?$AA?$AA@ 000000018003d930     libucrt:lcidtoname_downlevel.obj
 0002:00005940       ??_C@_1M@JAOCLHDH@?$AAa?$AAr?$AA?9?$AAm?$AAa?$AA?$AA@ 000000018003d940     libucrt:lcidtoname_downlevel.obj
 0002:00005950       ??_C@_1M@JHPMKJIE@?$AAa?$AAr?$AA?9?$AAo?$AAm?$AA?$AA@ 000000018003d950     libucrt:lcidtoname_downlevel.obj
 0002:00005960       ??_C@_1M@OEPGHFNH@?$AAa?$AAr?$AA?9?$AAq?$AAa?$AA?$AA@ 000000018003d960     libucrt:lcidtoname_downlevel.obj
 0002:00005970       ??_C@_1M@KJDONENM@?$AAa?$AAr?$AA?9?$AAs?$AAa?$AA?$AA@ 000000018003d970     libucrt:lcidtoname_downlevel.obj
 0002:00005980       ??_C@_1M@DMJDKLKM@?$AAa?$AAr?$AA?9?$AAs?$AAy?$AA?$AA@ 000000018003d980     libucrt:lcidtoname_downlevel.obj
 0002:00005990       ??_C@_1M@OMFIPEDC@?$AAa?$AAr?$AA?9?$AAt?$AAn?$AA?$AA@ 000000018003d990     libucrt:lcidtoname_downlevel.obj
 0002:000059a0       ??_C@_1M@IHMHGAON@?$AAa?$AAr?$AA?9?$AAy?$AAe?$AA?$AA@ 000000018003d9a0     libucrt:lcidtoname_downlevel.obj
 0002:000059b0       ??_C@_1BG@KDCPGJGB@?$AAa?$AAz?$AA?9?$AAa?$AAz?$AA?9?$AAc?$AAy?$AAr?$AAl?$AA?$AA@ 000000018003d9b0     libucrt:lcidtoname_downlevel.obj
 0002:000059c8       ??_C@_1BG@IBCKDDOE@?$AAa?$AAz?$AA?9?$AAa?$AAz?$AA?9?$AAl?$AAa?$AAt?$AAn?$AA?$AA@ 000000018003d9c8     libucrt:lcidtoname_downlevel.obj
 0002:000059e0       ??_C@_1M@EGPFDCPD@?$AAb?$AAe?$AA?9?$AAb?$AAy?$AA?$AA@ 000000018003d9e0     libucrt:lcidtoname_downlevel.obj
 0002:000059f0       ??_C@_1M@PCMGMCGC@?$AAb?$AAg?$AA?9?$AAb?$AAg?$AA?$AA@ 000000018003d9f0     libucrt:lcidtoname_downlevel.obj
 0002:00005a00       ??_C@_1M@BJBMFGOB@?$AAb?$AAn?$AA?9?$AAi?$AAn?$AA?$AA@ 000000018003da00     libucrt:lcidtoname_downlevel.obj
 0002:00005a10       ??_C@_1BG@EAKMMACD@?$AAb?$AAs?$AA?9?$AAb?$AAa?$AA?9?$AAl?$AAa?$AAt?$AAn?$AA?$AA@ 000000018003da10     libucrt:lcidtoname_downlevel.obj
 0002:00005a28       ??_C@_1M@KGADAODK@?$AAc?$AAa?$AA?9?$AAe?$AAs?$AA?$AA@ 000000018003da28     libucrt:lcidtoname_downlevel.obj
 0002:00005a38       ??_C@_1M@COAJPDHI@?$AAc?$AAs?$AA?9?$AAc?$AAz?$AA?$AA@ 000000018003da38     libucrt:lcidtoname_downlevel.obj
 0002:00005a48       ??_C@_1M@DHBHFONH@?$AAc?$AAy?$AA?9?$AAg?$AAb?$AA?$AA@ 000000018003da48     libucrt:lcidtoname_downlevel.obj
 0002:00005a58       ??_C@_1M@IMGKELGA@?$AAd?$AAa?$AA?9?$AAd?$AAk?$AA?$AA@ 000000018003da58     libucrt:lcidtoname_downlevel.obj
 0002:00005a68       ??_C@_1M@NNDGDNGA@?$AAd?$AAe?$AA?9?$AAa?$AAt?$AA?$AA@ 000000018003da68     libucrt:lcidtoname_downlevel.obj
 0002:00005a78       ??_C@_1M@IKDBHEEM@?$AAd?$AAe?$AA?9?$AAc?$AAh?$AA?$AA@ 000000018003da78     libucrt:lcidtoname_downlevel.obj
 0002:00005a88       ??_C@_1M@GFFOJMCJ@?$AAd?$AAe?$AA?9?$AAd?$AAe?$AA?$AA@ 000000018003da88     libucrt:lcidtoname_downlevel.obj
 0002:00005a98       ??_C@_1M@MDNLKBPM@?$AAd?$AAe?$AA?9?$AAl?$AAi?$AA?$AA@ 000000018003da98     libucrt:lcidtoname_downlevel.obj
 0002:00005aa8       ??_C@_1M@NJBEEJNL@?$AAd?$AAe?$AA?9?$AAl?$AAu?$AA?$AA@ 000000018003daa8     libucrt:lcidtoname_downlevel.obj
 0002:00005ab8       ??_C@_1O@GNNELBAP@?$AAd?$AAi?$AAv?$AA?9?$AAm?$AAv?$AA?$AA@ 000000018003dab8     libucrt:lcidtoname_downlevel.obj
 0002:00005ac8       ??_C@_1M@EJLEOGAE@?$AAe?$AAl?$AA?9?$AAg?$AAr?$AA?$AA@ 000000018003dac8     libucrt:lcidtoname_downlevel.obj
 0002:00005ad8       ??_C@_1M@GMPONJN@?$AAe?$AAn?$AA?9?$AAa?$AAu?$AA?$AA@ 000000018003dad8     libucrt:lcidtoname_downlevel.obj
 0002:00005ae8       ??_C@_1M@NIDIIPGF@?$AAe?$AAn?$AA?9?$AAb?$AAz?$AA?$AA@ 000000018003dae8     libucrt:lcidtoname_downlevel.obj
 0002:00005af8       ??_C@_1M@JEHMIMFO@?$AAe?$AAn?$AA?9?$AAc?$AAa?$AA?$AA@ 000000018003daf8     libucrt:lcidtoname_downlevel.obj
 0002:00005b08       ??_C@_1M@IGMJCDLA@?$AAe?$AAn?$AA?9?$AAc?$AAb?$AA?$AA@ 000000018003db08     libucrt:lcidtoname_downlevel.obj
 0002:00005b18       ??_C@_1M@BNFIGBKG@?$AAe?$AAn?$AA?9?$AAg?$AAb?$AA?$AA@ 000000018003db18     libucrt:lcidtoname_downlevel.obj
 0002:00005b28       ??_C@_1M@LKIFDIGP@?$AAe?$AAn?$AA?9?$AAi?$AAe?$AA?$AA@ 000000018003db28     libucrt:lcidtoname_downlevel.obj
 0002:00005b38       ??_C@_1M@PJKFGCCO@?$AAe?$AAn?$AA?9?$AAj?$AAm?$AA?$AA@ 000000018003db38     libucrt:lcidtoname_downlevel.obj
 0002:00005b48       ??_C@_1M@KPPKEPBO@?$AAe?$AAn?$AA?9?$AAn?$AAz?$AA?$AA@ 000000018003db48     libucrt:lcidtoname_downlevel.obj
 0002:00005b58       ??_C@_1M@GMDGLDOB@?$AAe?$AAn?$AA?9?$AAp?$AAh?$AA?$AA@ 000000018003db58     libucrt:lcidtoname_downlevel.obj
 0002:00005b68       ??_C@_1M@ONGIBJNA@?$AAe?$AAn?$AA?9?$AAt?$AAt?$AA?$AA@ 000000018003db68     libucrt:lcidtoname_downlevel.obj
 0002:00005b78       ??_C@_1M@LLODPCMM@?$AAe?$AAn?$AA?9?$AAu?$AAs?$AA?$AA@ 000000018003db78     libucrt:lcidtoname_downlevel.obj
 0002:00005b88       ??_C@_1M@LAKFNPAN@?$AAe?$AAn?$AA?9?$AAz?$AAa?$AA?$AA@ 000000018003db88     libucrt:lcidtoname_downlevel.obj
 0002:00005b98       ??_C@_1M@MFNHNHEO@?$AAe?$AAn?$AA?9?$AAz?$AAw?$AA?$AA@ 000000018003db98     libucrt:lcidtoname_downlevel.obj
 0002:00005ba8       ??_C@_1M@EJEINPHM@?$AAe?$AAs?$AA?9?$AAa?$AAr?$AA?$AA@ 000000018003dba8     libucrt:lcidtoname_downlevel.obj
 0002:00005bb8       ??_C@_1M@GNKPCCJA@?$AAe?$AAs?$AA?9?$AAb?$AAo?$AA?$AA@ 000000018003dbb8     libucrt:lcidtoname_downlevel.obj
 0002:00005bc8       ??_C@_1M@LEEGFONL@?$AAe?$AAs?$AA?9?$AAc?$AAl?$AA?$AA@ 000000018003dbc8     libucrt:lcidtoname_downlevel.obj
 0002:00005bd8       ??_C@_1M@KGPDPBDF@?$AAe?$AAs?$AA?9?$AAc?$AAo?$AA?$AA@ 000000018003dbd8     libucrt:lcidtoname_downlevel.obj
 0002:00005be8       ??_C@_1M@EIAHOHH@?$AAe?$AAs?$AA?9?$AAc?$AAr?$AA?$AA@ 000000018003dbe8     libucrt:lcidtoname_downlevel.obj
 0002:00005bf8       ??_C@_1M@LLPGMBIN@?$AAe?$AAs?$AA?9?$AAd?$AAo?$AA?$AA@ 000000018003dbf8     libucrt:lcidtoname_downlevel.obj
 0002:00005c08       ??_C@_1M@DKHMKNJA@?$AAe?$AAs?$AA?9?$AAe?$AAc?$AA?$AA@ 000000018003dc08     libucrt:lcidtoname_downlevel.obj
 0002:00005c18       ??_C@_1M@GKGFPKAP@?$AAe?$AAs?$AA?9?$AAe?$AAs?$AA?$AA@ 000000018003dc18     libucrt:lcidtoname_downlevel.obj
 0002:00005c28       ??_C@_1M@LKHKGDLN@?$AAe?$AAs?$AA?9?$AAg?$AAt?$AA?$AA@ 000000018003dc28     libucrt:lcidtoname_downlevel.obj
 0002:00005c38       ??_C@_1M@HEIIGGJD@?$AAe?$AAs?$AA?9?$AAh?$AAn?$AA?$AA@ 000000018003dc38     libucrt:lcidtoname_downlevel.obj
 0002:00005c48       ??_C@_1M@FBDHPPGD@?$AAe?$AAs?$AA?9?$AAm?$AAx?$AA?$AA@ 000000018003dc48     libucrt:lcidtoname_downlevel.obj
 0002:00005c58       ??_C@_1M@DPAGLNDH@?$AAe?$AAs?$AA?9?$AAn?$AAi?$AA?$AA@ 000000018003dc58     libucrt:lcidtoname_downlevel.obj
 0002:00005c68       ??_C@_1M@MDGOPGDD@?$AAe?$AAs?$AA?9?$AAp?$AAa?$AA?$AA@ 000000018003dc68     libucrt:lcidtoname_downlevel.obj
 0002:00005c78       ??_C@_1M@EMAMGBGE@?$AAe?$AAs?$AA?9?$AAp?$AAe?$AA?$AA@ 000000018003dc78     libucrt:lcidtoname_downlevel.obj
 0002:00005c88       ??_C@_1M@IBMCAOEC@?$AAe?$AAs?$AA?9?$AAp?$AAr?$AA?$AA@ 000000018003dc88     libucrt:lcidtoname_downlevel.obj
 0002:00005c98       ??_C@_1M@FGMDIJED@?$AAe?$AAs?$AA?9?$AAp?$AAy?$AA?$AA@ 000000018003dc98     libucrt:lcidtoname_downlevel.obj
 0002:00005ca8       ??_C@_1M@IIDEOLLL@?$AAe?$AAs?$AA?9?$AAs?$AAv?$AA?$AA@ 000000018003dca8     libucrt:lcidtoname_downlevel.obj
 0002:00005cb8       ??_C@_1M@GAOBIPA@?$AAe?$AAs?$AA?9?$AAu?$AAy?$AA?$AA@ 000000018003dcb8     libucrt:lcidtoname_downlevel.obj
 0002:00005cc8       ??_C@_1M@JKFFICHJ@?$AAe?$AAs?$AA?9?$AAv?$AAe?$AA?$AA@ 000000018003dcc8     libucrt:lcidtoname_downlevel.obj
 0002:00005cd8       ??_C@_1M@PNMLOJDF@?$AAe?$AAt?$AA?9?$AAe?$AAe?$AA?$AA@ 000000018003dcd8     libucrt:lcidtoname_downlevel.obj
 0002:00005ce8       ??_C@_1M@GHHLIKEI@?$AAe?$AAu?$AA?9?$AAe?$AAs?$AA?$AA@ 000000018003dce8     libucrt:lcidtoname_downlevel.obj
 0002:00005cf8       ??_C@_1M@PBNONODE@?$AAf?$AAa?$AA?9?$AAi?$AAr?$AA?$AA@ 000000018003dcf8     libucrt:lcidtoname_downlevel.obj
 0002:00005d08       ??_C@_1M@JEEHPMIL@?$AAf?$AAi?$AA?9?$AAf?$AAi?$AA?$AA@ 000000018003dd08     libucrt:lcidtoname_downlevel.obj
 0002:00005d18       ??_C@_1M@LMDCNDBA@?$AAf?$AAo?$AA?9?$AAf?$AAo?$AA?$AA@ 000000018003dd18     libucrt:lcidtoname_downlevel.obj
 0002:00005d28       ??_C@_1M@JKEOHLDK@?$AAf?$AAr?$AA?9?$AAb?$AAe?$AA?$AA@ 000000018003dd28     libucrt:lcidtoname_downlevel.obj
 0002:00005d38       ??_C@_1M@NOHADPMI@?$AAf?$AAr?$AA?9?$AAc?$AAa?$AA?$AA@ 000000018003dd38     libucrt:lcidtoname_downlevel.obj
 0002:00005d48       ??_C@_1M@KDHIHAEC@?$AAf?$AAr?$AA?9?$AAc?$AAh?$AA?$AA@ 000000018003dd48     libucrt:lcidtoname_downlevel.obj
 0002:00005d58       ??_C@_1M@MMBBFGAK@?$AAf?$AAr?$AA?9?$AAf?$AAr?$AA?$AA@ 000000018003dd58     libucrt:lcidtoname_downlevel.obj
 0002:00005d68       ??_C@_1M@PAFNENNF@?$AAf?$AAr?$AA?9?$AAl?$AAu?$AA?$AA@ 000000018003dd68     libucrt:lcidtoname_downlevel.obj
 0002:00005d78       ??_C@_1M@EOHDJGDD@?$AAf?$AAr?$AA?9?$AAm?$AAc?$AA?$AA@ 000000018003dd78     libucrt:lcidtoname_downlevel.obj
 0002:00005d88       ??_C@_1M@FAPLLOPF@?$AAg?$AAl?$AA?9?$AAe?$AAs?$AA?$AA@ 000000018003dd88     libucrt:lcidtoname_downlevel.obj
 0002:00005d98       ??_C@_1M@FOPBFLOO@?$AAg?$AAu?$AA?9?$AAi?$AAn?$AA?$AA@ 000000018003dd98     libucrt:lcidtoname_downlevel.obj
 0002:00005da8       ??_C@_1M@KBMCINPM@?$AAh?$AAe?$AA?9?$AAi?$AAl?$AA?$AA@ 000000018003dda8     libucrt:lcidtoname_downlevel.obj
 0002:00005db8       ??_C@_1M@BBPHKFPJ@?$AAh?$AAi?$AA?9?$AAi?$AAn?$AA?$AA@ 000000018003ddb8     libucrt:lcidtoname_downlevel.obj
 0002:00005dc8       ??_C@_1M@PMBNDPHD@?$AAh?$AAr?$AA?9?$AAb?$AAa?$AA?$AA@ 000000018003ddc8     libucrt:lcidtoname_downlevel.obj
 0002:00005dd8       ??_C@_1M@BPCKOEGE@?$AAh?$AAr?$AA?9?$AAh?$AAr?$AA?$AA@ 000000018003ddd8     libucrt:lcidtoname_downlevel.obj
 0002:00005de8       ??_C@_1M@GACBMHKE@?$AAh?$AAu?$AA?9?$AAh?$AAu?$AA?$AA@ 000000018003dde8     libucrt:lcidtoname_downlevel.obj
 0002:00005df8       ??_C@_1M@MILPAJJC@?$AAh?$AAy?$AA?9?$AAa?$AAm?$AA?$AA@ 000000018003ddf8     libucrt:lcidtoname_downlevel.obj
 0002:00005e08       ??_C@_1M@BABBICEC@?$AAi?$AAd?$AA?9?$AAi?$AAd?$AA?$AA@ 000000018003de08     libucrt:lcidtoname_downlevel.obj
 0002:00005e18       ??_C@_1M@BIKNHHPF@?$AAi?$AAs?$AA?9?$AAi?$AAs?$AA?$AA@ 000000018003de18     libucrt:lcidtoname_downlevel.obj
 0002:00005e28       ??_C@_1M@NMPCJPHE@?$AAi?$AAt?$AA?9?$AAc?$AAh?$AA?$AA@ 000000018003de28     libucrt:lcidtoname_downlevel.obj
 0002:00005e38       ??_C@_1M@GHKGFEDF@?$AAi?$AAt?$AA?9?$AAi?$AAt?$AA?$AA@ 000000018003de38     libucrt:lcidtoname_downlevel.obj
 0002:00005e48       ??_C@_1M@NIEJCJJA@?$AAj?$AAa?$AA?9?$AAj?$AAp?$AA?$AA@ 000000018003de48     libucrt:lcidtoname_downlevel.obj
 0002:00005e58       ??_C@_1M@JILFNBIM@?$AAk?$AAa?$AA?9?$AAg?$AAe?$AA?$AA@ 000000018003de58     libucrt:lcidtoname_downlevel.obj
 0002:00005e68       ??_C@_1M@PACPMGPH@?$AAk?$AAk?$AA?9?$AAk?$AAz?$AA?$AA@ 000000018003de68     libucrt:lcidtoname_downlevel.obj
 0002:00005e78       ??_C@_1M@IELFGMHA@?$AAk?$AAn?$AA?9?$AAi?$AAn?$AA?$AA@ 000000018003de78     libucrt:lcidtoname_downlevel.obj
 0002:00005e88       ??_C@_1O@IBBJHCH@?$AAk?$AAo?$AAk?$AA?9?$AAi?$AAn?$AA?$AA@ 000000018003de88     libucrt:lcidtoname_downlevel.obj
 0002:00005e98       ??_C@_1M@DMHAEOGC@?$AAk?$AAo?$AA?9?$AAk?$AAr?$AA?$AA@ 000000018003de98     libucrt:lcidtoname_downlevel.obj
 0002:00005ea8       ??_C@_1M@HBAHBIGA@?$AAk?$AAy?$AA?9?$AAk?$AAg?$AA?$AA@ 000000018003dea8     libucrt:lcidtoname_downlevel.obj
 0002:00005eb8       ??_C@_1M@KPMILCJG@?$AAl?$AAt?$AA?9?$AAl?$AAt?$AA?$AA@ 000000018003deb8     libucrt:lcidtoname_downlevel.obj
 0002:00005ec8       ??_C@_1M@BDEKKCA@?$AAl?$AAv?$AA?9?$AAl?$AAv?$AA?$AA@ 000000018003dec8     libucrt:lcidtoname_downlevel.obj
 0002:00005ed8       ??_C@_1M@ELCKCCJJ@?$AAm?$AAi?$AA?9?$AAn?$AAz?$AA?$AA@ 000000018003ded8     libucrt:lcidtoname_downlevel.obj
 0002:00005ee8       ??_C@_1M@CBOOLAPA@?$AAm?$AAk?$AA?9?$AAm?$AAk?$AA?$AA@ 000000018003dee8     libucrt:lcidtoname_downlevel.obj
 0002:00005ef8       ??_C@_1M@GPHNBJKN@?$AAm?$AAl?$AA?9?$AAi?$AAn?$AA?$AA@ 000000018003def8     libucrt:lcidtoname_downlevel.obj
 0002:00005f08       ??_C@_1M@PABJILIG@?$AAm?$AAn?$AA?9?$AAm?$AAn?$AA?$AA@ 000000018003df08     libucrt:lcidtoname_downlevel.obj
 0002:00005f18       ??_C@_1M@FGBKKIPG@?$AAm?$AAr?$AA?9?$AAi?$AAn?$AA?$AA@ 000000018003df18     libucrt:lcidtoname_downlevel.obj
 0002:00005f28       ??_C@_1M@NDBPDDAL@?$AAm?$AAs?$AA?9?$AAb?$AAn?$AA?$AA@ 000000018003df28     libucrt:lcidtoname_downlevel.obj
 0002:00005f38       ??_C@_1M@OPIHOOPI@?$AAm?$AAs?$AA?9?$AAm?$AAy?$AA?$AA@ 000000018003df38     libucrt:lcidtoname_downlevel.obj
 0002:00005f48       ??_C@_1M@PPDBCNFM@?$AAm?$AAt?$AA?9?$AAm?$AAt?$AA?$AA@ 000000018003df48     libucrt:lcidtoname_downlevel.obj
 0002:00005f58       ??_C@_1M@KDJDKMDD@?$AAn?$AAb?$AA?9?$AAn?$AAo?$AA?$AA@ 000000018003df58     libucrt:lcidtoname_downlevel.obj
 0002:00005f68       ??_C@_1M@KFCFLMJP@?$AAn?$AAl?$AA?9?$AAb?$AAe?$AA?$AA@ 000000018003df68     libucrt:lcidtoname_downlevel.obj
 0002:00005f78       ??_C@_1M@KPOPDDGO@?$AAn?$AAl?$AA?9?$AAn?$AAl?$AA?$AA@ 000000018003df78     libucrt:lcidtoname_downlevel.obj
 0002:00005f88       ??_C@_1M@LJKPEMLN@?$AAn?$AAn?$AA?9?$AAn?$AAo?$AA?$AA@ 000000018003df88     libucrt:lcidtoname_downlevel.obj
 0002:00005f98       ??_C@_1M@BDGHHBFL@?$AAn?$AAs?$AA?9?$AAz?$AAa?$AA?$AA@ 000000018003df98     libucrt:lcidtoname_downlevel.obj
 0002:00005fa8       ??_C@_1M@IDEHOAP@?$AAp?$AAa?$AA?9?$AAi?$AAn?$AA?$AA@ 000000018003dfa8     libucrt:lcidtoname_downlevel.obj
 0002:00005fb8       ??_C@_1M@HDBKGOGH@?$AAp?$AAl?$AA?9?$AAp?$AAl?$AA?$AA@ 000000018003dfb8     libucrt:lcidtoname_downlevel.obj
 0002:00005fc8       ??_C@_1M@LJLLCMEH@?$AAp?$AAt?$AA?9?$AAb?$AAr?$AA?$AA@ 000000018003dfc8     libucrt:lcidtoname_downlevel.obj
 0002:00005fd8       ??_C@_1M@NCMONAAL@?$AAp?$AAt?$AA?9?$AAp?$AAt?$AA?$AA@ 000000018003dfd8     libucrt:lcidtoname_downlevel.obj
 0002:00005fe8       ??_C@_1O@EAKMAJDN@?$AAq?$AAu?$AAz?$AA?9?$AAb?$AAo?$AA?$AA@ 000000018003dfe8     libucrt:lcidtoname_downlevel.obj
 0002:00005ff8       ??_C@_1O@BHHPIGDN@?$AAq?$AAu?$AAz?$AA?9?$AAe?$AAc?$AA?$AA@ 000000018003dff8     libucrt:lcidtoname_downlevel.obj
 0002:00006008       ??_C@_1O@GBAPEKMJ@?$AAq?$AAu?$AAz?$AA?9?$AAp?$AAe?$AA?$AA@ 000000018003e008     libucrt:lcidtoname_downlevel.obj
 0002:00006018       ??_C@_1M@CLGLEFBO@?$AAr?$AAo?$AA?9?$AAr?$AAo?$AA?$AA@ 000000018003e018     libucrt:lcidtoname_downlevel.obj
 0002:00006028       ??_C@_1M@CEEDODME@?$AAr?$AAu?$AA?9?$AAr?$AAu?$AA?$AA@ 000000018003e028     libucrt:lcidtoname_downlevel.obj
 0002:00006038       ??_C@_1M@HPKKKMPP@?$AAs?$AAa?$AA?9?$AAi?$AAn?$AA?$AA@ 000000018003e038     libucrt:lcidtoname_downlevel.obj
 0002:00006048       ??_C@_1M@BKMAIGOJ@?$AAs?$AAe?$AA?9?$AAf?$AAi?$AA?$AA@ 000000018003e048     libucrt:lcidtoname_downlevel.obj
 0002:00006058       ??_C@_1M@NDPIFLFI@?$AAs?$AAe?$AA?9?$AAn?$AAo?$AA?$AA@ 000000018003e058     libucrt:lcidtoname_downlevel.obj
 0002:00006068       ??_C@_1M@DANKKHJ@?$AAs?$AAe?$AA?9?$AAs?$AAe?$AA?$AA@ 000000018003e068     libucrt:lcidtoname_downlevel.obj
 0002:00006078       ??_C@_1M@PNBLONPJ@?$AAs?$AAk?$AA?9?$AAs?$AAk?$AA?$AA@ 000000018003e078     libucrt:lcidtoname_downlevel.obj
 0002:00006088       ??_C@_1M@LFMODOAL@?$AAs?$AAl?$AA?9?$AAs?$AAi?$AA?$AA@ 000000018003e088     libucrt:lcidtoname_downlevel.obj
 0002:00006098       ??_C@_1O@DFKOMPG@?$AAs?$AAm?$AAa?$AA?9?$AAn?$AAo?$AA?$AA@ 000000018003e098     libucrt:lcidtoname_downlevel.obj
 0002:000060a8       ??_C@_1O@NDKPBNNH@?$AAs?$AAm?$AAa?$AA?9?$AAs?$AAe?$AA?$AA@ 000000018003e0a8     libucrt:lcidtoname_downlevel.obj
 0002:000060b8       ??_C@_1O@PLLKBHAB@?$AAs?$AAm?$AAj?$AA?9?$AAn?$AAo?$AA?$AA@ 000000018003e0b8     libucrt:lcidtoname_downlevel.obj
 0002:000060c8       ??_C@_1O@CLEPOGCA@?$AAs?$AAm?$AAj?$AA?9?$AAs?$AAe?$AA?$AA@ 000000018003e0c8     libucrt:lcidtoname_downlevel.obj
 0002:000060d8       ??_C@_1O@DLGJGKMK@?$AAs?$AAm?$AAn?$AA?9?$AAf?$AAi?$AA?$AA@ 000000018003e0d8     libucrt:lcidtoname_downlevel.obj
 0002:000060e8       ??_C@_1O@OJDJGAJC@?$AAs?$AAm?$AAs?$AA?9?$AAf?$AAi?$AA?$AA@ 000000018003e0e8     libucrt:lcidtoname_downlevel.obj
 0002:000060f8       ??_C@_1M@BOFOGHPB@?$AAs?$AAq?$AA?9?$AAa?$AAl?$AA?$AA@ 000000018003e0f8     libucrt:lcidtoname_downlevel.obj
 0002:00006108       ??_C@_1BG@LJBBIPGB@?$AAs?$AAr?$AA?9?$AAb?$AAa?$AA?9?$AAc?$AAy?$AAr?$AAl?$AA?$AA@ 000000018003e108     libucrt:lcidtoname_downlevel.obj
 0002:00006120       ??_C@_1BG@JLBENFOE@?$AAs?$AAr?$AA?9?$AAb?$AAa?$AA?9?$AAl?$AAa?$AAt?$AAn?$AA?$AA@ 000000018003e120     libucrt:lcidtoname_downlevel.obj
 0002:00006138       ??_C@_1BG@KODPNHE@?$AAs?$AAr?$AA?9?$AAs?$AAp?$AA?9?$AAc?$AAy?$AAr?$AAl?$AA?$AA@ 000000018003e138     libucrt:lcidtoname_downlevel.obj
 0002:00006150       ??_C@_1BG@CIOGKHPB@?$AAs?$AAr?$AA?9?$AAs?$AAp?$AA?9?$AAl?$AAa?$AAt?$AAn?$AA?$AA@ 000000018003e150     libucrt:lcidtoname_downlevel.obj
 0002:00006168       ??_C@_1M@NGFJLMAC@?$AAs?$AAv?$AA?9?$AAf?$AAi?$AA?$AA@ 000000018003e168     libucrt:lcidtoname_downlevel.obj
 0002:00006178       ??_C@_1M@MPJEJAJC@?$AAs?$AAv?$AA?9?$AAs?$AAe?$AA?$AA@ 000000018003e178     libucrt:lcidtoname_downlevel.obj
 0002:00006188       ??_C@_1M@MPNDHLFK@?$AAs?$AAw?$AA?9?$AAk?$AAe?$AA?$AA@ 000000018003e188     libucrt:lcidtoname_downlevel.obj
 0002:00006198       ??_C@_1O@KOHBJJI@?$AAs?$AAy?$AAr?$AA?9?$AAs?$AAy?$AA?$AA@ 000000018003e198     libucrt:lcidtoname_downlevel.obj
 0002:000061a8       ??_C@_1M@LDCEFHA@?$AAt?$AAa?$AA?9?$AAi?$AAn?$AA?$AA@ 000000018003e1a8     libucrt:lcidtoname_downlevel.obj
 0002:000061b8       ??_C@_1M@CNJOFAK@?$AAt?$AAe?$AA?9?$AAi?$AAn?$AA?$AA@ 000000018003e1b8     libucrt:lcidtoname_downlevel.obj
 0002:000061c8       ??_C@_1M@GNAECACD@?$AAt?$AAh?$AA?9?$AAt?$AAh?$AA?$AA@ 000000018003e1c8     libucrt:lcidtoname_downlevel.obj
 0002:000061d8       ??_C@_1M@CHBIHOJO@?$AAt?$AAn?$AA?9?$AAz?$AAa?$AA?$AA@ 000000018003e1d8     libucrt:lcidtoname_downlevel.obj
 0002:000061e8       ??_C@_1M@GCCMIGPJ@?$AAt?$AAr?$AA?9?$AAt?$AAr?$AA?$AA@ 000000018003e1e8     libucrt:lcidtoname_downlevel.obj
 0002:000061f8       ??_C@_1M@CELMCNBK@?$AAt?$AAt?$AA?9?$AAr?$AAu?$AA?$AA@ 000000018003e1f8     libucrt:lcidtoname_downlevel.obj
 0002:00006208       ??_C@_1M@KLMCELGA@?$AAu?$AAk?$AA?9?$AAu?$AAa?$AA?$AA@ 000000018003e208     libucrt:lcidtoname_downlevel.obj
 0002:00006218       ??_C@_1M@EPAJJAJF@?$AAu?$AAr?$AA?9?$AAp?$AAk?$AA?$AA@ 000000018003e218     libucrt:lcidtoname_downlevel.obj
 0002:00006228       ??_C@_1BG@GEGPMCDJ@?$AAu?$AAz?$AA?9?$AAu?$AAz?$AA?9?$AAc?$AAy?$AAr?$AAl?$AA?$AA@ 000000018003e228     libucrt:lcidtoname_downlevel.obj
 0002:00006240       ??_C@_1BG@EGGKJILM@?$AAu?$AAz?$AA?9?$AAu?$AAz?$AA?9?$AAl?$AAa?$AAt?$AAn?$AA?$AA@ 000000018003e240     libucrt:lcidtoname_downlevel.obj
 0002:00006258       ??_C@_1M@GFOCLFF@?$AAv?$AAi?$AA?9?$AAv?$AAn?$AA?$AA@ 000000018003e258     libucrt:lcidtoname_downlevel.obj
 0002:00006268       ??_C@_1M@CPAMEDFI@?$AAx?$AAh?$AA?9?$AAz?$AAa?$AA?$AA@ 000000018003e268     libucrt:lcidtoname_downlevel.obj
 0002:00006278       ??_C@_1O@EBKIFIGN@?$AAz?$AAh?$AA?9?$AAc?$AAh?$AAs?$AA?$AA@ 000000018003e278     libucrt:lcidtoname_downlevel.obj
 0002:00006288       ??_C@_1O@NMHPGANE@?$AAz?$AAh?$AA?9?$AAc?$AAh?$AAt?$AA?$AA@ 000000018003e288     libucrt:lcidtoname_downlevel.obj
 0002:00006298       ??_C@_1M@LPINJOMC@?$AAz?$AAh?$AA?9?$AAc?$AAn?$AA?$AA@ 000000018003e298     libucrt:lcidtoname_downlevel.obj
 0002:000062a8       ??_C@_1M@OCJEJODD@?$AAz?$AAh?$AA?9?$AAh?$AAk?$AA?$AA@ 000000018003e2a8     libucrt:lcidtoname_downlevel.obj
 0002:000062b8       ??_C@_1M@DNDLJINH@?$AAz?$AAh?$AA?9?$AAm?$AAo?$AA?$AA@ 000000018003e2b8     libucrt:lcidtoname_downlevel.obj
 0002:000062c8       ??_C@_1M@MBFDNDND@?$AAz?$AAh?$AA?9?$AAs?$AAg?$AA?$AA@ 000000018003e2c8     libucrt:lcidtoname_downlevel.obj
 0002:000062d8       ??_C@_1M@IMEPLEPE@?$AAz?$AAh?$AA?9?$AAt?$AAw?$AA?$AA@ 000000018003e2d8     libucrt:lcidtoname_downlevel.obj
 0002:000062e8       ??_C@_1M@BBGHNHJP@?$AAz?$AAu?$AA?9?$AAz?$AAa?$AA?$AA@ 000000018003e2e8     libucrt:lcidtoname_downlevel.obj
 0002:000062f4       ??_C@_00CNPNBAHC@?$AA@     000000018003e2f4     libucrt:mbrtowc.obj
 0002:00006300       ?large_power_data@?1??multiply_by_power_of_ten@__crt_strtox@@YA_NAEAUbig_integer@2@I@Z@4QBIB 000000018003e300     libucrt:cfout.obj
 0002:00006c10       ?large_power_indices@?1??multiply_by_power_of_ten@__crt_strtox@@YA_NAEAUbig_integer@2@I@Z@4QBUunpack_index@?1??12@YA_N0I@Z@B 000000018003ec10     libucrt:cfout.obj
 0002:00006ca8       ?small_powers_of_ten@?1??multiply_by_power_of_ten@__crt_strtox@@YA_NAEAUbig_integer@2@I@Z@4QBIB 000000018003eca8     libucrt:cfout.obj
 0002:00006ccc       ??_C@_01GBGANLPD@0?$AA@    000000018003eccc     libucrt:cfout.obj
 0002:00006cd0       ??_C@_05DNEBIAHO@1?$CDINF?$AA@ 000000018003ecd0     libucrt:cfout.obj
 0002:00006cd8       ??_C@_06IMKFLFPG@1?$CDQNAN?$AA@ 000000018003ecd8     libucrt:cfout.obj
 0002:00006ce0       ??_C@_06PGGFOGJG@1?$CDSNAN?$AA@ 000000018003ece0     libucrt:cfout.obj
 0002:00006ce8       ??_C@_05PHHOCPM@1?$CDIND?$AA@ 000000018003ece8     libucrt:cfout.obj
 0002:00006f40       ??_C@_1BA@BALFACEM@?$AAC?$AAO?$AAN?$AAO?$AAU?$AAT?$AA$?$AA?$AA@ 000000018003ef40     libucrt:initcon.obj
 0002:00006f50       __log10_256_lead           000000018003ef50     libucrt:log10_256_lead_tail_table.obj
 0002:00007760       __log10_256_tail           000000018003f760     libucrt:log10_256_lead_tail_table.obj
 0002:00007f70       __log_F_inv_qword          000000018003ff70     libucrt:log_f_inv_qword_table.obj
 0002:00008780       ??_C@_1BK@DBDEIDLH@?$AAK?$AAE?$AAR?$AAN?$AAE?$AAL?$AA3?$AA2?$AA?4?$AAD?$AAL?$AAL@ 0000000180040780     DelayImp:delayhlp.obj
 0002:000087a0       ??_C@_0BI@OMNLIJDB@AcquireSRWLockExclusive@ 00000001800407a0     DelayImp:delayhlp.obj
 0002:000087b8       ??_C@_0BI@HMIEPCNJ@ReleaseSRWLockExclusive@ 00000001800407b8     DelayImp:delayhlp.obj
 0002:000087d0       __pfnDliFailureHook2       00000001800407d0     DelayImp:delayhk1.obj
 0002:000087e0       _load_config_used          00000001800407e0     LIBCMT:loadcfg.obj
 0002:000088f0       ??_C@_1HG@ENANBLHN@?$AAF?$AA?3?$AA?2?$AAU?$AAs?$AAe?$AAr?$AAs?$AA?2?$AAU?$AAs?$AAu?$AAa?$AAr?$AAi@ 00000001800408f0     binding.obj
 0002:00008970       ??_C@_1FM@LOELJOFK@?$AAs?$AAi?$AAz?$AAe?$AA?5?$AA?$DM?$AA?$DN?$AA?5?$AAi?$AAm?$AAp?$AA?3?$AA?3?$AAk?$AAM@ 0000000180040970     binding.obj
 0002:000089cc       ??_C@_06HJNGGFGI@vendor@   00000001800409cc     binding.obj
 0002:000089d8       ??_C@_08PAMBCCJ@channels@  00000001800409d8     binding.obj
 0002:000089e8       ??_C@_0L@FCPFAJBH@sampleRate@ 00000001800409e8     binding.obj
 0002:000089f8       ??_C@_08OMBIDMCD@bitDepth@ 00000001800409f8     binding.obj
 0002:00008a04       ??_C@_05KNFBNCOH@float@    0000000180040a04     binding.obj
 0002:00008a0c       ??_C@_06CPIODIKA@signed@   0000000180040a0c     binding.obj
 0002:00008a18       ??_C@_07CPCPJPKL@version@  0000000180040a18     binding.obj
 0002:00008a20       ??_C@_0N@LAKPFGEC@bitrateUpper@ 0000000180040a20     binding.obj
 0002:00008a30       ??_C@_0P@BACKDJGM@bitrateNominal@ 0000000180040a30     binding.obj
 0002:00008a40       ??_C@_0N@OLBBDNPL@bitrateLower@ 0000000180040a40     binding.obj
 0002:00008a50       ??_C@_0O@DIMIFMAE@bitrateWindow@ 0000000180040a50     binding.obj
 0002:00008a60       ??_C@_0BA@KEENCHNI@nan?3AsyncWorker@ 0000000180040a60     binding.obj
 0002:00008a70       ??_C@_0BD@DOBOAEDD@sizeof_vorbis_info@ 0000000180040a70     binding.obj
 0002:00008a88       ??_C@_0BG@JKBMEKKG@sizeof_vorbis_comment@ 0000000180040a88     binding.obj
 0002:00008aa0       ??_C@_0BI@MNFEIFAG@sizeof_vorbis_dsp_state@ 0000000180040aa0     binding.obj
 0002:00008ab8       ??_C@_0BE@FNPCNIDD@sizeof_vorbis_block@ 0000000180040ab8     binding.obj
 0002:00008ad0       ??_C@_0BC@JFKMBHLF@sizeof_ogg_packet@ 0000000180040ad0     binding.obj
 0002:00008ae8       ??_C@_08NAKNBADM@OV_FALSE@ 0000000180040ae8     binding.obj
 0002:00008af4       ??_C@_06MBGLBMJA@OV_EOF@   0000000180040af4     binding.obj
 0002:00008b00       ??_C@_07IIMHACHP@OV_HOLE@  0000000180040b00     binding.obj
 0002:00008b08       ??_C@_08KMIIGBF@OV_EREAD@  0000000180040b08     binding.obj
 0002:00008b18       ??_C@_09PKPMDAA@OV_EFAULT@ 0000000180040b18     binding.obj
 0002:00008b28       ??_C@_08NHBELCG@OV_EIMPL@  0000000180040b28     binding.obj
 0002:00008b38       ??_C@_09OENPECOA@OV_EINVAL@ 0000000180040b38     binding.obj
 0002:00008b48       ??_C@_0O@KNKILEL@OV_ENOTVORBIS@ 0000000180040b48     binding.obj
 0002:00008b58       ??_C@_0O@CAMPDPCC@OV_EBADHEADER@ 0000000180040b58     binding.obj
 0002:00008b68       ??_C@_0M@MCGDJOEC@OV_EVERSION@ 0000000180040b68     binding.obj
 0002:00008b78       ??_C@_0N@DDLJJBOE@OV_ENOTAUDIO@ 0000000180040b78     binding.obj
 0002:00008b88       ??_C@_0O@JLJGELCN@OV_EBADPACKET@ 0000000180040b88     binding.obj
 0002:00008b98       ??_C@_0M@IFFHPKCH@OV_EBADLINK@ 0000000180040b98     binding.obj
 0002:00008ba8       ??_C@_0L@PFMLGFHH@OV_ENOSEEK@ 0000000180040ba8     binding.obj
 0002:00008bb8       ??_C@_0BB@NMNJJEKC@vorbis_info_init@ 0000000180040bb8     binding.obj
 0002:00008bd0       ??_C@_0BE@FJHLCKLH@vorbis_comment_init@ 0000000180040bd0     binding.obj
 0002:00008be8       ??_C@_0BG@KNJIJGAJ@vorbis_synthesis_init@ 0000000180040be8     binding.obj
 0002:00008c00       ??_C@_0BF@IAOHONPG@vorbis_analysis_init@ 0000000180040c00     binding.obj
 0002:00008c18       ??_C@_0BC@BKIJOCLE@vorbis_block_init@ 0000000180040c18     binding.obj
 0002:00008c30       ??_C@_0BH@KFCHJHHO@vorbis_encode_init_vbr@ 0000000180040c30     binding.obj
 0002:00008c48       ??_C@_0BK@MOEMMLE@vorbis_analysis_headerout@ 0000000180040c48     binding.obj
 0002:00008c68       ??_C@_0BG@NABIDGEO@vorbis_analysis_write@ 0000000180040c68     binding.obj
 0002:00008c80       ??_C@_0BJ@NHANMFHK@vorbis_analysis_blockout@ 0000000180040c80     binding.obj
 0002:00008ca0       ??_C@_0BE@CONLKHOE@vorbis_analysis_eos@ 0000000180040ca0     binding.obj
 0002:00008cb8       ??_C@_0BA@GEFNLHDC@vorbis_analysis@ 0000000180040cb8     binding.obj
 0002:00008cc8       ??_C@_0BI@JJLDKOPP@vorbis_bitrate_addblock@ 0000000180040cc8     binding.obj
 0002:00008ce0       ??_C@_0BL@OAPEDOCH@vorbis_bitrate_flushpacket@ 0000000180040ce0     binding.obj
 0002:00008d00       ??_C@_0BK@CJFHLONL@vorbis_synthesis_idheader@ 0000000180040d00     binding.obj
 0002:00008d20       ??_C@_0BK@MDNNDGMK@vorbis_synthesis_headerin@ 0000000180040d20     binding.obj
 0002:00008d40       ??_C@_0BB@KDHFLKCL@vorbis_synthesis@ 0000000180040d40     binding.obj
 0002:00008d58       ??_C@_0BJ@EICNGOLM@vorbis_synthesis_blockin@ 0000000180040d58     binding.obj
 0002:00008d78       ??_C@_0BI@ONIHIKHE@vorbis_synthesis_pcmout@ 0000000180040d78     binding.obj
 0002:00008d90       ??_C@_0O@LCEKGCKB@comment_array@ 0000000180040d90     binding.obj
 0002:00008da0       ??_C@_0L@KCMMDEOL@get_format@ 0000000180040da0     binding.obj
 0002:00008db0       ??_C@_0DD@IPGFNHPC@F?3?2Users?2Usuario?2Nodejs?2node?9vo@ 0000000180040db0     binding.obj
 0002:00008de4       ??_C@_06EFKACOKC@vorbis@   0000000180040de4     binding.obj
 0002:00008df0       ??_7AsyncWorker@Nan@@6B@   0000000180040df0     binding.obj
 0002:00008e20       ??_7SynthesisIdheaderWorker@nodevorbis@@6B@ 0000000180040e20     binding.obj
 0002:00008e50       ??_7BitrateFlushpacketWorker@nodevorbis@@6B@ 0000000180040e50     binding.obj
 0002:00008e80       ??_7AnalysisWriteWorker@nodevorbis@@6B@ 0000000180040e80     binding.obj
 0002:00008eb0       ??_7AnalysisBlockoutWorker@nodevorbis@@6B@ 0000000180040eb0     binding.obj
 0002:00008ee0       ??_7SynthesisHeaderinWorker@nodevorbis@@6B@ 0000000180040ee0     binding.obj
 0002:00008f10       ??_C@_08JDDNMFDB@node?4exe@ 0000000180040f10     win_delay_load_hook.obj
 0002:00008f20       __pfnDliNotifyHook2        0000000180040f20     win_delay_load_hook.obj
 0002:00008f28       _residue_P                 0000000180040f28     libvorbis:registry.obj
 0002:00008f40       _floor_P                   0000000180040f40     libvorbis:registry.obj
 0002:00008f50       _mapping_P                 0000000180040f50     libvorbis:registry.obj
 0002:00016e80       floor0_exportbundle        000000018004ee80     libvorbis:floor0.obj
 0002:00016eb8       mapping0_exportbundle      000000018004eeb8     libvorbis:mapping0.obj
 0002:00016ee0       residue2_exportbundle      000000018004eee0     libvorbis:res0.obj
 0002:00016f20       residue0_exportbundle      000000018004ef20     libvorbis:res0.obj
 0002:00016f60       residue1_exportbundle      000000018004ef60     libvorbis:res0.obj
 0002:00016fa0       floor1_exportbundle        000000018004efa0     libvorbis:floor1.obj
 0002:00182b24       ??_C@_01NEMOKFLO@?$DN@     00000001801bab24     libvorbis:info.obj
 0002:00182b28       ??_C@_0CM@NHBMDKAB@Xiph?4Org?5libVorbis?5I?520120203?5?$CI@ 00000001801bab28     libvorbis:info.obj
 0002:00182b58       ??_C@_0BJ@EJIKMOLF@Xiph?4Org?5libVorbis?51?43?43@ 00000001801bab58     libvorbis:info.obj
 0002:00182b74       __real@329ee9ee            00000001801bab74     libvorbis:floor0.obj
 0002:00182b78       __real@3540a8c1            00000001801bab78     libvorbis:mapping0.obj
 0002:00182b7c       __real@38d1b717            00000001801bab7c     libvorbis:floor0.obj
 0002:00182b80       __real@3a41fc8f            00000001801bab80     libvorbis:floor0.obj
 0002:00182b88       __real@3ddb7cdfd9d7bdbb    00000001801bab88     libvorbis:lpc.obj
 0002:00182b90       __real@3e112e0be826d695    00000001801bab90     libvorbis:lpc.obj
 0002:00182b98       __real@3e7ad7f29abcaf48    00000001801bab98     libvorbisenc:vorbisenc.obj
 0002:00182ba0       __real@3e800000            00000001801baba0     libvorbis:psy.obj
 0002:00182ba4       __real@3ec3ef15            00000001801baba4     libvorbis:mdct.obj
 0002:00182ba8       __real@3f000000            00000001801baba8     libvorbis:lsp.obj
 0002:00182bb0       __real@3f33a92a30553261    00000001801babb0     libvorbis:psy.obj
 0002:00182bb8       __real@3f3504f3            00000001801babb8     libvorbis:smallft.obj
 0002:00182bc0       __real@3f50624dd2f1a9fc    00000001801babc0     libvorbisenc:vorbisenc.obj
 0002:00182bc8       __real@3f6c835e            00000001801babc8     libvorbis:mdct.obj
 0002:00182bd0       __real@3f747ae147ae147b    00000001801babd0     libvorbis:psy.obj
 0002:00182bd8       __real@3f7ff972            00000001801babd8     libvorbisenc:vorbisenc.obj
 0002:00182bdc       __real@3f800000            00000001801babdc     libvorbis:smallft.obj
 0002:00182be0       __real@3fb0000000000000    00000001801babe0     libvorbis:envelope.obj
 0002:00182be8       __real@3fb99999a0000000    00000001801babe8     libvorbis:psy.obj
 0002:00182bf0       __real@3fbd791c40000000    00000001801babf0     libvorbis:lsp.obj
 0002:00182bf8       __real@3fc0000000000000    00000001801babf8     libvorbis:psy.obj
 0002:00182c00       __real@3fc999999999999a    00000001801bac00     libvorbis:envelope.obj
 0002:00182c08       __real@3fd6147ae147ae14    00000001801bac08     libvorbis:mapping0.obj
 0002:00182c10       __real@3fe0000000000000    00000001801bac10     libvorbis:floor1.obj
 0002:00182c18       __real@3fe62e42a0000000    00000001801bac18     libvorbis:psy.obj
 0002:00182c20       __real@3fe6666666666666    00000001801bac20     libvorbis:envelope.obj
 0002:00182c28       __real@3feccccccccccccd    00000001801bac28     libvorbisenc:vorbisenc.obj
 0002:00182c30       __real@3fefae147ae147ae    00000001801bac30     libvorbis:lpc.obj
 0002:00182c38       __real@3ff0000000000000    00000001801bac38     libvorbisenc:vorbisenc.obj
 0002:00182c40       __real@3ff000000006df38    00000001801bac40     libvorbis:lpc.obj
 0002:00182c48       __real@3ff7154760000000    00000001801bac48     libvorbis:psy.obj
 0002:00182c50       __real@3fff000000000000    00000001801bac50     libvorbis:psy.obj
 0002:00182c58       __real@40000000            00000001801bac58     libvorbis:lsp.obj
 0002:00182c60       __real@4000000000000000    00000001801bac60     libvorbis:mdct.obj
 0002:00182c68       __real@4000800000000000    00000001801bac68     libvorbis:psy.obj
 0002:00182c70       __real@4001eb8520000000    00000001801bac70     libvorbis:floor0.obj
 0002:00182c78       __real@400921fb60000000    00000001801bac78     libvorbis:envelope.obj
 0002:00182c80       __real@4017dcf680000000    00000001801bac80     libvorbis:psy.obj
 0002:00182c88       __real@4020000000000000    00000001801bac88     libvorbis:envelope.obj
 0002:00182c90       __real@4024000000000000    00000001801bac90     libvorbis:psy.obj
 0002:00182c98       __real@402a333340000000    00000001801bac98     libvorbis:floor0.obj
 0002:00182ca0       __real@402e000000000000    00000001801baca0     libvorbis:bitrate.obj
 0002:00182ca8       __real@403e000000000000    00000001801baca8     libvorbis:psy.obj
 0002:00182cb0       __real@40490fdb            00000001801bacb0     libvorbis:lsp.obj
 0002:00182cb8       __real@4059000000000000    00000001801bacb8     libvorbis:psy.obj
 0002:00182cc0       __real@405fc00000000000    00000001801bacc0     libvorbis:envelope.obj
 0002:00182cc8       __real@406f400000000000    00000001801bacc8     libvorbisenc:vorbisenc.obj
 0002:00182cd0       __real@40800000            00000001801bacd0     libvorbis:lsp.obj
 0002:00182cd8       __real@408f400000000000    00000001801bacd8     libvorbisenc:vorbisenc.obj
 0002:00182ce0       __real@40c00000            00000001801bace0     libvorbisenc:vorbisenc.obj
 0002:00182ce4       __real@40c90fdb            00000001801bace4     libvorbis:smallft.obj
 0002:00182ce8       __real@40ea0ea1            00000001801bace8     libvorbis:floor1.obj
 0002:00182cec       __real@41000000            00000001801bacec     libvorbis:psy.obj
 0002:00182cf0       __real@41800000            00000001801bacf0     libvorbis:psy.obj
 0002:00182cf4       __real@430c0000            00000001801bacf4     libvorbis:psy.obj
 0002:00182cf8       __real@443f2770            00000001801bacf8     libvorbis:mapping0.obj
 0002:00182cfc       __real@4479c000            00000001801bacfc     libvorbis:psy.obj
 0002:00182d00       __real@447fe000            00000001801bad00     libvorbis:floor1.obj
 0002:00182d04       __real@47c34f80            00000001801bad04     libvorbis:envelope.obj
 0002:00182d08       __real@bf3504f3            00000001801bad08     libvorbis:smallft.obj
 0002:00182d0c       __real@bf800000            00000001801bad0c     libvorbis:psy.obj
 0002:00182d10       __real@bfe0000000000000    00000001801bad10     libvorbis:mdct.obj
 0002:00182d18       __real@bff0000000000000    00000001801bad18     libvorbisenc:vorbisenc.obj
 0002:00182d20       __real@c054000000000000    00000001801bad20     libvorbisenc:vorbisenc.obj
 0002:00182d28       __real@c069000000000000    00000001801bad28     libvorbisenc:vorbisenc.obj
 0002:00182d30       __real@c0f869f000000000    00000001801bad30     libvorbisenc:vorbisenc.obj
 0002:00182d38       __real@c189999a            00000001801bad38     libvorbis:psy.obj
 0002:00182d3c       __real@c1f00000            00000001801bad3c     libvorbis:psy.obj
 0002:00182d40       __real@c3480000            00000001801bad40     libvorbis:psy.obj
 0002:00182d44       __real@c479c000            00000001801bad44     libvorbis:psy.obj
 0002:00182d48       __real@c61c3c00            00000001801bad48     libvorbis:psy.obj
 0002:00182d4c       __real@c7c34f80            00000001801bad4c     libvorbis:envelope.obj
 0002:00182d50       __xmm@00000000000000d100000000000000d1 00000001801bad50     libvorbis:floor1.obj
 0002:00182d60       __xmm@00000001000000010000000100000001 00000001801bad60     libvorbis:sharedbook.obj
 0002:00182d70       __xmm@00000003000000020000000100000000 00000001801bad70     libvorbis:floor1.obj
 0002:00182d80       __xmm@00007fff00007fff00007fff00007fff 00000001801bad80     libvorbis:floor1.obj
 0002:00182d90       __xmm@00008000000080000000800000008000 00000001801bad90     libvorbis:floor1.obj
 0002:00182da0       __xmm@00010000000100000001000000010000 00000001801bada0     libvorbis:floor1.obj
 0002:00182db0       __xmm@403e000000000000403e000000000000 00000001801badb0     libvorbis:psy.obj
 0002:00182dc0       __xmm@40590000000000004059000000000000 00000001801badc0     libvorbis:psy.obj
 0002:00182dd0       __xmm@41200000412000004120000041200000 00000001801badd0     libvorbis:psy.obj
 0002:00182de0       __xmm@7fffffff7fffffff7fffffff7fffffff 00000001801bade0     libvorbis:psy.obj
 0002:00182df0       __xmm@7fffffffffffffff7fffffffffffffff 00000001801badf0     libvorbis:psy.obj
 0002:00182e00       __xmm@80000000000000008000000000000000 00000001801bae00     libvorbis:mdct.obj
 0002:00182e10       __xmm@80000000800000008000000080000000 00000001801bae10     libvorbis:smallft.obj
 0002:00182e20       __xmm@ffffffffffffffffffffffffffffffff 00000001801bae20     libvorbis:floor1.obj
 0002:00182e30       __real@3c7007887af0cbbc    00000001801bae30     libucrt:atan.obj
 0002:00182e38       __real@3c7a2b7f222f65e0    00000001801bae38     libucrt:atan.obj
 0002:00182e40       __real@3c81a62633145c06    00000001801bae40     libucrt:atan.obj
 0002:00182e48       __real@3c91a62633145c06    00000001801bae48     libucrt:atan.obj
 0002:00182e50       __real@3f22a75ce41b9f87    00000001801bae50     libucrt:atan.obj
 0002:00182e58       __real@3f9f2d2116f053f2    00000001801bae58     libucrt:atan.obj
 0002:00182e60       __real@3fa3f197f1e85ed9    00000001801bae60     libucrt:atan.obj
 0002:00182e68       __real@3fcc3de43db425c0    00000001801bae68     libucrt:atan.obj
 0002:00182e70       __real@3fd12bcb0a9169f3    00000001801bae70     libucrt:atan.obj
 0002:00182e78       __real@3fdb2cb05bf9beff    00000001801bae78     libucrt:atan.obj
 0002:00182e80       __real@3fdca6be4c993b3c    00000001801bae80     libucrt:atan.obj
 0002:00182e88       __real@3fddac670561bb4f    00000001801bae88     libucrt:atan.obj
 0002:00182e90       __real@3fe921fb54442d18    00000001801bae90     libucrt:atan.obj
 0002:00182e98       __real@3fe9c1b08fda1eec    00000001801bae98     libucrt:atan.obj
 0002:00182ea0       __real@3fef730bd281f69b    00000001801baea0     libucrt:atan.obj
 0002:00182ea8       __real@3ff699c644c48d2e    00000001801baea8     libucrt:atan.obj
 0002:00182eb0       __real@3ff8000000000000    00000001801baeb0     libucrt:atan.obj
 0002:00182eb8       __real@3ff921fb54442d18    00000001801baeb8     libucrt:atan.obj
 0002:00182ec0       __real@3ffd372a17cdf5a0    00000001801baec0     libucrt:atan.obj
 0002:00182ec8       __real@43d0dc0000000000    00000001801baec8     libucrt:atan.obj
 0002:00182ed0       __real@bff921fb54442d18    00000001801baed0     libucrt:atan.obj
 0002:00184760       __Lcosarray                00000001801bc760     libucrt:lsincos_array.obj
 0002:001847c0       __Lsinarray                00000001801bc7c0     libucrt:lsincos_array.obj
 0002:00184b40       __two_to_jby64_table       00000001801bcb40     libucrt:two_to_jby64_table.obj
 0002:00184d40       __two_to_jby64_head_table  00000001801bcd40     libucrt:two_to_jby64_head_tail_table.obj
 0002:00184f40       __two_to_jby64_tail_table  00000001801bcf40     libucrt:two_to_jby64_head_tail_table.obj
 0002:00185140       __log_256_lead             00000001801bd140     libucrt:log_256_lead_tail_table.obj
 0002:00185950       __log_256_tail             00000001801bd950     libucrt:log_256_lead_tail_table.obj
 0002:00186160       __L_2_by_pi_bits           00000001801be160     libucrt:l2_by_pi_bits.obj
 0002:00186270       ??_R4exception@std@@6B@    00000001801be270     LIBCMT:throw_bad_alloc.obj
 0002:00186298       ??_R3exception@std@@8      00000001801be298     LIBCMT:throw_bad_alloc.obj
 0002:001862b0       ??_R2exception@std@@8      00000001801be2b0     LIBCMT:throw_bad_alloc.obj
 0002:001862c0       ??_R1A@?0A@EA@exception@std@@8 00000001801be2c0     LIBCMT:throw_bad_alloc.obj
 0002:001862e8       ??_R4bad_alloc@std@@6B@    00000001801be2e8     LIBCMT:throw_bad_alloc.obj
 0002:00186310       ??_R3bad_alloc@std@@8      00000001801be310     LIBCMT:throw_bad_alloc.obj
 0002:00186328       ??_R2bad_alloc@std@@8      00000001801be328     LIBCMT:throw_bad_alloc.obj
 0002:00186340       ??_R1A@?0A@EA@bad_alloc@std@@8 00000001801be340     LIBCMT:throw_bad_alloc.obj
 0002:00186368       ??_R4bad_array_new_length@std@@6B@ 00000001801be368     LIBCMT:throw_bad_alloc.obj
 0002:00186390       ??_R3bad_array_new_length@std@@8 00000001801be390     LIBCMT:throw_bad_alloc.obj
 0002:001863a8       ??_R2bad_array_new_length@std@@8 00000001801be3a8     LIBCMT:throw_bad_alloc.obj
 0002:001863c8       ??_R1A@?0A@EA@bad_array_new_length@std@@8 00000001801be3c8     LIBCMT:throw_bad_alloc.obj
 0002:001863f0       ??_R4type_info@@6B@        00000001801be3f0     LIBCMT:std_type_info_static.obj
 0002:00186418       ??_R3type_info@@8          00000001801be418     LIBCMT:std_type_info_static.obj
 0002:00186430       ??_R2type_info@@8          00000001801be430     LIBCMT:std_type_info_static.obj
 0002:00186440       ??_R1A@?0A@EA@type_info@@8 00000001801be440     LIBCMT:std_type_info_static.obj
 0002:00186820       __rtc_iaa                  00000001801be820     LIBCMT:initsect.obj
 0002:00186828       __rtc_izz                  00000001801be828     LIBCMT:initsect.obj
 0002:00186830       __rtc_taa                  00000001801be830     LIBCMT:initsect.obj
 0002:00186838       __rtc_tzz                  00000001801be838     LIBCMT:initsect.obj
 0002:00189068       _TI2?AVbad_alloc@std@@     00000001801c1068     LIBCMT:throw_bad_alloc.obj
 0002:00189088       _CTA2?AVbad_alloc@std@@    00000001801c1088     LIBCMT:throw_bad_alloc.obj
 0002:001890a0       _CT??_R0?AVbad_alloc@std@@@8??0bad_alloc@std@@QEAA@AEBV01@@Z24 00000001801c10a0     LIBCMT:throw_bad_alloc.obj
 0002:001890c8       _CT??_R0?AVexception@std@@@8??0exception@std@@QEAA@AEBV01@@Z24 00000001801c10c8     LIBCMT:throw_bad_alloc.obj
 0002:001890f0       _TI3?AVbad_array_new_length@std@@ 00000001801c10f0     LIBCMT:throw_bad_alloc.obj
 0002:00189110       _CTA3?AVbad_array_new_length@std@@ 00000001801c1110     LIBCMT:throw_bad_alloc.obj
 0002:00189130       _CT??_R0?AVbad_array_new_length@std@@@8??0bad_array_new_length@std@@QEAA@AEBV01@@Z24 00000001801c1130     LIBCMT:throw_bad_alloc.obj
 0002:00189154       __DELAY_IMPORT_DESCRIPTOR_node_exe 00000001801c1154     node:node.exe
 0002:00189174       __NULL_DELAY_IMPORT_DESCRIPTOR 00000001801c1174     node:node.exe
 0002:001892f8       \177node_NULL_THUNK_DATA_DLN 00000001801c12f8     node:node.exe
 0002:00189f90       \177node_NULL_THUNK_DATA_DLB 00000001801c1f90     node:node.exe
 0002:0018a140       __IMPORT_DESCRIPTOR_KERNEL32 00000001801c2140     kernel32:KERNEL32.dll
 0002:0018a154       __IMPORT_DESCRIPTOR_ogg    00000001801c2154     ogg:ogg.node
 0002:0018a168       __NULL_IMPORT_DESCRIPTOR   00000001801c2168     kernel32:KERNEL32.dll
 0003:00000000       __security_cookie_complement 00000001801c3000     LIBCMT:gs_cookie.obj
 0003:00000008       __security_cookie          00000001801c3008     LIBCMT:gs_cookie.obj
 0003:00000010       __scrt_native_dllmain_reason 00000001801c3010     LIBCMT:utility.obj
 0003:00000018       __isa_available            00000001801c3018     LIBCMT:cpu_disp.obj
 0003:0000001c       __isa_enabled              00000001801c301c     LIBCMT:cpu_disp.obj
 0003:00000020       __memcpy_nt_iters          00000001801c3020     LIBCMT:cpu_disp.obj
 0003:00000028       __memset_nt_iters          00000001801c3028     LIBCMT:cpu_disp.obj
 0003:00000040       __abort_behavior           00000001801c3040     libucrt:abort.obj
 0003:00000060       _iob                       00000001801c3060     libucrt:_file.obj
 0003:00000170       __acrt_initial_locale_data 00000001801c3170     libucrt:nlsdata.obj
 0003:000002c8       __acrt_initial_locale_pointers 00000001801c32c8     libucrt:nlsdata.obj
 0003:000002d8       __acrt_wide_c_locale_string 00000001801c32d8     libucrt:nlsdata.obj
 0003:000002e0       _pwctype                   00000001801c32e0     libucrt:ctype.obj
 0003:00000600       __acrt_initial_multibyte_data 00000001801c3600     libucrt:mbctype.obj
 0003:00000830       __badioinfo                00000001801c3830     libucrt:ioinit.obj
 0003:00000878       __globallocalestatus       00000001801c3878     libucrt:glstatus.obj
 0003:00000880       __acrt_lconv_c             00000001801c3880     libucrt:localeconv.obj
 0003:00000918       __acrt_lconv_static_decimal 00000001801c3918     libucrt:localeconv.obj
 0003:0000091c       __acrt_lconv_static_W_decimal 00000001801c391c     libucrt:localeconv.obj
 0003:00000920       _lookuptrailbytes          00000001801c3920     libucrt:read.obj
 0003:00000a30       _fltused                   00000001801c3a30     LIBCMT:fltused.obj
 0003:00000ac0       ??_R0?AVbad_alloc@std@@@8  00000001801c3ac0     LIBCMT:throw_bad_alloc.obj
 0003:00000ae8       ??_R0?AVexception@std@@@8  00000001801c3ae8     LIBCMT:throw_bad_alloc.obj
 0003:00000b10       ??_R0?AVbad_array_new_length@std@@@8 00000001801c3b10     LIBCMT:throw_bad_alloc.obj
 0003:00000b40       ??_R0?AVtype_info@@@8      00000001801c3b40     LIBCMT:std_type_info_static.obj
 0003:00000b60       __imp_uv_queue_work        00000001801c3b60     node:node.exe
 0003:00000b68       __imp_?Global@Context@v8@@QEAA?AV?$Local@VObject@v8@@@2@XZ 00000001801c3b68     node:node.exe
 0003:00000b70       __imp_?Value@External@v8@@QEBAPEAXXZ 00000001801c3b70     node:node.exe
 0003:00000b78       __imp_?New@External@v8@@SA?AV?$Local@VExternal@v8@@@2@PEAVIsolate@2@PEAX@Z 00000001801c3b78     node:node.exe
 0003:00000b80       __imp_?New@Integer@v8@@SA?AV?$Local@VInteger@v8@@@2@PEAVIsolate@2@H@Z 00000001801c3b80     node:node.exe
 0003:00000b88       __imp_?GetCurrentContext@Isolate@v8@@QEAA?AV?$Local@VContext@v8@@@2@XZ 00000001801c3b88     node:node.exe
 0003:00000b90       __imp_?GetCurrent@Isolate@v8@@SAPEAV12@XZ 00000001801c3b90     node:node.exe
 0003:00000b98       __imp_?CreateHandle@HandleScope@v8@@KAPEAPEAVObject@internal@2@PEAVIsolate@42@PEAV342@@Z 00000001801c3b98     node:node.exe
 0003:00000ba0       __imp_?CreateHandle@HandleScope@v8@@CAPEAPEAVObject@internal@2@PEAVHeapObject@42@PEAV342@@Z 00000001801c3ba0     node:node.exe
 0003:00000ba8       __imp_??1HandleScope@v8@@QEAA@XZ 00000001801c3ba8     node:node.exe
 0003:00000bb0       __imp_??0HandleScope@v8@@QEAA@PEAVIsolate@1@@Z 00000001801c3bb0     node:node.exe
 0003:00000bb8       __imp_?Error@Exception@v8@@SA?AV?$Local@VValue@v8@@@2@V?$Local@VString@v8@@@2@@Z 00000001801c3bb8     node:node.exe
 0003:00000bc0       __imp_?New@Array@v8@@SA?AV?$Local@VArray@v8@@@2@PEAVIsolate@2@H@Z 00000001801c3bc0     node:node.exe
 0003:00000bc8       __imp_?SetClassName@FunctionTemplate@v8@@QEAAXV?$Local@VString@v8@@@2@@Z 00000001801c3bc8     node:node.exe
 0003:00000bd0       __imp_?GetFunction@FunctionTemplate@v8@@QEAA?AV?$MaybeLocal@VFunction@v8@@@2@V?$Local@VContext@v8@@@2@@Z 00000001801c3bd0     node:node.exe
 0003:00000bd8       __imp_?New@FunctionTemplate@v8@@SA?AV?$Local@VFunctionTemplate@v8@@@2@PEAVIsolate@2@P6AXAEBV?$FunctionCallbackInfo@VValue@v8@@@2@@ZV?$Local@VValue@v8@@@2@V?$Local@VSignature@v8@@@2@HW4ConstructorBehavior@2@W4SideEffectType@2@@Z 00000001801c3bd8     node:node.exe
 0003:00000be0       __imp_?ToLocalEmpty@V8@v8@@CAXXZ 00000001801c3be0     node:node.exe
 0003:00000be8       __imp_?DisposeGlobal@V8@v8@@CAXPEAPEAVObject@internal@2@@Z 00000001801c3be8     node:node.exe
 0003:00000bf0       __imp_?GlobalizeReference@V8@v8@@CAPEAPEAVObject@internal@2@PEAVIsolate@42@PEAPEAV342@@Z 00000001801c3bf0     node:node.exe
 0003:00000bf8       __imp_?Int32Value@Value@v8@@QEBAHXZ 00000001801c3bf8     node:node.exe
 0003:00000c00       __imp_?IntegerValue@Value@v8@@QEBA_JXZ 00000001801c3c00     node:node.exe
 0003:00000c08       __imp_?NumberValue@Value@v8@@QEBANXZ 00000001801c3c08     node:node.exe
 0003:00000c10       __imp_?ToInteger@Value@v8@@QEBA?AV?$MaybeLocal@VInteger@v8@@@2@V?$Local@VContext@v8@@@2@@Z 00000001801c3c10     node:node.exe
 0003:00000c18       __imp_?Escape@EscapableHandleScope@v8@@AEAAPEAPEAVObject@internal@2@PEAPEAV342@@Z 00000001801c3c18     node:node.exe
 0003:00000c20       __imp_??0EscapableHandleScope@v8@@QEAA@PEAVIsolate@1@@Z 00000001801c3c20     node:node.exe
 0003:00000c28       __imp_?NewFromUtf8@String@v8@@SA?AV?$MaybeLocal@VString@v8@@@2@PEAVIsolate@2@PEBDW4NewStringType@2@H@Z 00000001801c3c28     node:node.exe
 0003:00000c30       __imp_?New@Number@v8@@SA?AV?$Local@VNumber@v8@@@2@PEAVIsolate@2@N@Z 00000001801c3c30     node:node.exe
 0003:00000c38       __imp_?SlowGetInternalField@Object@v8@@AEAA?AV?$Local@VValue@v8@@@2@H@Z 00000001801c3c38     node:node.exe
 0003:00000c40       __imp_?New@Object@v8@@SA?AV?$Local@VObject@v8@@@2@PEAVIsolate@2@@Z 00000001801c3c40     node:node.exe
 0003:00000c48       __imp_?SetInternalField@Object@v8@@QEAAXHV?$Local@VValue@v8@@@2@@Z 00000001801c3c48     node:node.exe
 0003:00000c50       __imp_?DefineOwnProperty@Object@v8@@QEAA?AV?$Maybe@_N@2@V?$Local@VContext@v8@@@2@V?$Local@VName@v8@@@2@V?$Local@VValue@v8@@@2@W4PropertyAttribute@2@@Z 00000001801c3c50     node:node.exe
 0003:00000c58       __imp_?Set@Object@v8@@QEAA?AV?$Maybe@_N@2@V?$Local@VContext@v8@@@2@V?$Local@VValue@v8@@@2@1@Z 00000001801c3c58     node:node.exe
 0003:00000c60       __imp_?Set@Object@v8@@QEAA?AV?$Maybe@_N@2@V?$Local@VContext@v8@@@2@IV?$Local@VValue@v8@@@2@@Z 00000001801c3c60     node:node.exe
 0003:00000c68       __imp_?SetInternalFieldCount@ObjectTemplate@v8@@QEAAXH@Z 00000001801c3c68     node:node.exe
 0003:00000c70       __imp_?NewInstance@ObjectTemplate@v8@@QEAA?AV?$MaybeLocal@VObject@v8@@@2@V?$Local@VContext@v8@@@2@@Z 00000001801c3c70     node:node.exe
 0003:00000c78       __imp_?New@ObjectTemplate@v8@@SA?AV?$Local@VObjectTemplate@v8@@@2@PEAVIsolate@2@V?$Local@VFunctionTemplate@v8@@@2@@Z 00000001801c3c78     node:node.exe
 0003:00000c80       __imp_?EmitAsyncDestroy@node@@YAXPEAVIsolate@v8@@Uasync_context@1@@Z 00000001801c3c80     node:node.exe
 0003:00000c88       __imp_node_module_register 00000001801c3c88     node:node.exe
 0003:00000c90       __imp_?HasInstance@Buffer@node@@YA_NV?$Local@VValue@v8@@@v8@@@Z 00000001801c3c90     node:node.exe
 0003:00000c98       __imp_?New@Buffer@node@@YA?AV?$MaybeLocal@VObject@v8@@@v8@@PEAVIsolate@4@_K@Z 00000001801c3c98     node:node.exe
 0003:00000ca0       __imp_?Data@Buffer@node@@YAPEADV?$Local@VObject@v8@@@v8@@@Z 00000001801c3ca0     node:node.exe
 0003:00000ca8       __imp_?MakeCallback@node@@YA?AV?$MaybeLocal@VValue@v8@@@v8@@PEAVIsolate@3@V?$Local@VObject@v8@@@3@V?$Local@VFunction@v8@@@3@HPEAV?$Local@VValue@v8@@@3@Uasync_context@1@@Z 00000001801c3ca8     node:node.exe
 0003:00000cb0       __imp_?EmitAsyncInit@node@@YA?AUasync_context@1@PEAVIsolate@v8@@V?$Local@VObject@v8@@@4@V?$Local@VString@v8@@@4@N@Z 00000001801c3cb0     node:node.exe
 0003:00000cb8       __imp_?GetCurrentEventLoop@node@@YAPEAUuv_loop_s@@PEAVIsolate@v8@@@Z 00000001801c3cb8     node:node.exe
 0003:00000cc0       \177node_NULL_THUNK_DATA_DLA 00000001801c3cc0     node:node.exe
 0003:00000cd0       __hmod__node_exe           00000001801c3cd0     node:node.exe
 0003:00001250       ?__type_info_root_node@@3U__type_info_node@@A 00000001801c4250     LIBCMT:tncleanup.obj
 0003:00001260       ?_OptionsStorage@?1??__local_stdio_printf_options@@9@4_KA 00000001801c4260     LIBCMT:default_local_stdio_options.obj
 0003:00001268       ?_OptionsStorage@?1??__local_stdio_scanf_options@@9@4_KA 00000001801c4268     LIBCMT:default_local_stdio_options.obj
 0003:00001270       __scrt_current_native_startup_state 00000001801c4270     LIBCMT:utility.obj
 0003:00001278       __scrt_native_startup_lock 00000001801c4278     LIBCMT:utility.obj
 0003:000012b8       __scrt_debugger_hook_flag  00000001801c42b8     LIBCMT:utility_desktop.obj
 0003:000012bc       __favor                    00000001801c42bc     LIBCMT:cpu_disp.obj
 0003:000012c0       __pPurecall                00000001801c42c0     libvcruntime:purevirt_data.obj
 0003:000012c8       ?__WinRTOutOfMemoryExceptionCallback@@3P6APEAXXZEA 00000001801c42c8     libvcruntime:ehhelpers.obj
 0003:000012d0       ?pArgList@UnDecorator@@0PEAVReplicator@@EA 00000001801c42d0     libvcruntime:undname.obj
 0003:000012d8       ?pZNameList@UnDecorator@@0PEAVReplicator@@EA 00000001801c42d8     libvcruntime:undname.obj
 0003:000012e0       ?pTemplateArgList@UnDecorator@@0PEAVReplicator@@EA 00000001801c42e0     libvcruntime:undname.obj
 0003:000012e8       ?gName@UnDecorator@@0PEBDEB 00000001801c42e8     libvcruntime:undname.obj
 0003:000012f0       ?name@UnDecorator@@0PEBDEB 00000001801c42f0     libvcruntime:undname.obj
 0003:000012f8       ?disableFlags@UnDecorator@@0KA 00000001801c42f8     libvcruntime:undname.obj
 0003:000012fc       ?fExplicitTemplateParams@UnDecorator@@0_NA 00000001801c42fc     libvcruntime:undname.obj
 0003:000012fd       ?fGetTemplateArgumentList@UnDecorator@@0_NA 00000001801c42fd     libvcruntime:undname.obj
 0003:00001300       ?m_pGetParameter@UnDecorator@@0P6APEADJ@ZEA 00000001801c4300     libvcruntime:undname.obj
 0003:00001308       ?m_CHPENameOffset@UnDecorator@@0KA 00000001801c4308     libvcruntime:undname.obj
 0003:0000130c       ?m_recursionLevel@UnDecorator@@0KA 00000001801c430c     libvcruntime:undname.obj
 0003:00001440       ?c_exit_complete@?1???R<lambda_6e4b09c48022b2350581041d5f6b0c4c>@@QEBA@XZ@4_NA 00000001801c4440     libucrt:exit.obj
 0003:00001558       _environ_table             00000001801c4558     libucrt:environment_initialization.obj
 0003:00001560       _wenviron_table            00000001801c4560     libucrt:environment_initialization.obj
 0003:00001568       __dcrt_initial_wide_environment 00000001801c4568     libucrt:environment_initialization.obj
 0003:00001570       __dcrt_initial_narrow_environment 00000001801c4570     libucrt:environment_initialization.obj
 0003:00001578       __acrt_atexit_table        00000001801c4578     libucrt:onexit.obj
 0003:00001590       __acrt_at_quick_exit_table 00000001801c4590     libucrt:onexit.obj
 0003:000015b8       _nstream                   00000001801c45b8     libucrt:_file.obj
 0003:000015c0       __piob                     00000001801c45c0     libucrt:_file.obj
 0003:000015c8       _cflush                    00000001801c45c8     libucrt:_file.obj
 0003:000015f0       __acrt_locale_changed_data 00000001801c45f0     libucrt:wsetlocale.obj
 0003:000015f8       __acrt_current_locale_data 00000001801c45f8     libucrt:nlsdata.obj
 0003:00001840       _mbctype                   00000001801c4840     libucrt:mbctype.obj
 0003:00001848       _mbcasemap                 00000001801c4848     libucrt:mbctype.obj
 0003:00001850       __acrt_current_multibyte_data 00000001801c4850     libucrt:mbctype.obj
 0003:00001860       _pgmptr                    00000001801c4860     libucrt:argv_data.obj
 0003:00001868       __argc                     00000001801c4868     libucrt:argv_data.obj
 0003:00001870       __argv                     00000001801c4870     libucrt:argv_data.obj
 0003:00001878       __wargv                    00000001801c4878     libucrt:argv_data.obj
 0003:00001880       _acmdln                    00000001801c4880     libucrt:argv_data.obj
 0003:00001888       _wcmdln                    00000001801c4888     libucrt:argv_data.obj
 0003:00001a40       __acrt_heap                00000001801c4a40     libucrt:heap_handle.obj
 0003:00001a50       __pioinfo                  00000001801c4a50     libucrt:ioinit.obj
 0003:00001e50       _nhandle                   00000001801c4e50     libucrt:ioinit.obj
 0003:00001e60       __acrt_stdout_buffer       00000001801c4e60     libucrt:_sftbuf.obj
 0003:00001e68       __acrt_stderr_buffer       00000001801c4e68     libucrt:_sftbuf.obj
 0003:00001e80       __acrt_lconv_static_null   00000001801c4e80     libucrt:localeconv.obj
 0003:00001e84       __acrt_lconv_static_W_null 00000001801c4e84     libucrt:localeconv.obj
 0003:00001e98       __fma3_is_available        00000001801c4e98     libucrt:fma3_available.obj
 0003:00001e9c       __use_fma3_lib             00000001801c4e9c     libucrt:fma3_available.obj
 0003:00001ea0       ?DloadKernel32@@3PEAUHINSTANCE__@@EA 00000001801c4ea0     DelayImp:delayhlp.obj
 0003:00001ea8       ?DloadAcquireSRWLockExclusive@@3P6AXPEA_K@ZEA 00000001801c4ea8     DelayImp:delayhlp.obj
 0003:00001eb0       ?DloadReleaseSRWLockExclusive@@3P6AXPEA_K@ZEA 00000001801c4eb0     DelayImp:delayhlp.obj
 0003:00001eb8       ?DloadSrwLock@@3_KA        00000001801c4eb8     DelayImp:delayhlp.obj
 0003:00001ec0       ?DloadSectionLockCount@@3KA 00000001801c4ec0     DelayImp:delayhlp.obj
 0003:00001ec4       ?DloadSectionOldProtection@@3KA 00000001801c4ec4     DelayImp:delayhlp.obj
 0003:00001ec8       ?DloadSectionCommitPermanent@@3KA 00000001801c4ec8     DelayImp:delayhlp.obj
 0003:00001ecc       __scrt_ucrt_dll_is_in_use  00000001801c4ecc     <common>
 0003:00001ed0       __dyn_tls_init_callback    00000001801c4ed0     <common>

 entry point at        0001:00020588

 Static symbols

 0000:ffe32000       .debug$S                   0000000180000000     kernel32:KERNEL32.dll
 0000:ffe32000       .debug$S                   0000000180000000     ogg:ogg.node
 0000:ffe32000       .debug$S                   0000000180000000     kernel32:KERNEL32.dll
 0000:ffe32000       .debug$S                   0000000180000000     ogg:ogg.node
 0000:ffe32000       .debug$S                   0000000180000000     kernel32:KERNEL32.dll
 0000:ffe32000       .debug$S                   0000000180000000     ogg:ogg.node
 0000:ffe32000       .debug$S                   0000000180000000     ogg:ogg.node
 0000:ffe32000       .debug$S                   0000000180000000     kernel32:KERNEL32.dll
 0000:ffe32000       .debug$S                   0000000180000000     ogg:ogg.node
 0000:ffe32000       .debug$S                   0000000180000000     ogg:ogg.node
 0000:ffe32000       .debug$S                   0000000180000000     kernel32:KERNEL32.dll
 0000:ffe32000       .debug$S                   0000000180000000     kernel32:KERNEL32.dll
 0000:ffe32000       .debug$S                   0000000180000000     kernel32:KERNEL32.dll
 0000:ffe32000       .debug$S                   0000000180000000     vorbis.exp
 0000:ffe32000       .debug$S                   0000000180000000     node:node.exe
 0000:ffe32000       .debug$S                   0000000180000000     kernel32:KERNEL32.dll
 0000:ffe32000       .debug$S                   0000000180000000     kernel32:KERNEL32.dll
 0000:ffe32000       .debug$S                   0000000180000000     kernel32:KERNEL32.dll
 0000:ffe32000       .debug$S                   0000000180000000     kernel32:KERNEL32.dll
 0000:ffe32000       .debug$S                   0000000180000000     kernel32:KERNEL32.dll
 0000:ffe32000       .debug$S                   0000000180000000     kernel32:KERNEL32.dll
 0000:ffe32000       .debug$S                   0000000180000000     kernel32:KERNEL32.dll
 0000:ffe32000       .debug$S                   0000000180000000     kernel32:KERNEL32.dll
 0000:ffe32000       .debug$S                   0000000180000000     kernel32:KERNEL32.dll
 0000:ffe32000       .debug$S                   0000000180000000     node:node.exe
 0000:ffe32000       .debug$S                   0000000180000000     kernel32:KERNEL32.dll
 0000:ffe32000       .debug$S                   0000000180000000     kernel32:KERNEL32.dll
 0000:ffe32000       .debug$S                   0000000180000000     kernel32:KERNEL32.dll
 0000:ffe32000       .debug$S                   0000000180000000     kernel32:KERNEL32.dll
 0000:ffe32000       .debug$S                   0000000180000000     kernel32:KERNEL32.dll
 0000:ffe32000       .debug$S                   0000000180000000     kernel32:KERNEL32.dll
 0000:ffe32000       .debug$S                   0000000180000000     kernel32:KERNEL32.dll
 0000:ffe32000       .debug$S                   0000000180000000     kernel32:KERNEL32.dll
 0000:ffe32000       .debug$S                   0000000180000000     kernel32:KERNEL32.dll
 0000:ffe32000       .debug$S                   0000000180000000     kernel32:KERNEL32.dll
 0000:ffe32000       .debug$S                   0000000180000000     kernel32:KERNEL32.dll
 0000:ffe32000       .debug$S                   0000000180000000     kernel32:KERNEL32.dll
 0000:ffe32000       .debug$S                   0000000180000000     kernel32:KERNEL32.dll
 0000:ffe32000       .debug$S                   0000000180000000     kernel32:KERNEL32.dll
 0000:ffe32000       .debug$S                   0000000180000000     kernel32:KERNEL32.dll
 0000:ffe32000       .debug$S                   0000000180000000     kernel32:KERNEL32.dll
 0000:ffe32000       .debug$S                   0000000180000000     kernel32:KERNEL32.dll
 0000:ffe32000       .debug$S                   0000000180000000     node:node.exe
 0000:ffe32000       .debug$S                   0000000180000000     kernel32:KERNEL32.dll
 0000:ffe32000       .debug$S                   0000000180000000     node:node.exe
 0000:ffe32000       .debug$S                   0000000180000000     kernel32:KERNEL32.dll
 0000:ffe32000       .debug$S                   0000000180000000     kernel32:KERNEL32.dll
 0000:ffe32000       .debug$S                   0000000180000000     kernel32:KERNEL32.dll
 0000:ffe32000       .debug$S                   0000000180000000     kernel32:KERNEL32.dll
 0000:ffe32000       .debug$S                   0000000180000000     node:node.exe
 0000:ffe32000       .debug$S                   0000000180000000     node:node.exe
 0000:ffe32000       .debug$S                   0000000180000000     node:node.exe
 0000:ffe32000       .debug$S                   0000000180000000     ogg:ogg.node
 0000:ffe32000       .debug$S                   0000000180000000     node:node.exe
 0000:ffe32000       .debug$S                   0000000180000000     kernel32:KERNEL32.dll
 0000:ffe32000       .debug$S                   0000000180000000     node:node.exe
 0000:ffe32000       .debug$S                   0000000180000000     node:node.exe
 0000:ffe32000       .debug$S                   0000000180000000     node:node.exe
 0000:ffe32000       .debug$S                   0000000180000000     node:node.exe
 0000:ffe32000       .debug$S                   0000000180000000     kernel32:KERNEL32.dll
 0000:ffe32000       .debug$S                   0000000180000000     kernel32:KERNEL32.dll
 0000:ffe32000       .debug$S                   0000000180000000     kernel32:KERNEL32.dll
 0000:ffe32000       .debug$S                   0000000180000000     node:node.exe
 0000:ffe32000       .debug$S                   0000000180000000     kernel32:KERNEL32.dll
 0000:ffe32000       .debug$S                   0000000180000000     node:node.exe
 0000:ffe32000       .debug$S                   0000000180000000     kernel32:KERNEL32.dll
 0000:ffe32000       .debug$S                   0000000180000000     kernel32:KERNEL32.dll
 0000:ffe32000       .debug$S                   0000000180000000     kernel32:KERNEL32.dll
 0000:ffe32000       .debug$S                   0000000180000000     kernel32:KERNEL32.dll
 0000:ffe32000       .debug$S                   0000000180000000     node:node.exe
 0000:ffe32000       .debug$S                   0000000180000000     node:node.exe
 0000:ffe32000       .debug$S                   0000000180000000     node:node.exe
 0000:ffe32000       .debug$S                   0000000180000000     kernel32:KERNEL32.dll
 0000:ffe32000       .debug$S                   0000000180000000     kernel32:KERNEL32.dll
 0000:ffe32000       .debug$S                   0000000180000000     kernel32:KERNEL32.dll
 0000:ffe32000       .debug$S                   0000000180000000     node:node.exe
 0000:ffe32000       .debug$S                   0000000180000000     node:node.exe
 0000:ffe32000       .debug$S                   0000000180000000     kernel32:KERNEL32.dll
 0000:ffe32000       .debug$S                   0000000180000000     kernel32:KERNEL32.dll
 0000:ffe32000       .debug$S                   0000000180000000     kernel32:KERNEL32.dll
 0000:ffe32000       .debug$S                   0000000180000000     kernel32:KERNEL32.dll
 0000:ffe32000       .debug$S                   0000000180000000     node:node.exe
 0000:ffe32000       .debug$S                   0000000180000000     node:node.exe
 0000:ffe32000       .debug$S                   0000000180000000     node:node.exe
 0000:ffe32000       .debug$S                   0000000180000000     node:node.exe
 0000:ffe32000       .debug$S                   0000000180000000     kernel32:KERNEL32.dll
 0000:ffe32000       .debug$S                   0000000180000000     kernel32:KERNEL32.dll
 0000:ffe32000       .debug$S                   0000000180000000     node:node.exe
 0000:ffe32000       .debug$S                   0000000180000000     kernel32:KERNEL32.dll
 0000:ffe32000       .debug$S                   0000000180000000     node:node.exe
 0000:ffe32000       .debug$S                   0000000180000000     node:node.exe
 0000:ffe32000       .debug$S                   0000000180000000     kernel32:KERNEL32.dll
 0000:ffe32000       .debug$S                   0000000180000000     kernel32:KERNEL32.dll
 0000:ffe32000       .debug$S                   0000000180000000     kernel32:KERNEL32.dll
 0000:ffe32000       .debug$S                   0000000180000000     kernel32:KERNEL32.dll
 0000:ffe32000       .debug$S                   0000000180000000     node:node.exe
 0000:ffe32000       .debug$S                   0000000180000000     kernel32:KERNEL32.dll
 0000:ffe32000       .debug$S                   0000000180000000     node:node.exe
 0000:ffe32000       .debug$S                   0000000180000000     node:node.exe
 0000:ffe32000       .debug$S                   0000000180000000     node:node.exe
 0000:ffe32000       .debug$S                   0000000180000000     node:node.exe
 0000:ffe32000       .debug$S                   0000000180000000     kernel32:KERNEL32.dll
 0000:ffe32000       .debug$S                   0000000180000000     kernel32:KERNEL32.dll
 0000:ffe32000       .debug$S                   0000000180000000     node:node.exe
 0000:ffe32000       .debug$S                   0000000180000000     kernel32:KERNEL32.dll
 0000:ffe32000       .debug$S                   0000000180000000     node:node.exe
 0000:ffe32000       .debug$S                   0000000180000000     node:node.exe
 0000:ffe32000       .debug$S                   0000000180000000     node:node.exe
 0000:ffe32000       .debug$S                   0000000180000000     kernel32:KERNEL32.dll
 0000:ffe32000       .debug$S                   0000000180000000     node:node.exe
 0000:ffe32000       .debug$S                   0000000180000000     node:node.exe
 0000:ffe32000       .debug$S                   0000000180000000     node:node.exe
 0000:ffe32000       .debug$S                   0000000180000000     node:node.exe
 0000:ffe32000       .debug$S                   0000000180000000     node:node.exe
 0000:ffe32000       .debug$S                   0000000180000000     node:node.exe
 0000:ffe32000       .debug$S                   0000000180000000     node:node.exe
 0000:ffe32000       .debug$S                   0000000180000000     kernel32:KERNEL32.dll
 0000:ffe32000       .debug$S                   0000000180000000     node:node.exe
 0000:ffe32000       .debug$S                   0000000180000000     node:node.exe
 0000:ffe32000       .debug$S                   0000000180000000     node:node.exe
 0000:ffe32000       .debug$S                   0000000180000000     node:node.exe
 0000:ffe32000       .debug$S                   0000000180000000     kernel32:KERNEL32.dll
 0000:ffe32000       .debug$S                   0000000180000000     node:node.exe
 0000:ffe32000       .debug$S                   0000000180000000     node:node.exe
 0000:ffe32000       .debug$S                   0000000180000000     node:node.exe
 0000:ffe32000       .debug$S                   0000000180000000     node:node.exe
 0000:ffe32000       .debug$S                   0000000180000000     kernel32:KERNEL32.dll
 0000:ffe32000       .debug$S                   0000000180000000     kernel32:KERNEL32.dll
 0000:ffe32000       .debug$S                   0000000180000000     kernel32:KERNEL32.dll
 0000:ffe32000       .debug$S                   0000000180000000     kernel32:KERNEL32.dll
 0000:ffe32000       .debug$S                   0000000180000000     kernel32:KERNEL32.dll
 0000:ffe32000       .debug$S                   0000000180000000     kernel32:KERNEL32.dll
 0000:ffe32000       .debug$S                   0000000180000000     kernel32:KERNEL32.dll
 0000:ffe32000       .debug$S                   0000000180000000     kernel32:KERNEL32.dll
 0000:ffe32000       .debug$S                   0000000180000000     kernel32:KERNEL32.dll
 0000:ffe32000       .debug$S                   0000000180000000     kernel32:KERNEL32.dll
 0000:ffe32000       .debug$S                   0000000180000000     kernel32:KERNEL32.dll
 0000:ffe32000       .debug$S                   0000000180000000     kernel32:KERNEL32.dll
 0000:ffe32000       .debug$S                   0000000180000000     kernel32:KERNEL32.dll
 0000:ffe32000       .debug$S                   0000000180000000     kernel32:KERNEL32.dll
 0000:ffe32000       .debug$S                   0000000180000000     kernel32:KERNEL32.dll
 0000:ffe32000       .debug$S                   0000000180000000     kernel32:KERNEL32.dll
 0000:ffe32000       .debug$S                   0000000180000000     kernel32:KERNEL32.dll
 0000:ffe32000       .debug$S                   0000000180000000     kernel32:KERNEL32.dll
 0000:ffe32000       .debug$S                   0000000180000000     kernel32:KERNEL32.dll
 0000:ffe32000       .debug$S                   0000000180000000     kernel32:KERNEL32.dll
 0000:ffe32000       .debug$S                   0000000180000000     kernel32:KERNEL32.dll
 0000:ffe32000       .debug$S                   0000000180000000     ogg:ogg.node
 0000:ffe32000       .debug$S                   0000000180000000     ogg:ogg.node
 0000:ffe32000       .debug$S                   0000000180000000     ogg:ogg.node
 0000:ffe32000       .debug$S                   0000000180000000     ogg:ogg.node
 0001:00000000       ?FunctionCallbackWrapper@imp@Nan@@YAXAEBV?$FunctionCallbackInfo@VValue@v8@@@v8@@@Z 0000000180001000 f   binding.obj
 0001:00004af0       _register_vorbis           0000000180005af0 f   binding.obj
 0001:00004e10       ?load_exe_hook@@YAP6A_JXZIPEAUDelayLoadInfo@@@Z 0000000180005e10 f   win_delay_load_hook.obj
 0001:00004ee0       _vds_shared_init           0000000180005ee0 f   libvorbis:block.obj
 0001:00005b50       _preextrapolate_helper     0000000180006b50 f   libvorbis:block.obj
 0001:00007030       _vorbis_unpack_comment     0000000180008030 f   libvorbis:info.obj
 0001:00007260       _vorbis_unpack_books       0000000180008260 f   libvorbis:info.obj
 0001:000077e0       _vorbis_pack_comment       00000001800087e0 f   libvorbis:info.obj
 0001:00007950       _vorbis_pack_books         0000000180008950 f   libvorbis:info.obj
 0001:00009580       sort32a                    000000018000a580 f   libvorbis:sharedbook.obj
 0001:00009ef0       _ve_amp                    000000018000aef0 f   libvorbis:envelope.obj
 0001:0000aa30       min_curve                  000000018000ba30 f   libvorbis:psy.obj
 0001:0000aca0       max_curve                  000000018000bca0 f   libvorbis:psy.obj
 0001:0000aea0       setup_tone_curves          000000018000bea0 f   libvorbis:psy.obj
 0001:0000c8b0       seed_curve                 000000018000d8b0 f   libvorbis:psy.obj
 0001:0000ca80       seed_chase                 000000018000da80 f   libvorbis:psy.obj
 0001:0000cc90       max_seeds                  000000018000dc90 f   libvorbis:psy.obj
 0001:0000cdf0       bark_noise_hybridmp        000000018000ddf0 f   libvorbis:psy.obj
 0001:0000e5c0       apsort                     000000018000f5c0 f   libvorbis:psy.obj
 0001:0000e5f0       noise_normalize            000000018000f5f0 f   libvorbis:psy.obj
 0001:0000fc10       mdct_butterfly_8           0000000180010c10 f   libvorbis:mdct.obj
 0001:0000fcf0       mdct_butterfly_16          0000000180010cf0 f   libvorbis:mdct.obj
 0001:0000fe40       mdct_butterfly_32          0000000180010e40 f   libvorbis:mdct.obj
 0001:00010130       mdct_butterfly_first       0000000180011130 f   libvorbis:mdct.obj
 0001:000102f0       mdct_butterfly_generic     00000001800112f0 f   libvorbis:mdct.obj
 0001:000104c0       mdct_butterflies           00000001800114c0 f   libvorbis:mdct.obj
 0001:000105d0       mdct_bitreverse            00000001800115d0 f   libvorbis:mdct.obj
 0001:00010f90       drfti1                     0000000180011f90 f   libvorbis:smallft.obj
 0001:00011210       dradf2                     0000000180012210 f   libvorbis:smallft.obj
 0001:000115c0       dradf4                     00000001800125c0 f   libvorbis:smallft.obj
 0001:00011f60       dradfg                     0000000180012f60 f   libvorbis:smallft.obj
 0001:00013910       drftf1                     0000000180014910 f   libvorbis:smallft.obj
 0001:00014510       decode_packed_entry_number 0000000180015510 f   libvorbis:codebook.obj
 0001:00014abc       $LN42                      0000000180015abc     libvorbis:codebook.obj
 0001:00014ae0       floor0_free_info           0000000180015ae0 f   libvorbis:floor0.obj
 0001:00014b10       floor0_free_look           0000000180015b10 f   libvorbis:floor0.obj
 0001:00014b80       floor0_unpack              0000000180015b80 f   libvorbis:floor0.obj
 0001:00014cb0       floor0_look                0000000180015cb0 f   libvorbis:floor0.obj
 0001:00014d00       floor0_inverse1            0000000180015d00 f   libvorbis:floor0.obj
 0001:00014fb0       floor0_inverse2            0000000180015fb0 f   libvorbis:floor0.obj
 0001:000152c0       mapping0_free_info         00000001800162c0 f   libvorbis:mapping0.obj
 0001:000152f0       mapping0_pack              00000001800162f0 f   libvorbis:mapping0.obj
 0001:000154b0       mapping0_unpack            00000001800164b0 f   libvorbis:mapping0.obj
 0001:00015720       mapping0_forward           0000000180016720 f   libvorbis:mapping0.obj
 0001:00016a50       mapping0_inverse           0000000180017a50 f   libvorbis:mapping0.obj
 0001:000176f0       local_book_besterror       00000001800186f0 f   libvorbis:res0.obj
 0001:00017bc0       _encodepart                0000000180018bc0 f   libvorbis:res0.obj
 0001:00017c80       _01class                   0000000180018c80 f   libvorbis:res0.obj
 0001:00018010       _2class                    0000000180019010 f   libvorbis:res0.obj
 0001:00018220       _01forward                 0000000180019220 f   libvorbis:res0.obj
 0001:000185b0       _01inverse                 00000001800195b0 f   libvorbis:res0.obj
 0001:00019120       floor1_free_info           000000018001a120 f   libvorbis:floor1.obj
 0001:00019150       floor1_free_look           000000018001a150 f   libvorbis:floor1.obj
 0001:00019180       floor1_pack                000000018001a180 f   libvorbis:floor1.obj
 0001:000193a0       icomp                      000000018001a3a0 f   libvorbis:floor1.obj
 0001:000193b0       floor1_unpack              000000018001a3b0 f   libvorbis:floor1.obj
 0001:00019830       floor1_look                000000018001a830 f   libvorbis:floor1.obj
 0001:00019c10       render_line                000000018001ac10 f   libvorbis:floor1.obj
 0001:00019ed0       accumulate_fit             000000018001aed0 f   libvorbis:floor1.obj
 0001:0001a3f0       fit_line                   000000018001b3f0 f   libvorbis:floor1.obj
 0001:0001aa70       inspect_error              000000018001ba70 f   libvorbis:floor1.obj
 0001:0001bd40       floor1_inverse1            000000018001cd40 f   libvorbis:floor1.obj
 0001:0001c130       floor1_inverse2            000000018001d130 f   libvorbis:floor1.obj
 0001:0001c630       vorbis_encode_global_stereo 000000018001d630 f   libvorbisenc:vorbisenc.obj
 0001:0001d780       vorbis_encode_psyset_setup 000000018001e780 f   libvorbisenc:vorbisenc.obj
 0001:0001d8a0       vorbis_encode_tonemask_setup 000000018001e8a0 f   libvorbisenc:vorbisenc.obj
 0001:0001dcb0       vorbis_encode_compand_setup 000000018001ecb0 f   libvorbisenc:vorbisenc.obj
 0001:0001e0b0       vorbis_encode_noisebias_setup 000000018001f0b0 f   libvorbisenc:vorbisenc.obj
 0001:0001e690       vorbis_encode_residue_setup 000000018001f690 f   libvorbisenc:vorbisenc.obj
 0001:0001ed80       get_setup_template         000000018001fd80 f   libvorbisenc:vorbisenc.obj
 0001:0001fd80       vorbis_encode_setup_setting 0000000180020d80 f   libvorbisenc:vorbisenc.obj
 0001:000201f0       $$000000                   00000001800211f0     LIBCMT:amdsecgs.obj
 0001:00020268       ?dllmain_crt_dispatch@@YAHQEAUHINSTANCE__@@KQEAX@Z 0000000180021268 f   LIBCMT:dll_dllmain.obj
 0001:000202b8       ?dllmain_crt_process_attach@@YAHQEAUHINSTANCE__@@QEAX@Z 00000001800212b8 f   LIBCMT:dll_dllmain.obj
 0001:000203d0       ?dllmain_crt_process_detach@@YAH_N@Z 00000001800213d0 f   LIBCMT:dll_dllmain.obj
 0001:00020454       ?dllmain_dispatch@@YAHQEAUHINSTANCE__@@KQEAX@Z 0000000180021454 f   LIBCMT:dll_dllmain.obj
 0001:00020780       capture_current_context    0000000180021780 f   LIBCMT:gs_report.obj
 0001:000207f0       capture_previous_context   00000001800217f0 f   LIBCMT:gs_report.obj
 0001:00021610       $$000000                   0000000180022610     libvcruntime:memset.obj
 0001:000217d0       $$000000                   00000001800227d0     libvcruntime:notify.obj
 0001:00021ae0       $$000000                   0000000180022ae0     libvcruntime:memcpy.obj
 0001:00021ee8       ?try_get_function@@YAPEAXW4function_id@?A0x983e3f5c@@QEBDQEBW4module_id@2@2@Z 0000000180022ee8 f   libvcruntime:winapi_downlevel.obj
 0001:000221e0       $$000000                   00000001800231e0     libvcruntime:handlers.obj
 0001:00022288       ??$common_assert_to_message_box@_W@@YAXQEB_W0IQEAX@Z 0000000180023288 f   libucrt:assert.obj
 0001:0002234c       ??$common_assert_to_message_box_build_string@_W@@YAXQEA_W_KQEB_W2IQEAX@Z 000000018002334c f   libucrt:assert.obj
 0001:00022850       ??$common_assert_to_stderr@_W@@YAXQEB_W0I@Z 0000000180023850 f   libucrt:assert.obj
 0001:000229c0       ?get_assert_format@@YAPEB_W_W@Z 00000001800239c0 f   libucrt:assert.obj
 0001:00022cd8       ?internal_isupper_l@@YA_NHQEAU__crt_locale_pointers@@@Z 0000000180023cd8 f   libucrt:tolower_toupper.obj
 0001:000233e0       ??$?RV<lambda_d80eeec6fff315bfe5c115232f3240e3>@@AEAV<lambda_6e4b09c48022b2350581041d5f6b0c4c>@@V<lambda_2358e3775559c9db80273638284d5e45>@@@?$__crt_seh_guarded_call@X@@QEAAX$$QEAV<lambda_d80eeec6fff315bfe5c115232f3240e3>@@AEAV<lambda_6e4b09c48022b2350581041d5f6b0c4c>@@$$QEAV<lambda_2358e3775559c9db80273638284d5e45>@@@Z 00000001800243e0 f   libucrt:exit.obj
 0001:00023418       ??R<lambda_6e4b09c48022b2350581041d5f6b0c4c>@@QEBA@XZ 0000000180024418 f   libucrt:exit.obj
 0001:000234dc       ?atexit_exception_filter@@YAHK@Z 00000001800244dc f   libucrt:exit.obj
 0001:000234e8       ?common_exit@@YAXHW4_crt_exit_cleanup_mode@@W4_crt_exit_return_mode@@@Z 00000001800244e8 f   libucrt:exit.obj
 0001:000235a4       ?exit_or_terminate_process@@YAXI@Z 00000001800245a4 f   libucrt:exit.obj
 0001:000235f0       ?try_cor_exit_process@@YAXI@Z 00000001800245f0 f   libucrt:exit.obj
 0001:0002392c       ??$parse_command_line@D@@YAXPEADPEAPEAD0PEA_K2@Z 000000018002492c f   libucrt:argv_parsing.obj
 0001:00023cd8       ??$common_initialize_environment_nolock@D@@YAHXZ 0000000180024cd8 f   libucrt:environment_initialization.obj
 0001:00023d44       ??$create_environment@D@@YAQEAPEADQEAD@Z 0000000180024d44 f   libucrt:environment_initialization.obj
 0001:00023e4c       ??$free_environment@D@@YAXQEAPEAD@Z 0000000180024e4c f   libucrt:environment_initialization.obj
 0001:00023e4c       ??$free_environment@_W@@YAXQEAPEA_W@Z 0000000180024e4c f   libucrt:environment_initialization.obj
 0001:00023e90       ??$uninitialize_environment_internal@D@@YAXAEAPEAPEAD@Z 0000000180024e90 f   libucrt:environment_initialization.obj
 0001:00023eac       ??$uninitialize_environment_internal@_W@@YAXAEAPEAPEA_W@Z 0000000180024eac f   libucrt:environment_initialization.obj
 0001:00023f08       ??$?RV<lambda_7777bce6b2f8c936911f934f8298dc43>@@AEAV<lambda_f03950bc5685219e0bcd2087efbe011e>@@V<lambda_3883c3dff614d5e0c5f61bb1ac94921c>@@@?$__crt_seh_guarded_call@H@@QEAAH$$QEAV<lambda_7777bce6b2f8c936911f934f8298dc43>@@AEAV<lambda_f03950bc5685219e0bcd2087efbe011e>@@$$QEAV<lambda_3883c3dff614d5e0c5f61bb1ac94921c>@@@Z 0000000180024f08 f   libucrt:onexit.obj
 0001:00023f44       ??R<lambda_f03950bc5685219e0bcd2087efbe011e>@@QEBAHXZ 0000000180024f44 f   libucrt:onexit.obj
 0001:000240c0       initialize_global_variables 00000001800250c0 f   libucrt:initialization.obj
 0001:000240d4       initialize_c               00000001800250d4 f   libucrt:initialization.obj
 0001:000240f8       report_memory_leaks        00000001800250f8 f   libucrt:initialization.obj
 0001:000240f8       uninitialize_global_state_isolation 00000001800250f8 f   libucrt:initialization.obj
 0001:000240f8       initialize_global_state_isolation 00000001800250f8 f   libucrt:initialization.obj
 0001:000240f8       initialize_environment     00000001800250f8 f   libucrt:initialization.obj
 0001:000240f8       uninitialize_c             00000001800250f8 f   libucrt:initialization.obj
 0001:000240fc       uninitialize_environment   00000001800250fc f   libucrt:initialization.obj
 0001:0002410c       initialize_pointers        000000018002510c f   libucrt:initialization.obj
 0001:0002414c       uninitialize_vcruntime     000000018002514c f   libucrt:initialization.obj
 0001:00024154       uninitialize_allocated_memory 0000000180025154 f   libucrt:initialization.obj
 0001:00024194       uninitialize_allocated_io_buffers 0000000180025194 f   libucrt:initialization.obj
 0001:00024348       ??$?RV<lambda_0d412022a4b28cc8a401ea49574e8ae6>@@AEAV<lambda_a775ed57af18ba8e4d5dc780aa9068fe>@@V<lambda_975a71a6baa488a08f4e15f6b0339b9e>@@@?$__crt_seh_guarded_call@H@@QEAAH$$QEAV<lambda_0d412022a4b28cc8a401ea49574e8ae6>@@AEAV<lambda_a775ed57af18ba8e4d5dc780aa9068fe>@@$$QEAV<lambda_975a71a6baa488a08f4e15f6b0339b9e>@@@Z 0000000180025348 f   libucrt:output.obj
 0001:00024388       ??$common_vsprintf@Vstandard_base@__crt_stdio_output@@_W@@YAH_KQEA_W0QEB_WQEAU__crt_locale_pointers@@QEAD@Z 0000000180025388 f   libucrt:output.obj
 0001:00024948       ??R<lambda_a775ed57af18ba8e4d5dc780aa9068fe>@@QEBAHXZ 0000000180025948 f   libucrt:output.obj
 0001:00026b20       $$000000                   0000000180027b20     libucrt:strncmp.obj
 0001:00026f38       ??$common_xtox@K_W@@YAHKQEA_W_KI_N@Z 0000000180027f38 f   libucrt:xtoa.obj
 0001:0002700c       ??$common_xtox_s@K_W@@YAHKQEA_W_KI_N@Z 000000018002800c f   libucrt:xtoa.obj
 0001:00027740       ??$?RV<lambda_842d9ff0dc9ef11c61343bbaebe7f885>@@AEAV<lambda_c5860995281e5c4ce005b3de8f5874ee>@@V<lambda_d90129c13df834fdcbf8d2b88dafcf2d>@@@?$__crt_seh_guarded_call@X@@QEAAX$$QEAV<lambda_842d9ff0dc9ef11c61343bbaebe7f885>@@AEAV<lambda_c5860995281e5c4ce005b3de8f5874ee>@@$$QEAV<lambda_d90129c13df834fdcbf8d2b88dafcf2d>@@@Z 0000000180028740 f   libucrt:fflush.obj
 0001:000277dc       ??$?RV<lambda_886d6c58226a84441f68b9f2b8217b83>@@AEAV<lambda_ab61a845afdef5b7c387490eaf3616ee>@@V<lambda_f7f22ab5edc0698d5f6905b0d3f44752>@@@?$__crt_seh_guarded_call@X@@QEAAX$$QEAV<lambda_886d6c58226a84441f68b9f2b8217b83>@@AEAV<lambda_ab61a845afdef5b7c387490eaf3616ee>@@$$QEAV<lambda_f7f22ab5edc0698d5f6905b0d3f44752>@@@Z 00000001800287dc f   libucrt:fflush.obj
 0001:000278bc       ??$?RV<lambda_c376a267cfb53b6959b3b692ec76b120>@@AEAV<lambda_9a32fed5bf61b6b509b2d3f6003082a1>@@V<lambda_572fbb9fa0ab338edf41edfd4b5fcc8d>@@@?$__crt_seh_guarded_call@H@@QEAAH$$QEAV<lambda_c376a267cfb53b6959b3b692ec76b120>@@AEAV<lambda_9a32fed5bf61b6b509b2d3f6003082a1>@@$$QEAV<lambda_572fbb9fa0ab338edf41edfd4b5fcc8d>@@@Z 00000001800288bc f   libucrt:fflush.obj
 0001:000278fc       ?common_flush_all@@YAH_N@Z 00000001800288fc f   libucrt:fflush.obj
 0001:00027a94       ??$?RV<lambda_84ec643ea9557e2f7dc01bb0e9624395>@@AEAV<lambda_ca71763b3c0644891230e4f79ea54fa6>@@V<lambda_439a761618c59b0600e24586724d733b>@@@?$__crt_seh_guarded_call@H@@QEAAH$$QEAV<lambda_84ec643ea9557e2f7dc01bb0e9624395>@@AEAV<lambda_ca71763b3c0644891230e4f79ea54fa6>@@$$QEAV<lambda_439a761618c59b0600e24586724d733b>@@@Z 0000000180028a94 f   libucrt:setvbuf.obj
 0001:00027ad4       ??R<lambda_ca71763b3c0644891230e4f79ea54fa6>@@QEBAHXZ 0000000180028ad4 f   libucrt:setvbuf.obj
 0001:00027c50       ??$?RV<lambda_450d765d439847d4c735a33c368b5fc0>@@AEAV<lambda_44731a7d0e6d81c3e6aa82d741081786>@@V<lambda_601a2a7da3b7a96e9554ac7215c4b07c>@@@?$__crt_seh_guarded_call@P6AXH@Z@@QEAAP6AXH@Z$$QEAV<lambda_450d765d439847d4c735a33c368b5fc0>@@AEAV<lambda_44731a7d0e6d81c3e6aa82d741081786>@@$$QEAV<lambda_601a2a7da3b7a96e9554ac7215c4b07c>@@@Z 0000000180028c50 f   libucrt:signal.obj
 0001:00027f54       ??$?RV<lambda_0ae27a3a962d80f24befdcbee591983d>@@AEAV<lambda_8d0ee55de4b1038c4002e0adecdf1839>@@V<lambda_dc504788e8f1664fe9b84e20bfb512f2>@@@?$__crt_seh_guarded_call@X@@QEAAX$$QEAV<lambda_0ae27a3a962d80f24befdcbee591983d>@@AEAV<lambda_8d0ee55de4b1038c4002e0adecdf1839>@@$$QEAV<lambda_dc504788e8f1664fe9b84e20bfb512f2>@@@Z 0000000180028f54 f   libucrt:per_thread_data.obj
 0001:00027f94       ??$?RV<lambda_2d41944a1d46af3157314b8a01080d33>@@AEAV<lambda_8f455de75cd7d7f24b4096f044d8b9e6>@@V<lambda_aa500f224e6afead328df44964fe2772>@@@?$__crt_seh_guarded_call@X@@QEAAX$$QEAV<lambda_2d41944a1d46af3157314b8a01080d33>@@AEAV<lambda_8f455de75cd7d7f24b4096f044d8b9e6>@@$$QEAV<lambda_aa500f224e6afead328df44964fe2772>@@@Z 0000000180028f94 f   libucrt:per_thread_data.obj
 0001:00027fd4       ??$?RV<lambda_aa87e3671a710a21b5dc78c0bdf72e11>@@AEAV<lambda_92619d2358a28f41a33ba319515a20b9>@@V<lambda_6992ecaafeb10aed2b74cb1fae11a551>@@@?$__crt_seh_guarded_call@X@@QEAAX$$QEAV<lambda_aa87e3671a710a21b5dc78c0bdf72e11>@@AEAV<lambda_92619d2358a28f41a33ba319515a20b9>@@$$QEAV<lambda_6992ecaafeb10aed2b74cb1fae11a551>@@@Z 0000000180028fd4 f   libucrt:per_thread_data.obj
 0001:0002801c       ??$?RV<lambda_f2e299630e499de9f9a165e60fcd3db5>@@AEAV<lambda_2ae9d31cdba2644fcbeaf08da7c24588>@@V<lambda_40d01ff24d0e7b3814fdbdcee8eab3c7>@@@?$__crt_seh_guarded_call@X@@QEAAX$$QEAV<lambda_f2e299630e499de9f9a165e60fcd3db5>@@AEAV<lambda_2ae9d31cdba2644fcbeaf08da7c24588>@@$$QEAV<lambda_40d01ff24d0e7b3814fdbdcee8eab3c7>@@@Z 000000018002901c f   libucrt:per_thread_data.obj
 0001:0002807c       ?construct_ptd_array@@YAXQEAU__acrt_ptd@@@Z 000000018002907c f   libucrt:per_thread_data.obj
 0001:0002814c       ?destroy_fls@@YAXPEAX@Z    000000018002914c f   libucrt:per_thread_data.obj
 0001:0002816c       ?destroy_ptd_array@@YAXQEAU__acrt_ptd@@@Z 000000018002916c f   libucrt:per_thread_data.obj
 0001:00028264       ?replace_current_thread_locale_nolock@@YAXQEAU__acrt_ptd@@QEAU__crt_locale_data@@@Z 0000000180029264 f   libucrt:per_thread_data.obj
 0001:00028620       ??$?RV<lambda_410d79af7f07d98d83a3f525b3859a53>@@AEAV<lambda_3e16ef9562a7dcce91392c22ab16ea36>@@V<lambda_38119f0e861e05405d8a144b9b982f0a>@@@?$__crt_seh_guarded_call@X@@QEAAX$$QEAV<lambda_410d79af7f07d98d83a3f525b3859a53>@@AEAV<lambda_3e16ef9562a7dcce91392c22ab16ea36>@@$$QEAV<lambda_38119f0e861e05405d8a144b9b982f0a>@@@Z 0000000180029620 f   libucrt:wsetlocale.obj
 0001:000289ec       ?__acrt_LCMapStringA_stat@@YAHPEAU__crt_locale_pointers@@PEB_WKPEBDHPEADHHH@Z 00000001800299ec f   libucrt:lcmapstringa.obj
 0001:00029a30       ?<lambda_invoker_cdecl>@<lambda_c2303d2482d7c3675ea2e24c4cfb6115>@@CAHPEBX0@Z 000000018002aa30 f   libucrt:argv_wildcards.obj
 0001:00029d48       ??$common_expand_argv_wildcards@D@@YAHQEAPEADQEAPEAPEAD@Z 000000018002ad48 f   libucrt:argv_wildcards.obj
 0001:00029f54       ??$copy_and_add_argument_to_buffer@D@@YAHQEBD0_KAEAV?$argument_list@D@?A0x5f5c8891@@@Z 000000018002af54 f   libucrt:argv_wildcards.obj
 0001:0002a0dc       ??$expand_argument_wildcards@D@@YAHQEAD0AEAV?$argument_list@D@?A0x5f5c8891@@@Z 000000018002b0dc f   libucrt:argv_wildcards.obj
 0001:0002a3f4       ??$?RV<lambda_efdfa57d1f175319df784efa44bb7b81>@@AEAV<lambda_5f0a4c1567f8adc6734073e5d1e1b35c>@@V<lambda_2e8a7d3640ea6ccb4c2413664c2db6fd>@@@?$__crt_seh_guarded_call@X@@QEAAX$$QEAV<lambda_efdfa57d1f175319df784efa44bb7b81>@@AEAV<lambda_5f0a4c1567f8adc6734073e5d1e1b35c>@@$$QEAV<lambda_2e8a7d3640ea6ccb4c2413664c2db6fd>@@@Z 000000018002b3f4 f   libucrt:mbctype.obj
 0001:0002a5b0       ?getSystemCP@@YAHH@Z       000000018002b5b0 f   libucrt:mbctype.obj
 0001:0002a630       ?setSBCS@@YAXPEAU__crt_multibyte_data@@@Z 000000018002b630 f   libucrt:mbctype.obj
 0001:0002a6c0       ?setSBUpLow@@YAXPEAU__crt_multibyte_data@@@Z 000000018002b6c0 f   libucrt:mbctype.obj
 0001:0002a8a4       ?setmbcp_internal@@YAHH_NQEAU__acrt_ptd@@QEAPEAU__crt_multibyte_data@@@Z 000000018002b8a4 f   libucrt:mbctype.obj
 0001:0002aa68       ?update_thread_multibyte_data_internal@@YAPEAU__crt_multibyte_data@@QEAU__acrt_ptd@@QEAPEAU1@@Z 000000018002ba68 f   libucrt:mbctype.obj
 0001:0002ae58       ?x_ismbbtype_l@@YAHPEAU__crt_locale_pointers@@IHH@Z 000000018002be58 f   libucrt:ismbbyte.obj
 0001:0002b19c       ?try_get_function@@YAPEAXW4function_id@?A0x391cf84c@@QEBDQEBW4module_id@2@2@Z 000000018002c19c f   libucrt:winapi_thunks.obj
 0001:0002ba20       ?initialize_inherited_file_handles_nolock@@YAXXZ 000000018002ca20 f   libucrt:ioinit.obj
 0001:0002bb10       ?initialize_stdio_handles_nolock@@YAXXZ 000000018002cb10 f   libucrt:ioinit.obj
 0001:0002c488       ?fp_format_a@@YAHQEBNPEAD_KQEAD2H_NIQEAU__crt_locale_pointers@@@Z 000000018002d488 f   libucrt:cvt.obj
 0001:0002c7f8       ?fp_format_e@@YAHQEBNQEAD_K12H_NIQEAU__crt_locale_pointers@@@Z 000000018002d7f8 f   libucrt:cvt.obj
 0001:0002c8d4       ?fp_format_e_internal@@YAHQEAD_KH_NIQEAU_strflt@@2QEAU__crt_locale_pointers@@@Z 000000018002d8d4 f   libucrt:cvt.obj
 0001:0002caa8       ?fp_format_f_internal@@YAHQEAD_KHQEAU_strflt@@_NQEAU__crt_locale_pointers@@@Z 000000018002daa8 f   libucrt:cvt.obj
 0001:0002cbec       ?fp_format_g@@YAHQEBNQEAD_K12H_NIQEAU__crt_locale_pointers@@@Z 000000018002dbec f   libucrt:cvt.obj
 0001:0002cd20       ?fp_format_nan_or_infinity@@YAHW4__acrt_fp_class@@_NPEAD_K1@Z 000000018002dd20 f   libucrt:cvt.obj
 0001:0002d41c       ??$?RV<lambda_a37b2b86f63e897a80ea819b0eb08c01>@@AEAV<lambda_38ce7e780aa69e748d6df282ebc68efe>@@V<lambda_99fb1378e971ab6e7edea83e3a7a83a2>@@@?$__crt_seh_guarded_call@H@@QEAAH$$QEAV<lambda_a37b2b86f63e897a80ea819b0eb08c01>@@AEAV<lambda_38ce7e780aa69e748d6df282ebc68efe>@@$$QEAV<lambda_99fb1378e971ab6e7edea83e3a7a83a2>@@@Z 000000018002e41c f   libucrt:commit.obj
 0001:0002d53c       ?write_double_translated_ansi_nolock@@YA?AUwrite_result@?A0x17268360@@HQEBDI@Z 000000018002e53c f   libucrt:write.obj
 0001:0002da18       ?write_text_ansi_nolock@@YA?AUwrite_result@?A0x17268360@@HQEBDI@Z 000000018002ea18 f   libucrt:write.obj
 0001:0002db1c       ?write_text_utf16le_nolock@@YA?AUwrite_result@?A0x17268360@@HQEBDI@Z 000000018002eb1c f   libucrt:write.obj
 0001:0002dc38       ?write_text_utf8_nolock@@YA?AUwrite_result@?A0x17268360@@HQEBDI@Z 000000018002ec38 f   libucrt:write.obj
 0001:0002e6f4       ?free_crt_array_internal@@YAXQEAPEBX_K@Z 000000018002f6f4 f   libucrt:inittime.obj
 0001:0002ea10       $$000000                   000000018002fa10     libucrt:fpsr.obj
 0001:0002eb44       fallbackMethod             000000018002fb44 f   libucrt:strpbrk.obj
 0001:0002ef14       $LN78                      000000018002ff14     libucrt:strpbrk.obj
 0001:0002ef50       $LN77                      000000018002ff50     libucrt:strpbrk.obj
 0001:0002ef90       $LN76                      000000018002ff90     libucrt:strpbrk.obj
 0001:0002f06c       ?initialize_multibyte@@YAHXZ 000000018003006c f   libucrt:multibyte_initializer.obj
 0001:0002f0c0       ?GetTableIndexFromLocaleName@@YAHPEB_W@Z 00000001800300c0 f   libucrt:lcidtoname_downlevel.obj
 0001:00030f10       memcpy_s                   0000000180031f10 f   libucrt:cfout.obj
 0001:00030f98       ??$write_buffer_nolock@D@@YA_NDV__crt_stdio_stream@@@Z 0000000180031f98 f   libucrt:_flsbuf.obj
 0001:0003107c       ??$write_buffer_nolock@_W@@YA_N_WV__crt_stdio_stream@@@Z 000000018003207c f   libucrt:_flsbuf.obj
 0001:00031164       ?stream_is_at_end_of_file_nolock@@YA_NV__crt_stdio_stream@@@Z 0000000180032164 f   libucrt:_flsbuf.obj
 0001:000314a4       ??$common_lseek@_J@@YA_JH_JH@Z 00000001800324a4 f   libucrt:lseek.obj
 0001:00031594       ??$common_lseek_nolock@_J@@YA_JH_JH@Z 0000000180032594 f   libucrt:lseek.obj
 0001:000319e0       $$000000                   00000001800329e0     libucrt:log10.obj
 0001:00031ff4       ??$?RV<lambda_751a882b2c74d4b022dec766aa51a29a>@@AEAV<lambda_628dfdc04ba53c8bfc02c9951375f3f5>@@V<lambda_f6c7be5f7998530c34de24c7437d6b54>@@@?$__crt_seh_guarded_call@H@@QEAAH$$QEAV<lambda_751a882b2c74d4b022dec766aa51a29a>@@AEAV<lambda_628dfdc04ba53c8bfc02c9951375f3f5>@@$$QEAV<lambda_f6c7be5f7998530c34de24c7437d6b54>@@@Z 0000000180032ff4 f   libucrt:close.obj
 0001:0003269c       _call_matherr              000000018003369c f   libucrt:libm_error.obj
 0001:00032704       _exception_enabled         0000000180033704 f   libucrt:libm_error.obj
 0001:000329c0       _log_special_common        00000001800339c0 f   libucrt:log_special.obj
 0001:00033230       $$000000                   0000000180034230     LIBCMT:chkstk.obj
 0001:000332a0       $$000000                   00000001800342a0     libvcruntime:memcmp.obj
 0001:000336c0       $$000000                   00000001800346c0     libucrt:cos.obj
 0001:00033c40       $$000000                   0000000180034c40     libucrt:exp.obj
 0001:000340f0       $$000000                   00000001800350f0     libucrt:log.obj
 0001:00034620       $$000000                   0000000180035620     libucrt:pow.obj
 0001:00035cc0       $$000000                   0000000180036cc0     libucrt:sin.obj
 0001:00036300       $$000000                   0000000180037300     libucrt:remainder_piby2_forasm.obj
 0001:00036650       $$000000                   0000000180037650     libucrt:remainder_piby2_forfma3.obj
 0001:000368e0       _sincos_special            00000001800378e0 f   libucrt:sincos_special.obj
 0001:00036b60       $$000000                   0000000180037b60     LIBCMT:guard_dispatch.obj
 0001:00036b80       ?fin$0@?0??dllmain_crt_process_attach@@YAHQEAUHINSTANCE__@@QEAX@Z@4HA 0000000180037b80 f   LIBCMT:dll_dllmain.obj
 0001:00036b97       ?fin$0@?0??dllmain_crt_process_detach@@YAH_N@Z@4HA 0000000180037b97 f   LIBCMT:dll_dllmain.obj
 0001:00036bb3       ?filt$0@?0??dllmain_dispatch@@YAHQEAUHINSTANCE__@@KQEAX@Z@4HA 0000000180037bb3 f   LIBCMT:dll_dllmain.obj
 0001:00036be9       __scrt_is_nonwritable_in_current_image$filt$0 0000000180037be9 f   LIBCMT:utility.obj
 0001:00036c01       __DestructExceptionObject$filt$0 0000000180037c01 f   libvcruntime:ehhelpers.obj
 0001:00036c19       ?fin$0@?0???$?RV<lambda_efdfa57d1f175319df784efa44bb7b81>@@AEAV<lambda_5f0a4c1567f8adc6734073e5d1e1b35c>@@V<lambda_2e8a7d3640ea6ccb4c2413664c2db6fd>@@@?$__crt_seh_guarded_call@X@@QEAAX$$QEAV<lambda_efdfa57d1f175319df784efa44bb7b81>@@AEAV<lambda_5f0a4c1567f8adc6734073e5d1e1b35c>@@$$QEAV<lambda_2e8a7d3640ea6ccb4c2413664c2db6fd>@@@Z@4HA 0000000180037c19 f   libucrt:mbctype.obj
 0001:00036c19       ?fin$0@?0???$?RV<lambda_450d765d439847d4c735a33c368b5fc0>@@AEAV<lambda_44731a7d0e6d81c3e6aa82d741081786>@@V<lambda_601a2a7da3b7a96e9554ac7215c4b07c>@@@?$__crt_seh_guarded_call@P6AXH@Z@@QEAAP6AXH@Z$$QEAV<lambda_450d765d439847d4c735a33c368b5fc0>@@AEAV<lambda_44731a7d0e6d81c3e6aa82d741081786>@@$$QEAV<lambda_601a2a7da3b7a96e9554ac7215c4b07c>@@@Z@4HA 0000000180037c19 f   libucrt:signal.obj
 0001:00036c19       ?fin$0@?0???$?RV<lambda_7777bce6b2f8c936911f934f8298dc43>@@AEAV<lambda_f03950bc5685219e0bcd2087efbe011e>@@V<lambda_3883c3dff614d5e0c5f61bb1ac94921c>@@@?$__crt_seh_guarded_call@H@@QEAAH$$QEAV<lambda_7777bce6b2f8c936911f934f8298dc43>@@AEAV<lambda_f03950bc5685219e0bcd2087efbe011e>@@$$QEAV<lambda_3883c3dff614d5e0c5f61bb1ac94921c>@@@Z@4HA 0000000180037c19 f   libucrt:onexit.obj
 0001:00036c19       ?fin$0@?0???$?RV<lambda_d80eeec6fff315bfe5c115232f3240e3>@@AEAV<lambda_6e4b09c48022b2350581041d5f6b0c4c>@@V<lambda_2358e3775559c9db80273638284d5e45>@@@?$__crt_seh_guarded_call@X@@QEAAX$$QEAV<lambda_d80eeec6fff315bfe5c115232f3240e3>@@AEAV<lambda_6e4b09c48022b2350581041d5f6b0c4c>@@$$QEAV<lambda_2358e3775559c9db80273638284d5e45>@@@Z@4HA 0000000180037c19 f   libucrt:exit.obj
 0001:00036c19       ?fin$0@?0???$?RV<lambda_0ae27a3a962d80f24befdcbee591983d>@@AEAV<lambda_8d0ee55de4b1038c4002e0adecdf1839>@@V<lambda_dc504788e8f1664fe9b84e20bfb512f2>@@@?$__crt_seh_guarded_call@X@@QEAAX$$QEAV<lambda_0ae27a3a962d80f24befdcbee591983d>@@AEAV<lambda_8d0ee55de4b1038c4002e0adecdf1839>@@$$QEAV<lambda_dc504788e8f1664fe9b84e20bfb512f2>@@@Z@4HA 0000000180037c19 f   libucrt:per_thread_data.obj
 0001:00036c19       ?fin$0@?0???$?RV<lambda_2d41944a1d46af3157314b8a01080d33>@@AEAV<lambda_8f455de75cd7d7f24b4096f044d8b9e6>@@V<lambda_aa500f224e6afead328df44964fe2772>@@@?$__crt_seh_guarded_call@X@@QEAAX$$QEAV<lambda_2d41944a1d46af3157314b8a01080d33>@@AEAV<lambda_8f455de75cd7d7f24b4096f044d8b9e6>@@$$QEAV<lambda_aa500f224e6afead328df44964fe2772>@@@Z@4HA 0000000180037c19 f   libucrt:per_thread_data.obj
 0001:00036c19       ?fin$0@?0???$?RV<lambda_aa87e3671a710a21b5dc78c0bdf72e11>@@AEAV<lambda_92619d2358a28f41a33ba319515a20b9>@@V<lambda_6992ecaafeb10aed2b74cb1fae11a551>@@@?$__crt_seh_guarded_call@X@@QEAAX$$QEAV<lambda_aa87e3671a710a21b5dc78c0bdf72e11>@@AEAV<lambda_92619d2358a28f41a33ba319515a20b9>@@$$QEAV<lambda_6992ecaafeb10aed2b74cb1fae11a551>@@@Z@4HA 0000000180037c19 f   libucrt:per_thread_data.obj
 0001:00036c19       ?fin$0@?0???$?RV<lambda_f2e299630e499de9f9a165e60fcd3db5>@@AEAV<lambda_2ae9d31cdba2644fcbeaf08da7c24588>@@V<lambda_40d01ff24d0e7b3814fdbdcee8eab3c7>@@@?$__crt_seh_guarded_call@X@@QEAAX$$QEAV<lambda_f2e299630e499de9f9a165e60fcd3db5>@@AEAV<lambda_2ae9d31cdba2644fcbeaf08da7c24588>@@$$QEAV<lambda_40d01ff24d0e7b3814fdbdcee8eab3c7>@@@Z@4HA 0000000180037c19 f   libucrt:per_thread_data.obj
 0001:00036c33       ?filt$0@?0???R<lambda_6e4b09c48022b2350581041d5f6b0c4c>@@QEBA@XZ@4HA 0000000180037c33 f   libucrt:exit.obj
 0001:00036c4e       _query_new_handler$fin$0   0000000180037c4e f   libucrt:new_handler.obj
 0001:00036c64       ?fin$0@?0???$?RV<lambda_c376a267cfb53b6959b3b692ec76b120>@@AEAV<lambda_9a32fed5bf61b6b509b2d3f6003082a1>@@V<lambda_572fbb9fa0ab338edf41edfd4b5fcc8d>@@@?$__crt_seh_guarded_call@H@@QEAAH$$QEAV<lambda_c376a267cfb53b6959b3b692ec76b120>@@AEAV<lambda_9a32fed5bf61b6b509b2d3f6003082a1>@@$$QEAV<lambda_572fbb9fa0ab338edf41edfd4b5fcc8d>@@@Z@4HA 0000000180037c64 f   libucrt:fflush.obj
 0001:00036c64       ?fin$0@?0???$?RV<lambda_0d412022a4b28cc8a401ea49574e8ae6>@@AEAV<lambda_a775ed57af18ba8e4d5dc780aa9068fe>@@V<lambda_975a71a6baa488a08f4e15f6b0339b9e>@@@?$__crt_seh_guarded_call@H@@QEAAH$$QEAV<lambda_0d412022a4b28cc8a401ea49574e8ae6>@@AEAV<lambda_a775ed57af18ba8e4d5dc780aa9068fe>@@$$QEAV<lambda_975a71a6baa488a08f4e15f6b0339b9e>@@@Z@4HA 0000000180037c64 f   libucrt:output.obj
 0001:00036c64       ?fin$0@?0???$?RV<lambda_84ec643ea9557e2f7dc01bb0e9624395>@@AEAV<lambda_ca71763b3c0644891230e4f79ea54fa6>@@V<lambda_439a761618c59b0600e24586724d733b>@@@?$__crt_seh_guarded_call@H@@QEAAH$$QEAV<lambda_84ec643ea9557e2f7dc01bb0e9624395>@@AEAV<lambda_ca71763b3c0644891230e4f79ea54fa6>@@$$QEAV<lambda_439a761618c59b0600e24586724d733b>@@@Z@4HA 0000000180037c64 f   libucrt:setvbuf.obj
 0001:00036c64       ?fin$0@?0???$?RV<lambda_842d9ff0dc9ef11c61343bbaebe7f885>@@AEAV<lambda_c5860995281e5c4ce005b3de8f5874ee>@@V<lambda_d90129c13df834fdcbf8d2b88dafcf2d>@@@?$__crt_seh_guarded_call@X@@QEAAX$$QEAV<lambda_842d9ff0dc9ef11c61343bbaebe7f885>@@AEAV<lambda_c5860995281e5c4ce005b3de8f5874ee>@@$$QEAV<lambda_d90129c13df834fdcbf8d2b88dafcf2d>@@@Z@4HA 0000000180037c64 f   libucrt:fflush.obj
 0001:00036c7f       ?fin$0@?0???$?RV<lambda_886d6c58226a84441f68b9f2b8217b83>@@AEAV<lambda_ab61a845afdef5b7c387490eaf3616ee>@@V<lambda_f7f22ab5edc0698d5f6905b0d3f44752>@@@?$__crt_seh_guarded_call@X@@QEAAX$$QEAV<lambda_886d6c58226a84441f68b9f2b8217b83>@@AEAV<lambda_ab61a845afdef5b7c387490eaf3616ee>@@$$QEAV<lambda_f7f22ab5edc0698d5f6905b0d3f44752>@@@Z@4HA 0000000180037c7f f   libucrt:fflush.obj
 0001:00036c9c       raise$fin$0                0000000180037c9c f   libucrt:signal.obj
 0001:00036cbd       ?fin$0@?0???$?RV<lambda_410d79af7f07d98d83a3f525b3859a53>@@AEAV<lambda_3e16ef9562a7dcce91392c22ab16ea36>@@V<lambda_38119f0e861e05405d8a144b9b982f0a>@@@?$__crt_seh_guarded_call@X@@QEAAX$$QEAV<lambda_410d79af7f07d98d83a3f525b3859a53>@@AEAV<lambda_3e16ef9562a7dcce91392c22ab16ea36>@@$$QEAV<lambda_38119f0e861e05405d8a144b9b982f0a>@@@Z@4HA 0000000180037cbd f   libucrt:wsetlocale.obj
 0001:00036cd7       _ctrlfp$filt$0             0000000180037cd7 f   libucrt:fpctrl.obj
 0001:00036d03       ?fin$0@?0??update_thread_multibyte_data_internal@@YAPEAU__crt_multibyte_data@@QEAU__acrt_ptd@@QEAPEAU1@@Z@4HA 0000000180037d03 f   libucrt:mbctype.obj
 0001:00036d1c       __acrt_lowio_ensure_fh_exists$fin$0 0000000180037d1c f   libucrt:osfinfo.obj
 0001:00036d1c       __acrt_initialize_lowio$fin$0 0000000180037d1c f   libucrt:ioinit.obj
 0001:00036d35       _fcloseall$fin$0           0000000180037d35 f   libucrt:closeall.obj
 0001:00036d4e       ?fin$0@?0???$?RV<lambda_751a882b2c74d4b022dec766aa51a29a>@@AEAV<lambda_628dfdc04ba53c8bfc02c9951375f3f5>@@V<lambda_f6c7be5f7998530c34de24c7437d6b54>@@@?$__crt_seh_guarded_call@H@@QEAAH$$QEAV<lambda_751a882b2c74d4b022dec766aa51a29a>@@AEAV<lambda_628dfdc04ba53c8bfc02c9951375f3f5>@@$$QEAV<lambda_f6c7be5f7998530c34de24c7437d6b54>@@@Z@4HA 0000000180037d4e f   libucrt:close.obj
 0001:00036d4e       ?fin$0@?0???$?RV<lambda_a37b2b86f63e897a80ea819b0eb08c01>@@AEAV<lambda_38ce7e780aa69e748d6df282ebc68efe>@@V<lambda_99fb1378e971ab6e7edea83e3a7a83a2>@@@?$__crt_seh_guarded_call@H@@QEAAH$$QEAV<lambda_a37b2b86f63e897a80ea819b0eb08c01>@@AEAV<lambda_38ce7e780aa69e748d6df282ebc68efe>@@$$QEAV<lambda_99fb1378e971ab6e7edea83e3a7a83a2>@@@Z@4HA 0000000180037d4e f   libucrt:commit.obj
 0001:00036d68       _write$fin$0               0000000180037d68 f   libucrt:write.obj
 0001:00036d68       ?fin$0@?0???$common_lseek@_J@@YA_JH_JH@Z@4HA 0000000180037d68 f   libucrt:lseek.obj
 0001:00036d7f       __acrt_update_thread_locale_data$fin$0 0000000180037d7f f   libucrt:locale_refcounting.obj
 0001:00036d98       fclose$fin$0               0000000180037d98 f   libucrt:fclose.obj
 0001:00036db0       _IsNonwritableInCurrentImage$filt$0 0000000180037db0 f   LIBCMT:pesect.obj
 0002:00000358       GS_ExceptionPointers       0000000180038358     LIBCMT:gs_report.obj
 0002:00000400       ?ExceptionTemplate@?1??_CxxThrowException@@9@4UEHExceptionRecord@@B 0000000180038400     libvcruntime:throw.obj
 0002:00000450       ?tokenTable@@3QBQEBDB      0000000180038450     libvcruntime:undname.obj
 0002:000004d0       ?nameTable@@3QBQEBDB       00000001800384d0     libvcruntime:undname.obj
 0002:00000768       ?rttiTable@@3QBQEBDB       0000000180038768     libvcruntime:undname.obj
 0002:00000e28       ?module_names@?A0x983e3f5c@@3QBQEB_WB 0000000180038e28     libvcruntime:winapi_downlevel.obj
 0002:00000ee8       ?candidate_modules@?1??try_get_FlsAlloc@@YAP6AKP6AXPEAX@Z@ZXZ@4QBW4module_id@?A0x983e3f5c@@B 0000000180038ee8     libvcruntime:winapi_downlevel.obj
 0002:00000f00       ?candidate_modules@?1??try_get_FlsFree@@YAP6AHK@ZXZ@4QBW4module_id@?A0x983e3f5c@@B 0000000180038f00     libvcruntime:winapi_downlevel.obj
 0002:00000f10       ?candidate_modules@?1??try_get_FlsGetValue@@YAP6APEAXK@ZXZ@4QBW4module_id@?A0x983e3f5c@@B 0000000180038f10     libvcruntime:winapi_downlevel.obj
 0002:00000f28       ?candidate_modules@?1??try_get_FlsSetValue@@YAP6AHKPEAX@ZXZ@4QBW4module_id@?A0x983e3f5c@@B 0000000180038f28     libvcruntime:winapi_downlevel.obj
 0002:00000f40       ?candidate_modules@?1??try_get_InitializeCriticalSectionEx@@YAP6AHPEAU_RTL_CRITICAL_SECTION@@KK@ZXZ@4QBW4module_id@?A0x983e3f5c@@B 0000000180038f40     libvcruntime:winapi_downlevel.obj
 0002:00001360       __acrt_initializers        0000000180039360     libucrt:initialization.obj
 0002:000014e0       ?errtable@@3QBUerrentry@?A0x31fdb9ec@@B 00000001800394e0     libucrt:errno.obj
 0002:000024f0       ?_names@?1??_get_fname@@9@9 000000018003a4f0     libucrt:fpexcept.obj
 0002:00002790       ?_mb_locale_names@@3QBQEB_WB 000000018003a790     libucrt:mbctype.obj
 0002:000027f0       ?module_names@?A0x391cf84c@@3QBQEB_WB 000000018003a7f0     libucrt:winapi_thunks.obj
 0002:00002d98       ?candidate_modules@?1??try_get_AreFileApisANSI@@YAP6AHXZXZ@4QBW4module_id@?A0x391cf84c@@B 000000018003ad98     libucrt:winapi_thunks.obj
 0002:00002db0       ?candidate_modules@?1??try_get_FlsAlloc@@YAP6AKP6AXPEAX@Z@ZXZ@4QBW4module_id@?A0x391cf84c@@B 000000018003adb0     libucrt:winapi_thunks.obj
 0002:00002dc8       ?candidate_modules@?1??try_get_FlsFree@@YAP6AHK@ZXZ@4QBW4module_id@?A0x391cf84c@@B 000000018003adc8     libucrt:winapi_thunks.obj
 0002:00002dd8       ?candidate_modules@?1??try_get_FlsGetValue@@YAP6APEAXK@ZXZ@4QBW4module_id@?A0x391cf84c@@B 000000018003add8     libucrt:winapi_thunks.obj
 0002:00002df0       ?candidate_modules@?1??try_get_FlsSetValue@@YAP6AHKPEAX@ZXZ@4QBW4module_id@?A0x391cf84c@@B 000000018003adf0     libucrt:winapi_thunks.obj
 0002:00002e08       ?candidate_modules@?1??try_get_GetActiveWindow@@YAP6APEAUHWND__@@XZXZ@4QBW4module_id@?A0x391cf84c@@B 000000018003ae08     libucrt:winapi_thunks.obj
 0002:00002e20       ?candidate_modules@?1??try_get_GetLastActivePopup@@YAP6APEAUHWND__@@PEAU2@@ZXZ@4QBW4module_id@?A0x391cf84c@@B 000000018003ae20     libucrt:winapi_thunks.obj
 0002:00002e40       ?candidate_modules@?1??try_get_GetProcessWindowStation@@YAP6APEAUHWINSTA__@@XZXZ@4QBW4module_id@?A0x391cf84c@@B 000000018003ae40     libucrt:winapi_thunks.obj
 0002:00002e60       ?candidate_modules@?1??try_get_GetUserObjectInformationW@@YAP6AHPEAXH0KPEAK@ZXZ@4QBW4module_id@?A0x391cf84c@@B 000000018003ae60     libucrt:winapi_thunks.obj
 0002:00002e88       ?candidate_modules@?1??try_get_InitializeCriticalSectionEx@@YAP6AHPEAU_RTL_CRITICAL_SECTION@@KK@ZXZ@4QBW4module_id@?A0x391cf84c@@B 000000018003ae88     libucrt:winapi_thunks.obj
 0002:00002eb0       ?candidate_modules@?1??try_get_LCMapStringEx@@YAP6AHPEB_WK0HPEA_WHPEAU_nlsversioninfo@@PEAX_J@ZXZ@4QBW4module_id@?A0x391cf84c@@B 000000018003aeb0     libucrt:winapi_thunks.obj
 0002:00002ec8       ?candidate_modules@?1??try_get_LocaleNameToLCID@@YAP6AKPEB_WK@ZXZ@4QBW4module_id@?A0x391cf84c@@B 000000018003aec8     libucrt:winapi_thunks.obj
 0002:00002ee8       ?candidate_modules@?1??try_get_MessageBoxA@@YAP6AHPEAUHWND__@@PEBD1I@ZXZ@4QBW4module_id@?A0x391cf84c@@B 000000018003aee8     libucrt:winapi_thunks.obj
 0002:00002f00       ?candidate_modules@?1??try_get_MessageBoxW@@YAP6AHPEAUHWND__@@PEB_W1I@ZXZ@4QBW4module_id@?A0x391cf84c@@B 000000018003af00     libucrt:winapi_thunks.obj
 0002:00002f14       ?candidate_modules@?1??try_get_AppPolicyGetProcessTerminationMethod@@YAP6AJPEAXPEAW4AppPolicyProcessTerminationMethod@@@ZXZ@4QBW4module_id@?A0x391cf84c@@B 000000018003af14     libucrt:winapi_thunks.obj
 0002:00002f40       ?candidate_modules@?1??try_get_AppPolicyGetShowDeveloperDiagnostic@@YAP6AJPEAXPEAW4AppPolicyShowDeveloperDiagnostic@@@ZXZ@4QBW4module_id@?A0x391cf84c@@B 000000018003af40     libucrt:winapi_thunks.obj
 0002:00002f6c       ?candidate_modules@?1??try_get_AppPolicyGetWindowingModel@@YAP6AJPEAXPEAW4AppPolicyWindowingModel@@@ZXZ@4QBW4module_id@?A0x391cf84c@@B 000000018003af6c     libucrt:winapi_thunks.obj
 0002:00002ff0       __real@433fffffffffffff    000000018003aff0     libucrt:fpsr.obj
 0002:00002ff8       __real@c33fffffffffffff    000000018003aff8     libucrt:fpsr.obj
 0002:00003000       ?LcidToLocaleNameTable@?A0x881e4c05@@3QBULcidToLocaleName@1@B 000000018003b000     libucrt:lcidtoname_downlevel.obj
 0002:00004a60       ?LocaleNameToIndexTable@?A0x881e4c05@@3QBULocaleNameIndex@1@B 000000018003ca60     libucrt:lcidtoname_downlevel.obj
 0002:00006cf0       __real_ninf                000000018003ecf0     libucrt:log10.obj
 0002:00006d00       __real_inf                 000000018003ed00     libucrt:log10.obj
 0002:00006d10       __real_neg_qnan            000000018003ed10     libucrt:log10.obj
 0002:00006d20       __real_qnanbit             000000018003ed20     libucrt:log10.obj
 0002:00006d30       __int_1023                 000000018003ed30     libucrt:log10.obj
 0002:00006d40       __mask_001                 000000018003ed40     libucrt:log10.obj
 0002:00006d50       __mask_mant                000000018003ed50     libucrt:log10.obj
 0002:00006d60       __mask_mant_top8           000000018003ed60     libucrt:log10.obj
 0002:00006d70       __mask_mant9               000000018003ed70     libucrt:log10.obj
 0002:00006d80       __real_log10_e             000000018003ed80     libucrt:log10.obj
 0002:00006d90       __real_log10_e_lead        000000018003ed90     libucrt:log10.obj
 0002:00006da0       __real_log10_e_tail        000000018003eda0     libucrt:log10.obj
 0002:00006db0       __real_log10_2_lead        000000018003edb0     libucrt:log10.obj
 0002:00006dc0       __real_log10_2_tail        000000018003edc0     libucrt:log10.obj
 0002:00006dd0       __real_two                 000000018003edd0     libucrt:log10.obj
 0002:00006de0       __real_one                 000000018003ede0     libucrt:log10.obj
 0002:00006df0       __real_half                000000018003edf0     libucrt:log10.obj
 0002:00006e00       __mask_100                 000000018003ee00     libucrt:log10.obj
 0002:00006e10       __real_1_over_512          000000018003ee10     libucrt:log10.obj
 0002:00006e20       __real_1_over_2            000000018003ee20     libucrt:log10.obj
 0002:00006e30       __real_1_over_3            000000018003ee30     libucrt:log10.obj
 0002:00006e40       __real_1_over_4            000000018003ee40     libucrt:log10.obj
 0002:00006e50       __real_1_over_5            000000018003ee50     libucrt:log10.obj
 0002:00006e60       __real_1_over_6            000000018003ee60     libucrt:log10.obj
 0002:00006e70       __real_neg_1023            000000018003ee70     libucrt:log10.obj
 0002:00006e80       __mask_2045                000000018003ee80     libucrt:log10.obj
 0002:00006e90       __real_threshold           000000018003ee90     libucrt:log10.obj
 0002:00006ea0       __real_near_one_lt         000000018003eea0     libucrt:log10.obj
 0002:00006eb0       __real_near_one_gt         000000018003eeb0     libucrt:log10.obj
 0002:00006ec0       __real_min_norm            000000018003eec0     libucrt:log10.obj
 0002:00006ed0       __real_notsign             000000018003eed0     libucrt:log10.obj
 0002:00006ee0       __real_ca1                 000000018003eee0     libucrt:log10.obj
 0002:00006ef0       __real_ca2                 000000018003eef0     libucrt:log10.obj
 0002:00006f00       __real_ca3                 000000018003ef00     libucrt:log10.obj
 0002:00006f10       __real_ca4                 000000018003ef10     libucrt:log10.obj
 0002:00006f20       __mask_lower               000000018003ef20     libucrt:log10.obj
 0002:00006f30       __flag_x_zero              000000018003ef30     libucrt:log10.obj
 0002:00006f34       __flag_x_neg               000000018003ef34     libucrt:log10.obj
 0002:00006f38       __flag_x_nan               000000018003ef38     libucrt:log10.obj
 0002:00008f58       ?taui@?1??dradb3@@9@9      0000000180040f58     libvorbis:smallft.obj
 0002:00008f5c       ?taur@?1??dradb3@@9@9      0000000180040f5c     libvorbis:smallft.obj
 0002:00008f60       FLOOR1_fromdB_LOOKUP       0000000180040f60     libvorbis:psy.obj
 0002:00009360       stereo_threshholds         0000000180041360     libvorbis:psy.obj
 0002:000093a8       ?tpi@?1??dradfg@@9@9       00000001800413a8     libvorbis:smallft.obj
 0002:000093ac       ?hsqt2@?1??dradf4@@9@9     00000001800413ac     libvorbis:smallft.obj
 0002:000093b0       ATH                        00000001800413b0     libvorbis:psy.obj
 0002:00009510       tonemasks                  0000000180041510     libvorbis:psy.obj
 0002:0000ee50       stereo_threshholds_limited 0000000180046e50     libvorbis:psy.obj
 0002:0000ee98       ?ntryh@?1??drfti1@@9@9     0000000180046e98     libvorbis:smallft.obj
 0002:0000eea8       ?tpi@?1??drfti1@@9@9       0000000180046ea8     libvorbis:smallft.obj
 0002:0000eeac       ?sqrt2@?1??dradb4@@9@9     0000000180046eac     libvorbis:smallft.obj
 0002:0000eeb0       ?tpi@?1??dradbg@@9@9       0000000180046eb0     libvorbis:smallft.obj
 0002:0000eec0       vwin64                     0000000180046ec0     libvorbis:window.obj
 0002:0000ef40       vwin128                    0000000180046f40     libvorbis:window.obj
 0002:0000f040       vwin512                    0000000180047040     libvorbis:window.obj
 0002:0000f440       vwin8192                   0000000180047440     libvorbis:window.obj
 0002:00013440       vwin4096                   000000018004b440     libvorbis:window.obj
 0002:00015440       vwin1024                   000000018004d440     libvorbis:window.obj
 0002:00015c40       vwin2048                   000000018004dc40     libvorbis:window.obj
 0002:00016c40       vwin                       000000018004ec40     libvorbis:window.obj
 0002:00016c80       vwin256                    000000018004ec80     libvorbis:window.obj
 0002:00016fd8       _vq_quantlist__44u1__p6_0  000000018004efd8     libvorbisenc:vorbisenc.obj
 0002:00017010       FLOOR1_fromdB_LOOKUP       000000018004f010     libvorbis:floor1.obj
 0002:00017410       rate_mapping_32_un         000000018004f410     libvorbisenc:vorbisenc.obj
 0002:00017470       _vq_quantlist__44u8_p6_1   000000018004f470     libvorbisenc:vorbisenc.obj
 0002:00017488       _44p3_p7_3                 000000018004f488     libvorbisenc:vorbisenc.obj
 0002:000174c0       _floor_128x17_books        000000018004f4c0     libvorbisenc:vorbisenc.obj
 0002:00017520       _res_44u_4                 000000018004f520     libvorbisenc:vorbisenc.obj
 0002:00017590       _vq_lengthlist__44c5_s_p5_0 000000018004f590     libvorbisenc:vorbisenc.obj
 0002:000176d8       _vq_quantlist__44cn1_sm_p1_0 000000018004f6d8     libvorbisenc:vorbisenc.obj
 0002:000176e8       _8c0_s_p9_0                000000018004f6e8     libvorbisenc:vorbisenc.obj
 0002:00017720       _huff_lengthlist_line_2048x27_class1 000000018004f720     libvorbisenc:vorbisenc.obj
 0002:00017760       _resbook_44u_2             000000018004f760     libvorbisenc:vorbisenc.obj
 0002:000178e0       _44p8_p7_3                 000000018004f8e0     libvorbisenc:vorbisenc.obj
 0002:00017918       _44u7__p4_0                000000018004f918     libvorbisenc:vorbisenc.obj
 0002:00017950       _vq_quantlist__44p3_p7_3   000000018004f950     libvorbisenc:vorbisenc.obj
 0002:000179b8       _44c6_s_p9_1               000000018004f9b8     libvorbisenc:vorbisenc.obj
 0002:000179f0       _vq_lengthlist__44u6__p4_0 000000018004f9f0     libvorbisenc:vorbisenc.obj
 0002:000183b8       _44c0_s_p8_2               00000001800503b8     libvorbisenc:vorbisenc.obj
 0002:000183f0       _vq_lengthlist__44u3__p4_0 00000001800503f0     libvorbisenc:vorbisenc.obj
 0002:00018db8       _16c2_s_p8_0               0000000180050db8     libvorbisenc:vorbisenc.obj
 0002:00018df0       _huff_lengthlist_line_128x17_3sub1 0000000180050df0     libvorbisenc:vorbisenc.obj
 0002:00018e38       _vq_quantlist__44p0_p3_1   0000000180050e38     libvorbisenc:vorbisenc.obj
 0002:00018e50       _vq_lengthlist__44p5_p1_0  0000000180050e50     libvorbisenc:vorbisenc.obj
 0002:00019220       _vq_quantlist__44p9_p7_1   0000000180051220     libvorbisenc:vorbisenc.obj
 0002:00019238       _44u0__p7_1                0000000180051238     libvorbisenc:vorbisenc.obj
 0002:00019270       _huff_lengthlist__44u8__short 0000000180051270     libvorbisenc:vorbisenc.obj
 0002:00019400       _vq_lengthlist__44u0__p3_0 0000000180051400     libvorbisenc:vorbisenc.obj
 0002:00019dc8       _vq_quantlist__44p3_p4_1   0000000180051dc8     libvorbisenc:vorbisenc.obj
 0002:00019de0       _vq_lengthlist__44p8_p7_1  0000000180051de0     libvorbisenc:vorbisenc.obj
 0002:0001ceb8       _vq_quantlist__44c7_s_p6_0 0000000180054eb8     libvorbisenc:vorbisenc.obj
 0002:0001cef0       _vq_lengthlist__44u8_p7_1  0000000180054ef0     libvorbisenc:vorbisenc.obj
 0002:0001d0d8       _vq_quantlist__44c0_s_p1_0 00000001800550d8     libvorbisenc:vorbisenc.obj
 0002:0001d0e8       _44u8_p8_1                 00000001800550e8     libvorbisenc:vorbisenc.obj
 0002:0001d120       _vq_quantlist__44p0_p6_2   0000000180055120     libvorbisenc:vorbisenc.obj
 0002:0001d188       _16c1_s_p9_0               0000000180055188     libvorbisenc:vorbisenc.obj
 0002:0001d1c0       _psy_compand_44            00000001800551c0     libvorbisenc:vorbisenc.obj
 0002:0001d580       _res_44s_n1                0000000180055580     libvorbisenc:vorbisenc.obj
 0002:0001d5f0       _vq_quantlist__44p5_p4_0   00000001800555f0     libvorbisenc:vorbisenc.obj
 0002:0001d600       _vq_quantlist__44p8_p5_1   0000000180055600     libvorbisenc:vorbisenc.obj
 0002:0001d620       _vq_lengthlist__44p7_p1_0  0000000180055620     libvorbisenc:vorbisenc.obj
 0002:0001d9f0       _huff_lengthlist__44c2_s_long 00000001800559f0     libvorbisenc:vorbisenc.obj
 0002:0001db80       _vq_quantlist__44p7_p1_0   0000000180055b80     libvorbisenc:vorbisenc.obj
 0002:0001db90       _huff_book_line_128x11_class3 0000000180055b90     libvorbisenc:vorbisenc.obj
 0002:0001dbc8       _huff_book__8c0_s_single   0000000180055bc8     libvorbisenc:vorbisenc.obj
 0002:0001dc00       quality_mapping_44         0000000180055c00     libvorbisenc:vorbisenc.obj
 0002:0001dc60       _vq_lengthlist__44cn1_s_p6_1 0000000180055c60     libvorbisenc:vorbisenc.obj
 0002:0001de48       _44c6_s_p7_1               0000000180055e48     libvorbisenc:vorbisenc.obj
 0002:0001de80       _vq_quantlist__44p1_p2_0   0000000180055e80     libvorbisenc:vorbisenc.obj
 0002:0001de90       _huff_book_line_128x7_0sub3 0000000180055e90     libvorbisenc:vorbisenc.obj
 0002:0001dec8       _44u8_p8_0                 0000000180055ec8     libvorbisenc:vorbisenc.obj
 0002:0001df00       _vq_quantlist__8c0_s_p7_1  0000000180055f00     libvorbisenc:vorbisenc.obj
 0002:0001df30       _huff_lengthlist_line_128x7_0sub2 0000000180055f30     libvorbisenc:vorbisenc.obj
 0002:0001df98       _vq_quantlist__44u8_p7_0   0000000180055f98     libvorbisenc:vorbisenc.obj
 0002:0001dfd0       _44c9_s_p5_0               0000000180055fd0     libvorbisenc:vorbisenc.obj
 0002:0001e008       _44c8_s_p9_1               0000000180056008     libvorbisenc:vorbisenc.obj
 0002:0001e040       _vq_quantlist__16c0_s_p4_0 0000000180056040     libvorbisenc:vorbisenc.obj
 0002:0001e068       _vq_quantlist__44un1__p7_2 0000000180056068     libvorbisenc:vorbisenc.obj
 0002:0001e0a0       _huff_lengthlist_line_2048x27_2sub0 00000001800560a0     libvorbisenc:vorbisenc.obj
 0002:0001e120       _huff_lengthlist_line_128x11_3sub3 0000000180056120     libvorbisenc:vorbisenc.obj
 0002:0001e320       _vq_quantlist__44c3_s_p9_1 0000000180056320     libvorbisenc:vorbisenc.obj
 0002:0001e360       _44p5_p7_3                 0000000180056360     libvorbisenc:vorbisenc.obj
 0002:0001e398       _44c0_sm_p7_0              0000000180056398     libvorbisenc:vorbisenc.obj
 0002:0001e3d0       _vq_lengthlist__44u5__p6_0 00000001800563d0     libvorbisenc:vorbisenc.obj
 0002:0001e518       _vq_quantlist__44c2_s_p8_1 0000000180056518     libvorbisenc:vorbisenc.obj
 0002:0001e530       _vq_lengthlist__8u0__p7_2  0000000180056530     libvorbisenc:vorbisenc.obj
 0002:0001ec18       _44p8_p5_1                 0000000180056c18     libvorbisenc:vorbisenc.obj
 0002:0001ec50       _vq_lengthlist__44c5_s_p1_0 0000000180056c50     libvorbisenc:vorbisenc.obj
 0002:000252d8       _vq_quantlist__44u9_p8_0   000000018005d2d8     libvorbisenc:vorbisenc.obj
 0002:00025318       _44cn1_s_p8_2              000000018005d318     libvorbisenc:vorbisenc.obj
 0002:00025350       _vq_lengthlist__44c0_s_p4_0 000000018005d350     libvorbisenc:vorbisenc.obj
 0002:00025498       _huff_book_line_2048x27_4sub3 000000018005d498     libvorbisenc:vorbisenc.obj
 0002:000254d0       _residue_44_hi_un          000000018005d4d0     libvorbisenc:vorbisenc.obj
 0002:00025fe8       _44c4_s_p4_0               000000018005dfe8     libvorbisenc:vorbisenc.obj
 0002:00026020       _vq_lengthlist__44u9_p9_2  000000018005e020     libvorbisenc:vorbisenc.obj
 0002:000260e8       _vq_quantlist__44c3_s_p9_0 000000018005e0e8     libvorbisenc:vorbisenc.obj
 0002:00026120       _vq_lengthlist__16u2_p6_0  000000018005e120     libvorbisenc:vorbisenc.obj
 0002:000263c8       _44p5_p5_1                 000000018005e3c8     libvorbisenc:vorbisenc.obj
 0002:00026400       _vq_quantlist__44c8_s_p7_0 000000018005e400     libvorbisenc:vorbisenc.obj
 0002:00026438       _8c0_s_p8_0                000000018005e438     libvorbisenc:vorbisenc.obj
 0002:00026470       _vq_lengthlist__44u6__p5_0 000000018005e470     libvorbisenc:vorbisenc.obj
 0002:000265b8       _vq_quantlist__8u1__p4_0   000000018005e5b8     libvorbisenc:vorbisenc.obj
 0002:000265d0       _vq_lengthlist__44p2_p3_0  000000018005e5d0     libvorbisenc:vorbisenc.obj
 0002:000269a0       _res_44p51_8               000000018005e9a0     libvorbisenc:vorbisenc.obj
 0002:00026a48       _vq_quantlist__8c0_s_p1_0  000000018005ea48     libvorbisenc:vorbisenc.obj
 0002:00026a58       _8u1__p5_0                 000000018005ea58     libvorbisenc:vorbisenc.obj
 0002:00026a90       _vq_lengthlist__44p0_p6_0  000000018005ea90     libvorbisenc:vorbisenc.obj
 0002:00026e60       _vq_lengthlist__44c5_s_p3_0 000000018005ee60     libvorbisenc:vorbisenc.obj
 0002:00027828       _vq_quantlist__44p5_p4_1   000000018005f828     libvorbisenc:vorbisenc.obj
 0002:00027840       _vq_lengthlist__44c2_s_p7_1 000000018005f840     libvorbisenc:vorbisenc.obj
 0002:00027a28       _huff_book_line_2048x27_3sub2 000000018005fa28     libvorbisenc:vorbisenc.obj
 0002:00027a60       _vq_lengthlist__44c1_s_p7_1 000000018005fa60     libvorbisenc:vorbisenc.obj
 0002:00027ac8       _vq_quantlist__44p2_p3_0   000000018005fac8     libvorbisenc:vorbisenc.obj
 0002:00027ad8       _huff_book__44p5_lfe       000000018005fad8     libvorbisenc:vorbisenc.obj
 0002:00027b10       _vq_lengthlist__44p8_p5_0  000000018005fb10     libvorbisenc:vorbisenc.obj
 0002:0002abe8       _44u6__p8_1                0000000180062be8     libvorbisenc:vorbisenc.obj
 0002:0002ac20       _huff_lengthlist__44p7_short 0000000180062c20     libvorbisenc:vorbisenc.obj
 0002:0002ad20       _vq_lengthlist__44c3_s_p1_0 0000000180062d20     libvorbisenc:vorbisenc.obj
 0002:000313a8       _vq_quantlist__44pn1_p3_1  00000001800693a8     libvorbisenc:vorbisenc.obj
 0002:000313c0       _vq_lengthlist__44p3_p7_3  00000001800693c0     libvorbisenc:vorbisenc.obj
 0002:00031428       _44p3_p3_1                 0000000180069428     libvorbisenc:vorbisenc.obj
 0002:00031460       _vq_lengthlist__44u6__p3_0 0000000180069460     libvorbisenc:vorbisenc.obj
 0002:00031e28       _vq_quantlist__44u1__p3_0  0000000180069e28     libvorbisenc:vorbisenc.obj
 0002:00031e40       _vq_lengthlist__8c1_s_p1_0 0000000180069e40     libvorbisenc:vorbisenc.obj
 0002:000384c8       _8u1__p1_0                 00000001800704c8     libvorbisenc:vorbisenc.obj
 0002:00038500       _vq_lengthlist__44c8_s_p9_0 0000000180070500     libvorbisenc:vorbisenc.obj
 0002:00038988       _44c2_s_p1_0               0000000180070988     libvorbisenc:vorbisenc.obj
 0002:000389c0       _vq_quantlist__16c0_s_p9_2 00000001800709c0     libvorbisenc:vorbisenc.obj
 0002:00038a18       _vq_quantlist__16u1__p7_1  0000000180070a18     libvorbisenc:vorbisenc.obj
 0002:00038a48       _huff_book_line_2048x27_1sub1 0000000180070a48     libvorbisenc:vorbisenc.obj
 0002:00038a80       _resbook_44p_n1            0000000180070a80     libvorbisenc:vorbisenc.obj
 0002:00038c00       _huff_lengthlist__44c5_s_long 0000000180070c00     libvorbisenc:vorbisenc.obj
 0002:00038d90       _44u9_p5_1                 0000000180070d90     libvorbisenc:vorbisenc.obj
 0002:00038dc8       _huff_book_line_128x11_1sub1 0000000180070dc8     libvorbisenc:vorbisenc.obj
 0002:00038e00       _vq_lengthlist__44p8_p7_2  0000000180070e00     libvorbisenc:vorbisenc.obj
 0002:00038e68       _vq_quantlist__44un1__p4_0 0000000180070e68     libvorbisenc:vorbisenc.obj
 0002:00038e80       _vq_lengthlist__44u5__p4_0 0000000180070e80     libvorbisenc:vorbisenc.obj
 0002:00039848       _44c3_s_p8_0               0000000180071848     libvorbisenc:vorbisenc.obj
 0002:00039880       _vq_lengthlist__16u1__p3_0 0000000180071880     libvorbisenc:vorbisenc.obj
 0002:0003a248       _44u8_p2_0                 0000000180072248     libvorbisenc:vorbisenc.obj
 0002:0003a280       _44u6__p6_0                0000000180072280     libvorbisenc:vorbisenc.obj
 0002:0003a2b8       _44p7_l0_0                 00000001800722b8     libvorbisenc:vorbisenc.obj
 0002:0003a2f0       _huff_lengthlist__16u1__long 00000001800722f0     libvorbisenc:vorbisenc.obj
 0002:0003a480       _vq_quantlist__44p2_p5_1   0000000180072480     libvorbisenc:vorbisenc.obj
 0002:0003a4a0       _huff_lengthlist__44p0_short 00000001800724a0     libvorbisenc:vorbisenc.obj
 0002:0003a568       _vq_quantlist__44u6__p8_0  0000000180072568     libvorbisenc:vorbisenc.obj
 0002:0003a598       _vq_quantlist__16u1__p4_0  0000000180072598     libvorbisenc:vorbisenc.obj
 0002:0003a5b0       _vq_lengthlist__44p6_p2_0  00000001800725b0     libvorbisenc:vorbisenc.obj
 0002:0003d688       _huff_book_line_128x4_class0 0000000180075688     libvorbisenc:vorbisenc.obj
 0002:0003d6c0       _44p2_p7_0                 00000001800756c0     libvorbisenc:vorbisenc.obj
 0002:0003d6f8       _vq_quantlist__44u5__p9_1  00000001800756f8     libvorbisenc:vorbisenc.obj
 0002:0003d738       _44u5__p7_1                0000000180075738     libvorbisenc:vorbisenc.obj
 0002:0003d770       _vq_lengthlist__16c0_s_p6_0 0000000180075770     libvorbisenc:vorbisenc.obj
 0002:0003dbf8       _44pn1_p6_2                0000000180075bf8     libvorbisenc:vorbisenc.obj
 0002:0003dc30       _huff_lengthlist_line_1024x27_3sub1 0000000180075c30     libvorbisenc:vorbisenc.obj
 0002:0003dc78       _44p4_p5_1                 0000000180075c78     libvorbisenc:vorbisenc.obj
 0002:0003dcb0       _vq_lengthlist__44p0_p3_1  0000000180075cb0     libvorbisenc:vorbisenc.obj
 0002:00040d88       _vq_quantlist__44p3_l0_0   0000000180078d88     libvorbisenc:vorbisenc.obj
 0002:00040dc0       _vq_lengthlist__44p8_p7_0  0000000180078dc0     libvorbisenc:vorbisenc.obj
 0002:00041190       _vq_lengthlist__44p5_p7_0  0000000180079190     libvorbisenc:vorbisenc.obj
 0002:00041560       _vq_lengthlist__8c1_s_p8_1 0000000180079560     libvorbisenc:vorbisenc.obj
 0002:000415c8       _huff_book__44c1_s_long    00000001800795c8     libvorbisenc:vorbisenc.obj
 0002:00041600       _vq_lengthlist__44p7_p7_3  0000000180079600     libvorbisenc:vorbisenc.obj
 0002:00041668       _44p5_p5_0                 0000000180079668     libvorbisenc:vorbisenc.obj
 0002:000416a0       _vq_lengthlist__44u5__p7_0 00000001800796a0     libvorbisenc:vorbisenc.obj
 0002:000417e8       _vq_quantlist__44p6_p7_1   00000001800797e8     libvorbisenc:vorbisenc.obj
 0002:000417f8       _44p4_l0_0                 00000001800797f8     libvorbisenc:vorbisenc.obj
 0002:00041830       _vq_lengthlist__44c7_s_p5_0 0000000180079830     libvorbisenc:vorbisenc.obj
 0002:00041978       _vq_quantlist__16u2_p7_1   0000000180079978     libvorbisenc:vorbisenc.obj
 0002:000419a8       _huff_book_line_2048x27_0sub0 00000001800799a8     libvorbisenc:vorbisenc.obj
 0002:000419e0       _vq_lengthlist__44cn1_s_p3_0 00000001800799e0     libvorbisenc:vorbisenc.obj
 0002:00041b28       _vq_quantlist__44u1__p2_0  0000000180079b28     libvorbisenc:vorbisenc.obj
 0002:00041b38       _huff_book__44pn1_short    0000000180079b38     libvorbisenc:vorbisenc.obj
 0002:00041b70       _vq_lengthlist__44u7__p8_1 0000000180079b70     libvorbisenc:vorbisenc.obj
 0002:00041d58       _8u0__p7_1                 0000000180079d58     libvorbisenc:vorbisenc.obj
 0002:00041d90       _vq_lengthlist__44c4_s_p2_0 0000000180079d90     libvorbisenc:vorbisenc.obj
 0002:00042758       _44p7_p6_0                 000000018007a758     libvorbisenc:vorbisenc.obj
 0002:00042790       _vq_lengthlist__44un1__p6_0 000000018007a790     libvorbisenc:vorbisenc.obj
 0002:00042a38       _huff_book__16u0__single   000000018007aa38     libvorbisenc:vorbisenc.obj
 0002:00042a70       _vq_lengthlist__44p1_l0_1  000000018007aa70     libvorbisenc:vorbisenc.obj
 0002:00042ad8       _44p4_p7_0                 000000018007aad8     libvorbisenc:vorbisenc.obj
 0002:00042b10       _noise_thresh_11           000000018007ab10     libvorbisenc:vorbisenc.obj
 0002:00042b28       _44u6__p2_0                000000018007ab28     libvorbisenc:vorbisenc.obj
 0002:00042b60       _huff_lengthlist_line_512x17_2sub2 000000018007ab60     libvorbisenc:vorbisenc.obj
 0002:00042c28       _vq_quantlist__44p3_p3_0   000000018007ac28     libvorbisenc:vorbisenc.obj
 0002:00042c38       _huff_book_line_128x11_class2 000000018007ac38     libvorbisenc:vorbisenc.obj
 0002:00042c70       _vq_lengthlist__44c0_sm_p4_0 000000018007ac70     libvorbisenc:vorbisenc.obj
 0002:00042db8       _vq_quantlist__44c9_s_p7_1 000000018007adb8     libvorbisenc:vorbisenc.obj
 0002:00042de8       _floor_mapping_44a         000000018007ade8     libvorbisenc:vorbisenc.obj
 0002:00042e18       _psy_lowpass_8             000000018007ae18     libvorbisenc:vorbisenc.obj
 0002:00042e30       _resbook_44sm_0            000000018007ae30     libvorbisenc:vorbisenc.obj
 0002:00042fb0       _vq_lengthlist__44c3_s_p9_1 000000018007afb0     libvorbisenc:vorbisenc.obj
 0002:00043338       _44u9_p9_2                 000000018007b338     libvorbisenc:vorbisenc.obj
 0002:00043370       _huff_lengthlist__44u7__long 000000018007b370     libvorbisenc:vorbisenc.obj
 0002:00043500       _44pn1_p2_0                000000018007b500     libvorbisenc:vorbisenc.obj
 0002:00043538       _44c2_s_p9_0               000000018007b538     libvorbisenc:vorbisenc.obj
 0002:00043570       _vq_lengthlist__44p5_p4_1  000000018007b570     libvorbisenc:vorbisenc.obj
 0002:00046648       _44p7_l1_0                 000000018007e648     libvorbisenc:vorbisenc.obj
 0002:00046680       _huff_lengthlist_line_1024x27_2sub1 000000018007e680     libvorbisenc:vorbisenc.obj
 0002:00046880       _vq_lengthlist__44c0_s_p7_0 000000018007e880     libvorbisenc:vorbisenc.obj
 0002:00046b28       _44c3_s_p6_0               000000018007eb28     libvorbisenc:vorbisenc.obj
 0002:00046b60       _vq_lengthlist__8c0_s_p8_0 000000018007eb60     libvorbisenc:vorbisenc.obj
 0002:00046e08       _vq_lengthlist__44p9_p5_1  000000018007ee08     libvorbisenc:vorbisenc.obj
 0002:00046e28       _44p2_p5_1                 000000018007ee28     libvorbisenc:vorbisenc.obj
 0002:00046e60       _44p6_p7_1                 000000018007ee60     libvorbisenc:vorbisenc.obj
 0002:00046e98       _vq_quantlist__44c6_s_p7_0 000000018007ee98     libvorbisenc:vorbisenc.obj
 0002:00046ed0       _psy_noiseguards_8         000000018007eed0     libvorbisenc:vorbisenc.obj
 0002:00046ee8       _44u7__p9_0                000000018007eee8     libvorbisenc:vorbisenc.obj
 0002:00046f20       _resbook_44u_9             000000018007ef20     libvorbisenc:vorbisenc.obj
 0002:000470a0       _vq_lengthlist__44u2__p6_0 000000018007f0a0     libvorbisenc:vorbisenc.obj
 0002:00047348       _vq_quantlist__44p7_p3_1   000000018007f348     libvorbisenc:vorbisenc.obj
 0002:00047358       _vq_quantlist__44p7_p3_0   000000018007f358     libvorbisenc:vorbisenc.obj
 0002:00047368       _huff_book_line_128x17_1sub0 000000018007f368     libvorbisenc:vorbisenc.obj
 0002:000473a0       _vq_lengthlist__44p0_p1_0  000000018007f3a0     libvorbisenc:vorbisenc.obj
 0002:00047770       _44c8_s_p9_2               000000018007f770     libvorbisenc:vorbisenc.obj
 0002:000477a8       blocksize_16_long          000000018007f7a8     libvorbisenc:vorbisenc.obj
 0002:000477b8       _16c1_s_p8_0               000000018007f7b8     libvorbisenc:vorbisenc.obj
 0002:000477f0       _vq_lengthlist__44u3__p7_1 000000018007f7f0     libvorbisenc:vorbisenc.obj
 0002:00047b78       _44u6__p1_0                000000018007fb78     libvorbisenc:vorbisenc.obj
 0002:00047bb0       _vq_lengthlist__44c9_s_p1_0 000000018007fbb0     libvorbisenc:vorbisenc.obj
 0002:00047cf8       _vq_quantlist__8c1_s_p5_0  000000018007fcf8     libvorbisenc:vorbisenc.obj
 0002:00047d20       _vq_lengthlist__16u1__p7_0 000000018007fd20     libvorbisenc:vorbisenc.obj
 0002:00047e68       _44p4_l0_1                 000000018007fe68     libvorbisenc:vorbisenc.obj
 0002:00047ea0       _vq_quantlist__44p9_p4_1   000000018007fea0     libvorbisenc:vorbisenc.obj
 0002:00047eb8       _vq_quantlist__44c1_s_p3_0 000000018007feb8     libvorbisenc:vorbisenc.obj
 0002:00047ee0       _vq_lengthlist__44cn1_sm_p5_0 000000018007fee0     libvorbisenc:vorbisenc.obj
 0002:00048368       _vq_quantlist__44pn1_p5_1  0000000180080368     libvorbisenc:vorbisenc.obj
 0002:00048378       _vq_quantlist__44c7_s_p7_0 0000000180080378     libvorbisenc:vorbisenc.obj
 0002:000483b0       _psy_noisebias_trans       00000001800803b0     libvorbisenc:vorbisenc.obj
 0002:00048d40       _vq_lengthlist__44u9_p3_0  0000000180080d40     libvorbisenc:vorbisenc.obj
 0002:00048e88       _44u7__p2_0                0000000180080e88     libvorbisenc:vorbisenc.obj
 0002:00048ec0       _vq_lengthlist__44un1__p7_1 0000000180080ec0     libvorbisenc:vorbisenc.obj
 0002:00049168       _vq_quantlist__44u0__p6_0  0000000180081168     libvorbisenc:vorbisenc.obj
 0002:000491a0       _resbook_44p_2             00000001800811a0     libvorbisenc:vorbisenc.obj
 0002:00049320       _vq_lengthlist__44c3_s_p6_0 0000000180081320     libvorbisenc:vorbisenc.obj
 0002:000497a8       _vq_quantlist__44pn1_p4_0  00000001800817a8     libvorbisenc:vorbisenc.obj
 0002:000497c0       _huff_lengthlist__44c2_s_short 00000001800817c0     libvorbisenc:vorbisenc.obj
 0002:00049950       _vq_lengthlist__44u1__p7_2 0000000180081950     libvorbisenc:vorbisenc.obj
 0002:00049bf8       _44p5_p3_1                 0000000180081bf8     libvorbisenc:vorbisenc.obj
 0002:00049c30       _res_44p51_4               0000000180081c30     libvorbisenc:vorbisenc.obj
 0002:00049cd8       _huff_book_line_128x17_3sub2 0000000180081cd8     libvorbisenc:vorbisenc.obj
 0002:00049d10       _huff_lengthlist__44p2_short 0000000180081d10     libvorbisenc:vorbisenc.obj
 0002:00049e10       _vq_lengthlist__44u5__p9_2 0000000180081e10     libvorbisenc:vorbisenc.obj
 0002:0004a298       _huff_book_line_256x4low_0sub0 0000000180082298     libvorbisenc:vorbisenc.obj
 0002:0004a2d0       _huff_lengthlist__44u0__short 00000001800822d0     libvorbisenc:vorbisenc.obj
 0002:0004a3d0       _huff_book_line_2048x27_class1 00000001800823d0     libvorbisenc:vorbisenc.obj
 0002:0004a408       _vq_lengthlist__44pn1_p4_1 0000000180082408     libvorbisenc:vorbisenc.obj
 0002:0004a428       _44p2_p4_1                 0000000180082428     libvorbisenc:vorbisenc.obj
 0002:0004a460       _huff_book_line_2048x27_1sub0 0000000180082460     libvorbisenc:vorbisenc.obj
 0002:0004a498       _vq_quantlist__44p2_p7_0   0000000180082498     libvorbisenc:vorbisenc.obj
 0002:0004a4a8       _44p9_l0_1                 00000001800824a8     libvorbisenc:vorbisenc.obj
 0002:0004a4e0       _vq_quantlist__44c5_s_p7_0 00000001800824e0     libvorbisenc:vorbisenc.obj
 0002:0004a4f0       _vq_quantlist__44p2_p3_1   00000001800824f0     libvorbisenc:vorbisenc.obj
 0002:0004a500       _vq_quantlist__44u6__p1_0  0000000180082500     libvorbisenc:vorbisenc.obj
 0002:0004a510       _44c1_s_p8_2               0000000180082510     libvorbisenc:vorbisenc.obj
 0002:0004a548       _16u2_p5_0                 0000000180082548     libvorbisenc:vorbisenc.obj
 0002:0004a580       _44p9_p7_3                 0000000180082580     libvorbisenc:vorbisenc.obj
 0002:0004a5b8       _8u0__p2_0                 00000001800825b8     libvorbisenc:vorbisenc.obj
 0002:0004a5f0       _vq_lengthlist__44c1_s_p6_0 00000001800825f0     libvorbisenc:vorbisenc.obj
 0002:0004a738       _huff_book__44p0_lfe       0000000180082738     libvorbisenc:vorbisenc.obj
 0002:0004a770       _44c9_s_p6_1               0000000180082770     libvorbisenc:vorbisenc.obj
 0002:0004a7a8       _huff_book_line_128x4_0sub1 00000001800827a8     libvorbisenc:vorbisenc.obj
 0002:0004a7e0       _vq_lengthlist__44c6_s_p5_0 00000001800827e0     libvorbisenc:vorbisenc.obj
 0002:0004a928       _44p4_p7_1                 0000000180082928     libvorbisenc:vorbisenc.obj
 0002:0004a960       _resbook_44sm_1            0000000180082960     libvorbisenc:vorbisenc.obj
 0002:0004aae0       _vq_lengthlist__44u7__p9_1 0000000180082ae0     libvorbisenc:vorbisenc.obj
 0002:0004ad88       _vq_quantlist__44u7__p1_0  0000000180082d88     libvorbisenc:vorbisenc.obj
 0002:0004ad98       _44c4_s_p8_1               0000000180082d98     libvorbisenc:vorbisenc.obj
 0002:0004add0       _huff_lengthlist_line_128x11_1sub1 0000000180082dd0     libvorbisenc:vorbisenc.obj
 0002:0004afd0       _vq_quantlist__44c8_s_p7_1 0000000180082fd0     libvorbisenc:vorbisenc.obj
 0002:0004b000       _vq_lengthlist__44c8_s_p4_0 0000000180083000     libvorbisenc:vorbisenc.obj
 0002:0004b488       _vq_quantlist__44u2__p4_0  0000000180083488     libvorbisenc:vorbisenc.obj
 0002:0004b4a0       _vq_lengthlist__44c1_s_p4_0 00000001800834a0     libvorbisenc:vorbisenc.obj
 0002:0004b5e8       _huff_book__44cn1_s_long   00000001800835e8     libvorbisenc:vorbisenc.obj
 0002:0004b620       _vq_lengthlist__44c5_s_p9_2 0000000180083620     libvorbisenc:vorbisenc.obj
 0002:0004bd08       _huff_lengthlist__44p2_lfe 0000000180083d08     libvorbisenc:vorbisenc.obj
 0002:0004bd18       _huff_book_line_1024x27_4sub2 0000000180083d18     libvorbisenc:vorbisenc.obj
 0002:0004bd50       _vq_lengthlist__44u1__p3_0 0000000180083d50     libvorbisenc:vorbisenc.obj
 0002:0004c718       _vq_quantlist__44p8_p6_0   0000000180084718     libvorbisenc:vorbisenc.obj
 0002:0004c728       _huff_lengthlist_line_512x17_class1 0000000180084728     libvorbisenc:vorbisenc.obj
 0002:0004c748       _vq_quantlist__44p2_p5_0   0000000180084748     libvorbisenc:vorbisenc.obj
 0002:0004c760       _huff_lengthlist__44p2_long 0000000180084760     libvorbisenc:vorbisenc.obj
 0002:0004c860       _noise_part_long_44        0000000180084860     libvorbisenc:vorbisenc.obj
 0002:0004c890       _huff_lengthlist_line_256x4low_class0 0000000180084890     libvorbisenc:vorbisenc.obj
 0002:0004cc90       _vq_lengthlist__44u7__p3_0 0000000180084c90     libvorbisenc:vorbisenc.obj
 0002:0004d658       _vq_quantlist__44c2_s_p7_0 0000000180085658     libvorbisenc:vorbisenc.obj
 0002:0004d668       _vq_quantlist__16u1__p3_0  0000000180085668     libvorbisenc:vorbisenc.obj
 0002:0004d680       _vq_quantlist__16u2_p9_2   0000000180085680     libvorbisenc:vorbisenc.obj
 0002:0004d748       _huff_book_line_128x17_2sub1 0000000180085748     libvorbisenc:vorbisenc.obj
 0002:0004d780       _huff_lengthlist__44p8_short 0000000180085780     libvorbisenc:vorbisenc.obj
 0002:0004d880       _44u0__p7_0                0000000180085880     libvorbisenc:vorbisenc.obj
 0002:0004d8b8       _vq_lengthlist__44p2_l1_0  00000001800858b8     libvorbisenc:vorbisenc.obj
 0002:0004d8e0       _vq_lengthlist__44u6__p8_1 00000001800858e0     libvorbisenc:vorbisenc.obj
 0002:0004dac8       _44c5_s_p9_1               0000000180085ac8     libvorbisenc:vorbisenc.obj
 0002:0004db00       _huff_lengthlist__44c7_s_short 0000000180085b00     libvorbisenc:vorbisenc.obj
 0002:0004dc90       _vq_quantlist__44p0_p5_1   0000000180085c90     libvorbisenc:vorbisenc.obj
 0002:0004dca0       _vq_lengthlist__44p0_l1_0  0000000180085ca0     libvorbisenc:vorbisenc.obj
 0002:0004dcc8       _huff_book_line_128x11_2sub2 0000000180085cc8     libvorbisenc:vorbisenc.obj
 0002:0004dd00       _vq_quantlist__44u4__p7_2  0000000180085d00     libvorbisenc:vorbisenc.obj
 0002:0004dd48       _44pn1_p2_1                0000000180085d48     libvorbisenc:vorbisenc.obj
 0002:0004dd80       _vq_lengthlist__44p3_p5_0  0000000180085d80     libvorbisenc:vorbisenc.obj
 0002:00050e58       _44p8_p2_0                 0000000180088e58     libvorbisenc:vorbisenc.obj
 0002:00050e90       _vq_lengthlist__44p0_p5_1  0000000180088e90     libvorbisenc:vorbisenc.obj
 0002:00051260       _vq_lengthlist__44p6_l0_0  0000000180089260     libvorbisenc:vorbisenc.obj
 0002:00051508       _8u0__p1_0                 0000000180089508     libvorbisenc:vorbisenc.obj
 0002:00051540       _vq_lengthlist__44u4__p3_0 0000000180089540     libvorbisenc:vorbisenc.obj
 0002:00051f08       _44p6_l1_0                 0000000180089f08     libvorbisenc:vorbisenc.obj
 0002:00051f40       _vq_lengthlist__44c1_s_p2_0 0000000180089f40     libvorbisenc:vorbisenc.obj
 0002:00052908       _8u1__p8_0                 000000018008a908     libvorbisenc:vorbisenc.obj
 0002:00052940       _resbook_44p_1             000000018008a940     libvorbisenc:vorbisenc.obj
 0002:00052ac0       _vq_lengthlist__44p7_p5_0  000000018008aac0     libvorbisenc:vorbisenc.obj
 0002:00055b98       _vq_quantlist__44u9_p5_1   000000018008db98     libvorbisenc:vorbisenc.obj
 0002:00055bc8       _vq_quantlist__44p8_p7_0   000000018008dbc8     libvorbisenc:vorbisenc.obj
 0002:00055bd8       _44c6_s_p1_0               000000018008dbd8     libvorbisenc:vorbisenc.obj
 0002:00055c10       _huff_lengthlist_line_128x11_2sub1 000000018008dc10     libvorbisenc:vorbisenc.obj
 0002:00055c58       _huff_book__44p6_long      000000018008dc58     libvorbisenc:vorbisenc.obj
 0002:00055c90       _vq_lengthlist__44u1__p6_0 000000018008dc90     libvorbisenc:vorbisenc.obj
 0002:00055f38       _44c6_s_p9_0               000000018008df38     libvorbisenc:vorbisenc.obj
 0002:00055f70       _huff_lengthlist__44c7_s_long 000000018008df70     libvorbisenc:vorbisenc.obj
 0002:00056100       _huff_lengthlist_line_128x11_1sub0 000000018008e100     libvorbisenc:vorbisenc.obj
 0002:00056180       _vq_lengthlist__16u2_p6_1  000000018008e180     libvorbisenc:vorbisenc.obj
 0002:000561e8       _huff_book__44u0__long     000000018008e1e8     libvorbisenc:vorbisenc.obj
 0002:00056220       _8u0__p6_0                 000000018008e220     libvorbisenc:vorbisenc.obj
 0002:00056258       _vq_quantlist__44p4_l0_1   000000018008e258     libvorbisenc:vorbisenc.obj
 0002:00056270       _vq_quantlist__44c2_s_p8_0 000000018008e270     libvorbisenc:vorbisenc.obj
 0002:000562a8       _16u1__p1_0                000000018008e2a8     libvorbisenc:vorbisenc.obj
 0002:000562e0       _vq_quantlist__16u0__p7_2  000000018008e2e0     libvorbisenc:vorbisenc.obj
 0002:00056338       _vq_quantlist__44p7_l1_0   000000018008e338     libvorbisenc:vorbisenc.obj
 0002:00056350       _vq_lengthlist__44c7_s_p1_0 000000018008e350     libvorbisenc:vorbisenc.obj
 0002:00056498       _44pn1_l0_1                000000018008e498     libvorbisenc:vorbisenc.obj
 0002:000564d0       _huff_lengthlist_line_2048x27_1sub0 000000018008e4d0     libvorbisenc:vorbisenc.obj
 0002:00056550       _resbook_44p_3             000000018008e550     libvorbisenc:vorbisenc.obj
 0002:000566d0       _noise_start_long_44       000000018008e6d0     libvorbisenc:vorbisenc.obj
 0002:00056700       _vq_quantlist__44p1_p6_1   000000018008e700     libvorbisenc:vorbisenc.obj
 0002:00056768       _vq_quantlist__44p6_l0_1   000000018008e768     libvorbisenc:vorbisenc.obj
 0002:00056780       _vq_quantlist__44cn1_sm_p7_1 000000018008e780     libvorbisenc:vorbisenc.obj
 0002:00056798       _vq_quantlist__44p6_p5_1   000000018008e798     libvorbisenc:vorbisenc.obj
 0002:000567b8       _vq_quantlist__44c3_s_p1_0 000000018008e7b8     libvorbisenc:vorbisenc.obj
 0002:000567c8       _44c8_s_p5_0               000000018008e7c8     libvorbisenc:vorbisenc.obj
 0002:00056800       _vq_lengthlist__44p6_p7_0  000000018008e800     libvorbisenc:vorbisenc.obj
 0002:00056bd0       _huff_lengthlist__44p8_lfe 000000018008ebd0     libvorbisenc:vorbisenc.obj
 0002:00056be0       _44u6__p8_0                000000018008ebe0     libvorbisenc:vorbisenc.obj
 0002:00056c18       _vq_quantlist__16c2_s_p1_0 000000018008ec18     libvorbisenc:vorbisenc.obj
 0002:00056c28       _huff_book_line_1024x27_1sub0 000000018008ec28     libvorbisenc:vorbisenc.obj
 0002:00056c60       _vq_lengthlist__44c5_s_p9_0 000000018008ec60     libvorbisenc:vorbisenc.obj
 0002:00056fe8       _44p2_p5_0                 000000018008efe8     libvorbisenc:vorbisenc.obj
 0002:00057020       _vq_lengthlist__44c9_s_p7_1 000000018008f020     libvorbisenc:vorbisenc.obj
 0002:00057208       _vq_quantlist__44p3_l0_1   000000018008f208     libvorbisenc:vorbisenc.obj
 0002:00057220       _vq_lengthlist__44u8_p7_0  000000018008f220     libvorbisenc:vorbisenc.obj
 0002:000574c8       _16c1_s_p4_0               000000018008f4c8     libvorbisenc:vorbisenc.obj
 0002:00057500       _vq_lengthlist__16u1__p1_0 000000018008f500     libvorbisenc:vorbisenc.obj
 0002:00057648       _vq_quantlist__44u2__p1_0  000000018008f648     libvorbisenc:vorbisenc.obj
 0002:00057658       _vq_quantlist__44u6__p9_1  000000018008f658     libvorbisenc:vorbisenc.obj
 0002:00057698       _44u2__p7_2                000000018008f698     libvorbisenc:vorbisenc.obj
 0002:000576d0       _resbook_44p_l5            000000018008f6d0     libvorbisenc:vorbisenc.obj
 0002:00057850       _44u5__p5_0                000000018008f850     libvorbisenc:vorbisenc.obj
 0002:00057888       _vq_quantlist__44cn1_sm_p8_0 000000018008f888     libvorbisenc:vorbisenc.obj
 0002:000578b0       _vq_lengthlist__44u9_p1_0  000000018008f8b0     libvorbisenc:vorbisenc.obj
 0002:000579f8       _vq_quantlist__44c9_s_p6_0 000000018008f9f8     libvorbisenc:vorbisenc.obj
 0002:00057a30       _vq_lengthlist__44u6__p9_2 000000018008fa30     libvorbisenc:vorbisenc.obj
 0002:00057eb8       _huff_book_line_2048x27_4sub2 000000018008feb8     libvorbisenc:vorbisenc.obj
 0002:00057ef0       _vq_lengthlist__44c2_s_p7_0 000000018008fef0     libvorbisenc:vorbisenc.obj
 0002:00058038       _44u3__p6_1                0000000180090038     libvorbisenc:vorbisenc.obj
 0002:00058070       _vq_lengthlist__44u7__p8_0 0000000180090070     libvorbisenc:vorbisenc.obj
 0002:00058258       _huff_book_line_256x4low_0sub2 0000000180090258     libvorbisenc:vorbisenc.obj
 0002:00058290       _vq_lengthlist__44c7_s_p2_0 0000000180090290     libvorbisenc:vorbisenc.obj
 0002:00058c58       _vq_quantlist__44u3__p3_0  0000000180090c58     libvorbisenc:vorbisenc.obj
 0002:00058c70       _vq_lengthlist__44c9_s_p3_0 0000000180090c70     libvorbisenc:vorbisenc.obj
 0002:00058db8       _vq_quantlist__44c5_s_p9_0 0000000180090db8     libvorbisenc:vorbisenc.obj
 0002:00058df8       _44c7_s_p6_1               0000000180090df8     libvorbisenc:vorbisenc.obj
 0002:00058e30       _vq_lengthlist__44p1_l0_0  0000000180090e30     libvorbisenc:vorbisenc.obj
 0002:000590d8       _huff_book__44u8__short    00000001800910d8     libvorbisenc:vorbisenc.obj
 0002:00059110       ve_setup_16_uncoupled      0000000180091110     libvorbisenc:vorbisenc.obj
 0002:00059240       _vq_lengthlist__44c4_s_p4_0 0000000180091240     libvorbisenc:vorbisenc.obj
 0002:00059388       _vq_quantlist__16u2_p5_1   0000000180091388     libvorbisenc:vorbisenc.obj
 0002:000593b8       _44c0_sm_p3_0              00000001800913b8     libvorbisenc:vorbisenc.obj
 0002:000593f0       _vq_lengthlist__44c6_s_p9_2 00000001800913f0     libvorbisenc:vorbisenc.obj
 0002:000594b8       _8c1_s_p5_0                00000001800914b8     libvorbisenc:vorbisenc.obj
 0002:000594f0       _vq_lengthlist__8c0_s_p9_2 00000001800914f0     libvorbisenc:vorbisenc.obj
 0002:00059bd8       _vq_quantlist__44p2_p6_0   0000000180091bd8     libvorbisenc:vorbisenc.obj
 0002:00059be8       _8c0_s_p4_0                0000000180091be8     libvorbisenc:vorbisenc.obj
 0002:00059c20       _resbook_44p_l0            0000000180091c20     libvorbisenc:vorbisenc.obj
 0002:00059da0       _vq_quantlist__44cn1_s_p1_0 0000000180091da0     libvorbisenc:vorbisenc.obj
 0002:00059db0       _vq_lengthlist__44p6_p6_0  0000000180091db0     libvorbisenc:vorbisenc.obj
 0002:0005a180       _vq_quantlist__44p4_p7_2   0000000180092180     libvorbisenc:vorbisenc.obj
 0002:0005a1e8       _huff_book__44u3__short    00000001800921e8     libvorbisenc:vorbisenc.obj
 0002:0005a220       _res_44p51_0               0000000180092220     libvorbisenc:vorbisenc.obj
 0002:0005a2c8       _44p9_p4_0                 00000001800922c8     libvorbisenc:vorbisenc.obj
 0002:0005a300       _huff_lengthlist__8u0__single 0000000180092300     libvorbisenc:vorbisenc.obj
 0002:0005a400       _vq_quantlist__44u8_p1_0   0000000180092400     libvorbisenc:vorbisenc.obj
 0002:0005a410       _vq_quantlist__44pn1_p5_0  0000000180092410     libvorbisenc:vorbisenc.obj
 0002:0005a420       _residue_44_mid_un         0000000180092420     libvorbisenc:vorbisenc.obj
 0002:0005af38       _44c5_s_p3_0               0000000180092f38     libvorbisenc:vorbisenc.obj
 0002:0005af70       ve_setup_32_stereo         0000000180092f70     libvorbisenc:vorbisenc.obj
 0002:0005b0a0       _resbook_44s_3             00000001800930a0     libvorbisenc:vorbisenc.obj
 0002:0005b220       _vq_lengthlist__44p7_p7_1  0000000180093220     libvorbisenc:vorbisenc.obj
 0002:0005b5f0       _vq_lengthlist__44p7_p2_0  00000001800935f0     libvorbisenc:vorbisenc.obj
 0002:0005e6c8       _44p5_p3_0                 00000001800966c8     libvorbisenc:vorbisenc.obj
 0002:0005e700       _vq_lengthlist__44c1_s_p8_2 0000000180096700     libvorbisenc:vorbisenc.obj
 0002:0005eb88       _huff_book__44p5_short     0000000180096b88     libvorbisenc:vorbisenc.obj
 0002:0005ebc0       _vq_lengthlist__44c3_s_p9_2 0000000180096bc0     libvorbisenc:vorbisenc.obj
 0002:0005f048       _huff_book__44p0_long      0000000180097048     libvorbisenc:vorbisenc.obj
 0002:0005f080       _huff_lengthlist__44u1__long 0000000180097080     libvorbisenc:vorbisenc.obj
 0002:0005f180       _noise_thresh_44           0000000180097180     libvorbisenc:vorbisenc.obj
 0002:0005f1d8       _vq_lengthlist__44p1_p4_1  00000001800971d8     libvorbisenc:vorbisenc.obj
 0002:0005f1f8       _vq_quantlist__44u7__p8_0  00000001800971f8     libvorbisenc:vorbisenc.obj
 0002:0005f228       _8c0_s_p6_0                0000000180097228     libvorbisenc:vorbisenc.obj
 0002:0005f260       _vp_tonemask_adj_11        0000000180097260     libvorbisenc:vorbisenc.obj
 0002:0005f330       _vq_lengthlist__8u0__p1_0  0000000180097330     libvorbisenc:vorbisenc.obj
 0002:0005f478       _mapres_template_8_stereo  0000000180097478     libvorbisenc:vorbisenc.obj
 0002:0005f498       _44p8_p3_0                 0000000180097498     libvorbisenc:vorbisenc.obj
 0002:0005f4d0       _vq_lengthlist__44c8_s_p1_0 00000001800974d0     libvorbisenc:vorbisenc.obj
 0002:0005f618       _vq_quantlist__16c0_s_p7_0 0000000180097618     libvorbisenc:vorbisenc.obj
 0002:0005f628       _vq_quantlist__44p3_p1_0   0000000180097628     libvorbisenc:vorbisenc.obj
 0002:0005f638       _vq_quantlist__8u0__p1_0   0000000180097638     libvorbisenc:vorbisenc.obj
 0002:0005f648       _16u2_p5_1                 0000000180097648     libvorbisenc:vorbisenc.obj
 0002:0005f680       _psy_compand_8             0000000180097680     libvorbisenc:vorbisenc.obj
 0002:0005f7c0       _vq_lengthlist__44c3_s_p9_0 00000001800977c0     libvorbisenc:vorbisenc.obj
 0002:0005fa68       _vq_quantlist__44p7_p5_1   0000000180097a68     libvorbisenc:vorbisenc.obj
 0002:0005fa88       _vq_quantlist__44un1__p7_0 0000000180097a88     libvorbisenc:vorbisenc.obj
 0002:0005faa0       _vq_lengthlist__44p8_p4_1  0000000180097aa0     libvorbisenc:vorbisenc.obj
 0002:00062b78       _vq_quantlist__44p8_p1_0   000000018009ab78     libvorbisenc:vorbisenc.obj
 0002:00062b88       _44p4_p6_0                 000000018009ab88     libvorbisenc:vorbisenc.obj
 0002:00062bc0       _vq_quantlist__44u4__p2_0  000000018009abc0     libvorbisenc:vorbisenc.obj
 0002:00062bd0       _44u2__p7_1                000000018009abd0     libvorbisenc:vorbisenc.obj
 0002:00062c08       _16u1__p2_0                000000018009ac08     libvorbisenc:vorbisenc.obj
 0002:00062c40       _vq_lengthlist__16u1__p6_0 000000018009ac40     libvorbisenc:vorbisenc.obj
 0002:00062d88       _44p5_p7_1                 000000018009ad88     libvorbisenc:vorbisenc.obj
 0002:00062dc0       _vq_quantlist__44p8_p7_2   000000018009adc0     libvorbisenc:vorbisenc.obj
 0002:00062e28       _44p2_p4_0                 000000018009ae28     libvorbisenc:vorbisenc.obj
 0002:00062e60       _res_44p51_1               000000018009ae60     libvorbisenc:vorbisenc.obj
 0002:00062f08       _vq_quantlist__44cn1_sm_p6_0 000000018009af08     libvorbisenc:vorbisenc.obj
 0002:00062f18       _vq_quantlist__16c2_s_p7_1 000000018009af18     libvorbisenc:vorbisenc.obj
 0002:00062f48       _vq_quantlist__44c1_s_p8_1 000000018009af48     libvorbisenc:vorbisenc.obj
 0002:00062f80       _vq_lengthlist__44c6_s_p7_1 000000018009af80     libvorbisenc:vorbisenc.obj
 0002:00063168       _44p7_p2_0                 000000018009b168     libvorbisenc:vorbisenc.obj
 0002:000631a0       _vq_lengthlist__44c8_s_p9_2 000000018009b1a0     libvorbisenc:vorbisenc.obj
 0002:00063268       _vq_quantlist__44u1__p4_0  000000018009b268     libvorbisenc:vorbisenc.obj
 0002:00063280       _vq_quantlist__16c2_s_p8_1 000000018009b280     libvorbisenc:vorbisenc.obj
 0002:000632d8       _huff_book_line_1024x27_3sub3 000000018009b2d8     libvorbisenc:vorbisenc.obj
 0002:00063310       _vq_quantlist__44c2_s_p9_2 000000018009b310     libvorbisenc:vorbisenc.obj
 0002:00063358       _vq_quantlist__44c1_sm_p6_0 000000018009b358     libvorbisenc:vorbisenc.obj
 0002:00063368       _vq_quantlist__8c0_s_p4_0  000000018009b368     libvorbisenc:vorbisenc.obj
 0002:00063390       _vq_lengthlist__16u1__p8_0 000000018009b390     libvorbisenc:vorbisenc.obj
 0002:00063578       _vq_quantlist__44p0_p2_0   000000018009b578     libvorbisenc:vorbisenc.obj
 0002:00063588       _noise_thresh_5only        000000018009b588     libvorbisenc:vorbisenc.obj
 0002:00063598       _vq_quantlist__44p7_l0_0   000000018009b598     libvorbisenc:vorbisenc.obj
 0002:000635d0       _vq_lengthlist__44p8_p1_0  000000018009b5d0     libvorbisenc:vorbisenc.obj
 0002:000639a0       _vq_lengthlist__16u2_p9_2  000000018009b9a0     libvorbisenc:vorbisenc.obj
 0002:00063a68       _44c2_s_p7_0               000000018009ba68     libvorbisenc:vorbisenc.obj
 0002:00063aa0       _vq_lengthlist__44p1_p6_0  000000018009baa0     libvorbisenc:vorbisenc.obj
 0002:00063e70       _vq_quantlist__44c3_s_p7_1 000000018009be70     libvorbisenc:vorbisenc.obj
 0002:00063ea0       _44u4__p5_0                000000018009bea0     libvorbisenc:vorbisenc.obj
 0002:00063ed8       _vq_quantlist__44u1__p7_1  000000018009bed8     libvorbisenc:vorbisenc.obj
 0002:00063f10       _vq_lengthlist__44c0_s_p7_1 000000018009bf10     libvorbisenc:vorbisenc.obj
 0002:00063f78       _huff_lengthlist_line_128x4_0sub1 000000018009bf78     libvorbisenc:vorbisenc.obj
 0002:00063fa0       _psy_noise_suppress        000000018009bfa0     libvorbisenc:vorbisenc.obj
 0002:00063fd0       _44p6_p3_0                 000000018009bfd0     libvorbisenc:vorbisenc.obj
 0002:00064008       _vq_quantlist__16c1_s_p9_0 000000018009c008     libvorbisenc:vorbisenc.obj
 0002:00064040       _vq_lengthlist__44c2_s_p1_0 000000018009c040     libvorbisenc:vorbisenc.obj
 0002:0006a6c8       _44p9_p3_0                 00000001800a26c8     libvorbisenc:vorbisenc.obj
 0002:0006a700       _44p8_p4_1                 00000001800a2700     libvorbisenc:vorbisenc.obj
 0002:0006a738       _16u0__p2_0                00000001800a2738     libvorbisenc:vorbisenc.obj
 0002:0006a770       _vq_lengthlist__16u0__p7_0 00000001800a2770     libvorbisenc:vorbisenc.obj
 0002:0006a8b8       _huff_lengthlist_line_1024x27_class2 00000001800a28b8     libvorbisenc:vorbisenc.obj
 0002:0006a8d8       _44c0_s_p8_1               00000001800a28d8     libvorbisenc:vorbisenc.obj
 0002:0006a910       _vq_lengthlist__8u0__p5_0  00000001800a2910     libvorbisenc:vorbisenc.obj
 0002:0006aa58       _huff_lengthlist_line_128x11_class1 00000001800a2a58     libvorbisenc:vorbisenc.obj
 0002:0006aa78       rate_mapping_11            00000001800a2a78     libvorbisenc:vorbisenc.obj
 0002:0006aa90       _vq_lengthlist__16u0__p6_1 00000001800a2a90     libvorbisenc:vorbisenc.obj
 0002:0006aaf8       _vq_quantlist__44un1__p6_1 00000001800a2af8     libvorbisenc:vorbisenc.obj
 0002:0006ab10       _vq_lengthlist__44c8_s_p7_1 00000001800a2b10     libvorbisenc:vorbisenc.obj
 0002:0006acf8       _vq_lengthlist__44p4_l1_0  00000001800a2cf8     libvorbisenc:vorbisenc.obj
 0002:0006ad20       _vq_quantlist__44u8_p8_1   00000001800a2d20     libvorbisenc:vorbisenc.obj
 0002:0006ad78       _44u5__p9_2                00000001800a2d78     libvorbisenc:vorbisenc.obj
 0002:0006adb0       _vq_lengthlist__44p4_p7_3  00000001800a2db0     libvorbisenc:vorbisenc.obj
 0002:0006ae18       _44u3__p1_0                00000001800a2e18     libvorbisenc:vorbisenc.obj
 0002:0006ae50       _vq_lengthlist__8u1__p2_0  00000001800a2e50     libvorbisenc:vorbisenc.obj
 0002:0006af98       _44c5_s_p9_2               00000001800a2f98     libvorbisenc:vorbisenc.obj
 0002:0006afd0       _vq_lengthlist__44p3_p7_2  00000001800a2fd0     libvorbisenc:vorbisenc.obj
 0002:0006b038       _vq_quantlist__44p1_p6_0   00000001800a3038     libvorbisenc:vorbisenc.obj
 0002:0006b048       _vq_quantlist__44c6_s_p5_1 00000001800a3048     libvorbisenc:vorbisenc.obj
 0002:0006b078       _vq_quantlist__44c0_sm_p6_1 00000001800a3078     libvorbisenc:vorbisenc.obj
 0002:0006b0a8       _44cn1_s_p6_1              00000001800a30a8     libvorbisenc:vorbisenc.obj
 0002:0006b0e0       _vq_quantlist__44c4_s_p2_0 00000001800a30e0     libvorbisenc:vorbisenc.obj
 0002:0006b0f8       _16u1__p9_0                00000001800a30f8     libvorbisenc:vorbisenc.obj
 0002:0006b130       _vq_lengthlist__44p2_p7_1  00000001800a3130     libvorbisenc:vorbisenc.obj
 0002:0006b500       _vq_quantlist__44c4_s_p8_0 00000001800a3500     libvorbisenc:vorbisenc.obj
 0002:0006b538       _44u9_p2_0                 00000001800a3538     libvorbisenc:vorbisenc.obj
 0002:0006b570       _vq_lengthlist__44c9_s_p6_0 00000001800a3570     libvorbisenc:vorbisenc.obj
 0002:0006b818       _44p1_l0_1                 00000001800a3818     libvorbisenc:vorbisenc.obj
 0002:0006b850       _huff_lengthlist_line_256x4_0sub3 00000001800a3850     libvorbisenc:vorbisenc.obj
 0002:0006b950       _vq_quantlist__44c0_s_p8_2 00000001800a3950     libvorbisenc:vorbisenc.obj
 0002:0006b998       _vq_quantlist__44cn1_sm_p7_0 00000001800a3998     libvorbisenc:vorbisenc.obj
 0002:0006b9d0       _huff_book__44u6__short    00000001800a39d0     libvorbisenc:vorbisenc.obj
 0002:0006ba08       _44p3_p4_1                 00000001800a3a08     libvorbisenc:vorbisenc.obj
 0002:0006ba40       _vq_lengthlist__44u1__p1_0 00000001800a3a40     libvorbisenc:vorbisenc.obj
 0002:0006bb88       _44c7_s_p1_0               00000001800a3b88     libvorbisenc:vorbisenc.obj
 0002:0006bbc0       _44u9_p9_0                 00000001800a3bc0     libvorbisenc:vorbisenc.obj
 0002:0006bbf8       _44u6__p9_0                00000001800a3bf8     libvorbisenc:vorbisenc.obj
 0002:0006bc30       _resbook_44s_2             00000001800a3c30     libvorbisenc:vorbisenc.obj
 0002:0006bdb0       _44c1_sm_p1_0              00000001800a3db0     libvorbisenc:vorbisenc.obj
 0002:0006bde8       rate_mapping_8_uncoupled   00000001800a3de8     libvorbisenc:vorbisenc.obj
 0002:0006be00       _res_44u_3                 00000001800a3e00     libvorbisenc:vorbisenc.obj
 0002:0006be70       blocksize_short_44         00000001800a3e70     libvorbisenc:vorbisenc.obj
 0002:0006bea0       _vq_quantlist__16c2_s_p8_0 00000001800a3ea0     libvorbisenc:vorbisenc.obj
 0002:0006bee0       _vq_lengthlist__16u1__p8_1 00000001800a3ee0     libvorbisenc:vorbisenc.obj
 0002:0006c0c8       _huff_book__44p2_short     00000001800a40c8     libvorbisenc:vorbisenc.obj
 0002:0006c100       _huff_lengthlist_line_128x7_0sub3 00000001800a4100     libvorbisenc:vorbisenc.obj
 0002:0006c200       _vq_lengthlist__44c1_sm_p7_0 00000001800a4200     libvorbisenc:vorbisenc.obj
 0002:0006c4a8       _huff_book_line_2048x27_2sub0 00000001800a44a8     libvorbisenc:vorbisenc.obj
 0002:0006c4e0       _vq_lengthlist__44c4_s_p8_1 00000001800a44e0     libvorbisenc:vorbisenc.obj
 0002:0006c548       _44u8_p1_0                 00000001800a4548     libvorbisenc:vorbisenc.obj
 0002:0006c580       _vq_quantlist__44c1_sm_p5_0 00000001800a4580     libvorbisenc:vorbisenc.obj
 0002:0006c5c8       _16c2_s_p9_1               00000001800a45c8     libvorbisenc:vorbisenc.obj
 0002:0006c600       _vq_lengthlist__16u2_p3_0  00000001800a4600     libvorbisenc:vorbisenc.obj
 0002:0006c748       _vq_quantlist__44u9_p1_0   00000001800a4748     libvorbisenc:vorbisenc.obj
 0002:0006c758       _huff_book__44u3__long     00000001800a4758     libvorbisenc:vorbisenc.obj
 0002:0006c790       _resbook_44u_5             00000001800a4790     libvorbisenc:vorbisenc.obj
 0002:0006c910       _psy_noisebias_padding     00000001800a4910     libvorbisenc:vorbisenc.obj
 0002:0006d2a0       _vq_lengthlist__44c8_s_p5_0 00000001800a52a0     libvorbisenc:vorbisenc.obj
 0002:0006d3e8       _44p1_p4_1                 00000001800a53e8     libvorbisenc:vorbisenc.obj
 0002:0006d420       _vq_lengthlist__8u1__p7_0  00000001800a5420     libvorbisenc:vorbisenc.obj
 0002:0006d568       _16u2_p3_0                 00000001800a5568     libvorbisenc:vorbisenc.obj
 0002:0006d5a0       _44u2__p3_0                00000001800a55a0     libvorbisenc:vorbisenc.obj
 0002:0006d5d8       _huff_book_line_1024x27_0sub0 00000001800a55d8     libvorbisenc:vorbisenc.obj
 0002:0006d610       _vq_lengthlist__16u0__p4_0 00000001800a5610     libvorbisenc:vorbisenc.obj
 0002:0006dfd8       _vq_quantlist__44c9_s_p5_0 00000001800a5fd8     libvorbisenc:vorbisenc.obj
 0002:0006dfe8       _8u0__p3_0                 00000001800a5fe8     libvorbisenc:vorbisenc.obj
 0002:0006e020       _vq_quantlist__16c2_s_p4_0 00000001800a6020     libvorbisenc:vorbisenc.obj
 0002:0006e068       _floor_mapping_44b         00000001800a6068     libvorbisenc:vorbisenc.obj
 0002:0006e098       _vq_quantlist__44p4_p5_0   00000001800a6098     libvorbisenc:vorbisenc.obj
 0002:0006e0b0       _vq_lengthlist__44un1__p7_2 00000001800a60b0     libvorbisenc:vorbisenc.obj
 0002:0006e358       _44p1_p4_0                 00000001800a6358     libvorbisenc:vorbisenc.obj
 0002:0006e390       _vq_lengthlist__44cn1_sm_p1_0 00000001800a6390     libvorbisenc:vorbisenc.obj
 0002:00074a18       _44c0_sm_p1_0              00000001800aca18     libvorbisenc:vorbisenc.obj
 0002:00074a50       _huff_lengthlist__44c6_s_long 00000001800aca50     libvorbisenc:vorbisenc.obj
 0002:00074be0       _vq_lengthlist__44p2_p6_1  00000001800acbe0     libvorbisenc:vorbisenc.obj
 0002:00074fb0       _huff_lengthlist__44pn1_short 00000001800acfb0     libvorbisenc:vorbisenc.obj
 0002:00075078       _44p0_p1_0                 00000001800ad078     libvorbisenc:vorbisenc.obj
 0002:000750b0       _vq_quantlist__44p2_p7_3   00000001800ad0b0     libvorbisenc:vorbisenc.obj
 0002:00075118       _vq_quantlist__44u9_p9_0   00000001800ad118     libvorbisenc:vorbisenc.obj
 0002:00075158       _huff_lengthlist_line_256x7_1sub1 00000001800ad158     libvorbisenc:vorbisenc.obj
 0002:00075180       _vq_lengthlist__8c0_s_p1_0 00000001800ad180     libvorbisenc:vorbisenc.obj
 0002:0007b808       _vq_quantlist__44u4__p6_0  00000001800b3808     libvorbisenc:vorbisenc.obj
 0002:0007b840       _vq_lengthlist__44p6_p3_0  00000001800b3840     libvorbisenc:vorbisenc.obj
 0002:0007bc10       _vq_quantlist__8u1__p8_0   00000001800b3c10     libvorbisenc:vorbisenc.obj
 0002:0007bc40       _res_16s_2                 00000001800b3c40     libvorbisenc:vorbisenc.obj
 0002:0007bcb0       _44p0_p3_1                 00000001800b3cb0     libvorbisenc:vorbisenc.obj
 0002:0007bce8       _44p3_p2_0                 00000001800b3ce8     libvorbisenc:vorbisenc.obj
 0002:0007bd20       _44u2__p4_0                00000001800b3d20     libvorbisenc:vorbisenc.obj
 0002:0007bd58       _huff_book_line_256x4low_0sub1 00000001800b3d58     libvorbisenc:vorbisenc.obj
 0002:0007bd90       _44c0_sm_p8_2              00000001800b3d90     libvorbisenc:vorbisenc.obj
 0002:0007bdc8       _44p9_p5_1                 00000001800b3dc8     libvorbisenc:vorbisenc.obj
 0002:0007be00       _vq_quantlist__44u8_p8_0   00000001800b3e00     libvorbisenc:vorbisenc.obj
 0002:0007be40       _vq_lengthlist__44u5__p3_0 00000001800b3e40     libvorbisenc:vorbisenc.obj
 0002:0007c808       _vq_quantlist__16u0__p6_0  00000001800b4808     libvorbisenc:vorbisenc.obj
 0002:0007c840       _vq_quantlist__44c1_s_p1_0 00000001800b4840     libvorbisenc:vorbisenc.obj
 0002:0007c850       _vq_lengthlist__16c0_s_p1_0 00000001800b4850     libvorbisenc:vorbisenc.obj
 0002:00082ed8       _44cn1_s_p8_0              00000001800baed8     libvorbisenc:vorbisenc.obj
 0002:00082f10       _44c0_s_p6_1               00000001800baf10     libvorbisenc:vorbisenc.obj
 0002:00082f48       _44p1_p6_1                 00000001800baf48     libvorbisenc:vorbisenc.obj
 0002:00082f80       _psy_noisebias_16_short    00000001800baf80     libvorbisenc:vorbisenc.obj
 0002:000832b0       _44u7__p8_1                00000001800bb2b0     libvorbisenc:vorbisenc.obj
 0002:000832e8       _vq_quantlist__44c2_s_p7_1 00000001800bb2e8     libvorbisenc:vorbisenc.obj
 0002:00083318       _huff_book_line_512x17_0sub0 00000001800bb318     libvorbisenc:vorbisenc.obj
 0002:00083350       _vq_lengthlist__16u2_p4_0  00000001800bb350     libvorbisenc:vorbisenc.obj
 0002:000837d8       _vq_quantlist__44c1_s_p4_0 00000001800bb7d8     libvorbisenc:vorbisenc.obj
 0002:00083800       _vq_lengthlist__44c3_s_p8_1 00000001800bb800     libvorbisenc:vorbisenc.obj
 0002:00083868       _vq_quantlist__44u7__p7_0  00000001800bb868     libvorbisenc:vorbisenc.obj
 0002:00083878       _44u2__p6_0                00000001800bb878     libvorbisenc:vorbisenc.obj
 0002:000838b0       ve_setup_8_uncoupled       00000001800bb8b0     libvorbisenc:vorbisenc.obj
 0002:000839e0       _huff_book__44c2_s_short   00000001800bb9e0     libvorbisenc:vorbisenc.obj
 0002:00083a18       _huff_book__44u7__long     00000001800bba18     libvorbisenc:vorbisenc.obj
 0002:00083a50       _vq_quantlist__44p8_l1_0   00000001800bba50     libvorbisenc:vorbisenc.obj
 0002:00083a68       _vq_quantlist__44p9_p5_0   00000001800bba68     libvorbisenc:vorbisenc.obj
 0002:00083a80       _vq_lengthlist__44p5_l0_1  00000001800bba80     libvorbisenc:vorbisenc.obj
 0002:00083ae8       _vq_quantlist__44c0_sm_p6_0 00000001800bbae8     libvorbisenc:vorbisenc.obj
 0002:00083af8       _44p7_p7_2                 00000001800bbaf8     libvorbisenc:vorbisenc.obj
 0002:00083b30       _vq_lengthlist__16u1__p7_1 00000001800bbb30     libvorbisenc:vorbisenc.obj
 0002:00083d18       _huff_lengthlist__44p9_long 00000001800bbd18     libvorbisenc:vorbisenc.obj
 0002:00083d38       _huff_book_line_128x4_0sub2 00000001800bbd38     libvorbisenc:vorbisenc.obj
 0002:00083d70       _resbook_44p_6             00000001800bbd70     libvorbisenc:vorbisenc.obj
 0002:00083ef0       _vq_quantlist__44p9_p3_0   00000001800bbef0     libvorbisenc:vorbisenc.obj
 0002:00083f00       _vq_quantlist__44u5__p8_0  00000001800bbf00     libvorbisenc:vorbisenc.obj
 0002:00083f30       _huff_lengthlist__44c1_s_long 00000001800bbf30     libvorbisenc:vorbisenc.obj
 0002:00084078       _44pn1_p6_1                00000001800bc078     libvorbisenc:vorbisenc.obj
 0002:000840b0       _vq_lengthlist__16u1__p9_0 00000001800bc0b0     libvorbisenc:vorbisenc.obj
 0002:00084438       _vq_quantlist__44u5__p7_1  00000001800bc438     libvorbisenc:vorbisenc.obj
 0002:00084468       _vq_quantlist__44c8_s_p5_0 00000001800bc468     libvorbisenc:vorbisenc.obj
 0002:00084478       _vq_quantlist__44p5_p5_1   00000001800bc478     libvorbisenc:vorbisenc.obj
 0002:00084498       _44p1_p2_0                 00000001800bc498     libvorbisenc:vorbisenc.obj
 0002:000844d0       _huff_lengthlist__16c0_s_single 00000001800bc4d0     libvorbisenc:vorbisenc.obj
 0002:00084660       _vq_lengthlist__44u9_p7_0  00000001800bc660     libvorbisenc:vorbisenc.obj
 0002:00084908       _global_mapping_16         00000001800bc908     libvorbisenc:vorbisenc.obj
 0002:00084928       _vq_quantlist__44c7_s_p6_1 00000001800bc928     libvorbisenc:vorbisenc.obj
 0002:00084940       _vq_quantlist__44p7_p7_2   00000001800bc940     libvorbisenc:vorbisenc.obj
 0002:000849a8       _44c0_s_p1_0               00000001800bc9a8     libvorbisenc:vorbisenc.obj
 0002:000849e0       _vq_lengthlist__44p8_l1_0  00000001800bc9e0     libvorbisenc:vorbisenc.obj
 0002:00084a48       _44c7_s_p3_0               00000001800bca48     libvorbisenc:vorbisenc.obj
 0002:00084a80       _vq_lengthlist__44p3_p3_1  00000001800bca80     libvorbisenc:vorbisenc.obj
 0002:00084e50       _vq_quantlist__44p3_p6_1   00000001800bce50     libvorbisenc:vorbisenc.obj
 0002:00084e60       _huff_lengthlist__44c9_s_long 00000001800bce60     libvorbisenc:vorbisenc.obj
 0002:00084ff0       _vq_lengthlist__44pn1_p1_0 00000001800bcff0     libvorbisenc:vorbisenc.obj
 0002:000853c0       _res_44u_1                 00000001800bd3c0     libvorbisenc:vorbisenc.obj
 0002:00085430       _resbook_44s_0             00000001800bd430     libvorbisenc:vorbisenc.obj
 0002:000855b0       _huff_lengthlist_line_256x4_class0 00000001800bd5b0     libvorbisenc:vorbisenc.obj
 0002:000859b0       _16c0_s_p6_0               00000001800bd9b0     libvorbisenc:vorbisenc.obj
 0002:000859e8       _vq_quantlist__44u8_p3_0   00000001800bd9e8     libvorbisenc:vorbisenc.obj
 0002:00085a10       _resbook_16u_0             00000001800bda10     libvorbisenc:vorbisenc.obj
 0002:00085b90       _vq_lengthlist__44p4_p3_1  00000001800bdb90     libvorbisenc:vorbisenc.obj
 0002:00085f60       _vq_lengthlist__44p1_p4_0  00000001800bdf60     libvorbisenc:vorbisenc.obj
 0002:00089038       _44c1_sm_p7_1              00000001800c1038     libvorbisenc:vorbisenc.obj
 0002:00089070       _huff_book__44c7_s_short   00000001800c1070     libvorbisenc:vorbisenc.obj
 0002:000890a8       _8u1__p7_1                 00000001800c10a8     libvorbisenc:vorbisenc.obj
 0002:000890e0       _vq_lengthlist__44p4_l0_1  00000001800c10e0     libvorbisenc:vorbisenc.obj
 0002:00089148       _44c0_s_p4_0               00000001800c1148     libvorbisenc:vorbisenc.obj
 0002:00089180       _vq_lengthlist__44p3_p4_0  00000001800c1180     libvorbisenc:vorbisenc.obj
 0002:00089550       _vq_lengthlist__44c2_s_p9_0 00000001800c1550     libvorbisenc:vorbisenc.obj
 0002:000897f8       _44u1__p1_0                00000001800c17f8     libvorbisenc:vorbisenc.obj
 0002:00089830       _vq_lengthlist__44pn1_p6_0 00000001800c1830     libvorbisenc:vorbisenc.obj
 0002:00089c00       quality_mapping_16         00000001800c1c00     libvorbisenc:vorbisenc.obj
 0002:00089c20       _16u2_p2_0                 00000001800c1c20     libvorbisenc:vorbisenc.obj
 0002:00089c58       _vq_quantlist__44p8_p5_0   00000001800c1c58     libvorbisenc:vorbisenc.obj
 0002:00089c70       _vq_quantlist__44c5_s_p9_1 00000001800c1c70     libvorbisenc:vorbisenc.obj
 0002:00089cb8       _44p7_p7_0                 00000001800c1cb8     libvorbisenc:vorbisenc.obj
 0002:00089cf0       _44pn1_p5_0                00000001800c1cf0     libvorbisenc:vorbisenc.obj
 0002:00089d28       _vq_quantlist__44p2_l0_0   00000001800c1d28     libvorbisenc:vorbisenc.obj
 0002:00089d60       _vq_quantlist__44c9_s_p9_1 00000001800c1d60     libvorbisenc:vorbisenc.obj
 0002:00089db0       _residue_44p_lfe           00000001800c1db0     libvorbisenc:vorbisenc.obj
 0002:0008a8c8       _vq_quantlist__44p7_p4_0   00000001800c28c8     libvorbisenc:vorbisenc.obj
 0002:0008a8d8       _44p6_p7_2                 00000001800c28d8     libvorbisenc:vorbisenc.obj
 0002:0008a910       _huff_book__16u1__long     00000001800c2910     libvorbisenc:vorbisenc.obj
 0002:0008a948       _44c4_s_p9_2               00000001800c2948     libvorbisenc:vorbisenc.obj
 0002:0008a980       _vq_quantlist__44p0_p6_0   00000001800c2980     libvorbisenc:vorbisenc.obj
 0002:0008a990       _44u7__p5_0                00000001800c2990     libvorbisenc:vorbisenc.obj
 0002:0008a9c8       _44c8_s_p5_1               00000001800c29c8     libvorbisenc:vorbisenc.obj
 0002:0008aa00       _vq_lengthlist__8c0_s_p7_1 00000001800c2a00     libvorbisenc:vorbisenc.obj
 0002:0008abe8       _vq_quantlist__8u0__p4_0   00000001800c2be8     libvorbisenc:vorbisenc.obj
 0002:0008ac00       _vq_lengthlist__44c5_s_p4_0 00000001800c2c00     libvorbisenc:vorbisenc.obj
 0002:0008ad48       _44c4_s_p6_0               00000001800c2d48     libvorbisenc:vorbisenc.obj
 0002:0008ad80       _44c9_s_p8_0               00000001800c2d80     libvorbisenc:vorbisenc.obj
 0002:0008adb8       _44pn1_p1_0                00000001800c2db8     libvorbisenc:vorbisenc.obj
 0002:0008adf0       _vq_quantlist__44c7_s_p8_1 00000001800c2df0     libvorbisenc:vorbisenc.obj
 0002:0008ae48       _44c2_s_p2_0               00000001800c2e48     libvorbisenc:vorbisenc.obj
 0002:0008ae80       _vq_lengthlist__44u4__p7_2 00000001800c2e80     libvorbisenc:vorbisenc.obj
 0002:0008b308       _vq_quantlist__44p2_p6_1   00000001800c3308     libvorbisenc:vorbisenc.obj
 0002:0008b318       _44u1__p5_0                00000001800c3318     libvorbisenc:vorbisenc.obj
 0002:0008b350       _vq_quantlist__44c4_s_p9_2 00000001800c3350     libvorbisenc:vorbisenc.obj
 0002:0008b3a8       _vq_quantlist__44u3__p2_0  00000001800c33a8     libvorbisenc:vorbisenc.obj
 0002:0008b3b8       _vq_quantlist__16c1_s_p8_1 00000001800c33b8     libvorbisenc:vorbisenc.obj
 0002:0008b3d0       _vq_lengthlist__44u8_p8_0  00000001800c33d0     libvorbisenc:vorbisenc.obj
 0002:0008b758       _44p5_l1_0                 00000001800c3758     libvorbisenc:vorbisenc.obj
 0002:0008b790       _vq_lengthlist__44c0_sm_p8_1 00000001800c3790     libvorbisenc:vorbisenc.obj
 0002:0008ba38       _huff_book__44p4_short     00000001800c3a38     libvorbisenc:vorbisenc.obj
 0002:0008ba70       _vq_lengthlist__16c0_s_p8_1 00000001800c3a70     libvorbisenc:vorbisenc.obj
 0002:0008bad8       _vq_quantlist__44c3_s_p3_0 00000001800c3ad8     libvorbisenc:vorbisenc.obj
 0002:0008baf0       _resbook_16s_2             00000001800c3af0     libvorbisenc:vorbisenc.obj
 0002:0008bc70       _vq_quantlist__44pn1_p4_1  00000001800c3c70     libvorbisenc:vorbisenc.obj
 0002:0008bc90       _vq_lengthlist__44c0_sm_p7_0 00000001800c3c90     libvorbisenc:vorbisenc.obj
 0002:0008bf38       _vq_quantlist__44p6_p7_0   00000001800c3f38     libvorbisenc:vorbisenc.obj
 0002:0008bf48       _44p6_p3_1                 00000001800c3f48     libvorbisenc:vorbisenc.obj
 0002:0008bf80       _vq_lengthlist__44c8_s_p6_0 00000001800c3f80     libvorbisenc:vorbisenc.obj
 0002:0008c228       _16u2_p4_0                 00000001800c4228     libvorbisenc:vorbisenc.obj
 0002:0008c260       _res_44s_8                 00000001800c4260     libvorbisenc:vorbisenc.obj
 0002:0008c2d0       _vq_quantlist__44pn1_p3_0  00000001800c42d0     libvorbisenc:vorbisenc.obj
 0002:0008c2e0       _vq_lengthlist__44u1__p5_0 00000001800c42e0     libvorbisenc:vorbisenc.obj
 0002:0008c428       _huff_book_line_128x4_0sub3 00000001800c4428     libvorbisenc:vorbisenc.obj
 0002:0008c460       _vq_lengthlist__8u1__p8_1  00000001800c4460     libvorbisenc:vorbisenc.obj
 0002:0008c648       _vq_quantlist__44c6_s_p9_0 00000001800c4648     libvorbisenc:vorbisenc.obj
 0002:0008c680       _vq_lengthlist__44u4__p7_1 00000001800c4680     libvorbisenc:vorbisenc.obj
 0002:0008ca08       _vq_quantlist__44c3_s_p4_0 00000001800c4a08     libvorbisenc:vorbisenc.obj
 0002:0008ca30       _huff_lengthlist__44u6__short 00000001800c4a30     libvorbisenc:vorbisenc.obj
 0002:0008cbc0       _vq_lengthlist__44u5__p8_1 00000001800c4bc0     libvorbisenc:vorbisenc.obj
 0002:0008cda8       _huff_book__16u1__short    00000001800c4da8     libvorbisenc:vorbisenc.obj
 0002:0008cde0       _vq_lengthlist__44u5__p5_0 00000001800c4de0     libvorbisenc:vorbisenc.obj
 0002:0008cf28       _vq_quantlist__44u4__p6_1  00000001800c4f28     libvorbisenc:vorbisenc.obj
 0002:0008cf40       _huff_book_line_1024x27_3sub1 00000001800c4f40     libvorbisenc:vorbisenc.obj
 0002:0008cf78       _vq_quantlist__8u1__p3_0   00000001800c4f78     libvorbisenc:vorbisenc.obj
 0002:0008cf90       _vq_lengthlist__44p5_p3_0  00000001800c4f90     libvorbisenc:vorbisenc.obj
 0002:0008d360       _vq_lengthlist__44c6_s_p8_0 00000001800c5360     libvorbisenc:vorbisenc.obj
 0002:0008d6e8       _vq_quantlist__44p6_p5_0   00000001800c56e8     libvorbisenc:vorbisenc.obj
 0002:0008d700       _vq_lengthlist__44p0_p4_0  00000001800c5700     libvorbisenc:vorbisenc.obj
 0002:000907d8       _44u1__p3_0                00000001800c87d8     libvorbisenc:vorbisenc.obj
 0002:00090810       _res_44p51_3               00000001800c8810     libvorbisenc:vorbisenc.obj
 0002:000908b8       _44c3_s_p8_1               00000001800c88b8     libvorbisenc:vorbisenc.obj
 0002:000908f0       _vq_lengthlist__44cn1_s_p6_0 00000001800c88f0     libvorbisenc:vorbisenc.obj
 0002:00090a38       _16c0_s_p9_0               00000001800c8a38     libvorbisenc:vorbisenc.obj
 0002:00090a70       _vq_lengthlist__16u0__p2_0 00000001800c8a70     libvorbisenc:vorbisenc.obj
 0002:00090bb8       _vq_quantlist__44u8_p5_1   00000001800c8bb8     libvorbisenc:vorbisenc.obj
 0002:00090be8       _vq_quantlist__44un1__p5_0 00000001800c8be8     libvorbisenc:vorbisenc.obj
 0002:00090c10       _huff_lengthlist_line_128x4_class0 00000001800c8c10     libvorbisenc:vorbisenc.obj
 0002:00091010       _vq_quantlist__16u0__p7_0  00000001800c9010     libvorbisenc:vorbisenc.obj
 0002:00091020       _vq_lengthlist__44p1_p6_2  00000001800c9020     libvorbisenc:vorbisenc.obj
 0002:00091088       _44u1__p7_2                00000001800c9088     libvorbisenc:vorbisenc.obj
 0002:000910c0       _vq_lengthlist__16c0_s_p4_0 00000001800c90c0     libvorbisenc:vorbisenc.obj
 0002:00091208       _44c1_sm_p8_1              00000001800c9208     libvorbisenc:vorbisenc.obj
 0002:00091240       _huff_lengthlist_line_2048x27_3sub2 00000001800c9240     libvorbisenc:vorbisenc.obj
 0002:00091308       _vq_quantlist__44p6_p2_0   00000001800c9308     libvorbisenc:vorbisenc.obj
 0002:00091320       _vq_lengthlist__44p4_p4_1  00000001800c9320     libvorbisenc:vorbisenc.obj
 0002:000943f8       _44c2_s_p4_0               00000001800cc3f8     libvorbisenc:vorbisenc.obj
 0002:00094430       _vq_quantlist__8c1_s_p6_0  00000001800cc430     libvorbisenc:vorbisenc.obj
 0002:00094478       _16c2_s_p7_1               00000001800cc478     libvorbisenc:vorbisenc.obj
 0002:000944b0       _vq_lengthlist__44u0__p7_2 00000001800cc4b0     libvorbisenc:vorbisenc.obj
 0002:00094758       _vq_lengthlist__44p8_p5_1  00000001800cc758     libvorbisenc:vorbisenc.obj
 0002:00094778       _44p3_p6_0                 00000001800cc778     libvorbisenc:vorbisenc.obj
 0002:000947b0       ve_setup_44_stereo         00000001800cc7b0     libvorbisenc:vorbisenc.obj
 0002:000948e0       ve_setup_8_stereo          00000001800cc8e0     libvorbisenc:vorbisenc.obj
 0002:00094a10       _16u0__p4_0                00000001800cca10     libvorbisenc:vorbisenc.obj
 0002:00094a48       _vq_quantlist__44p4_p3_0   00000001800cca48     libvorbisenc:vorbisenc.obj
 0002:00094a58       _vq_quantlist__44p4_p4_0   00000001800cca58     libvorbisenc:vorbisenc.obj
 0002:00094a68       _vq_quantlist__44u9_p2_0   00000001800cca68     libvorbisenc:vorbisenc.obj
 0002:00094a80       _psy_tone_masteratt_44     00000001800cca80     libvorbisenc:vorbisenc.obj
 0002:00094b70       _vq_quantlist__44c5_s_p9_2 00000001800ccb70     libvorbisenc:vorbisenc.obj
 0002:00094bc8       _floor_mapping_16b         00000001800ccbc8     libvorbisenc:vorbisenc.obj
 0002:00094bd8       _44p2_p1_0                 00000001800ccbd8     libvorbisenc:vorbisenc.obj
 0002:00094c10       _vq_lengthlist__44p9_p7_3  00000001800ccc10     libvorbisenc:vorbisenc.obj
 0002:00094c78       _vq_quantlist__44cn1_sm_p4_0 00000001800ccc78     libvorbisenc:vorbisenc.obj
 0002:00094ca0       _vq_lengthlist__16u2_p2_0  00000001800ccca0     libvorbisenc:vorbisenc.obj
 0002:00095668       _16u1__p5_0                00000001800cd668     libvorbisenc:vorbisenc.obj
 0002:000956a0       _44u5__p6_0                00000001800cd6a0     libvorbisenc:vorbisenc.obj
 0002:000956d8       _vq_quantlist__44u0__p6_1  00000001800cd6d8     libvorbisenc:vorbisenc.obj
 0002:000956f0       _vq_lengthlist__44un1__p2_0 00000001800cd6f0     libvorbisenc:vorbisenc.obj
 0002:00095838       _vq_quantlist__8u1__p7_0   00000001800cd838     libvorbisenc:vorbisenc.obj
 0002:00095848       _44p3_p6_1                 00000001800cd848     libvorbisenc:vorbisenc.obj
 0002:00095880       _vq_lengthlist__44c7_s_p8_1 00000001800cd880     libvorbisenc:vorbisenc.obj
 0002:00095f68       _vq_quantlist__44c1_sm_p7_0 00000001800cdf68     libvorbisenc:vorbisenc.obj
 0002:00095fa0       _huff_lengthlist_line_512x17_3sub2 00000001800cdfa0     libvorbisenc:vorbisenc.obj
 0002:00096068       _huff_book__44p9_short     00000001800ce068     libvorbisenc:vorbisenc.obj
 0002:000960a0       _res_44s_3                 00000001800ce0a0     libvorbisenc:vorbisenc.obj
 0002:00096110       _vq_lengthlist__44p9_p1_0  00000001800ce110     libvorbisenc:vorbisenc.obj
 0002:000964e0       _vq_quantlist__44u7__p7_1  00000001800ce4e0     libvorbisenc:vorbisenc.obj
 0002:00096510       _vq_lengthlist__44c1_sm_p1_0 00000001800ce510     libvorbisenc:vorbisenc.obj
 0002:0009cb98       _vq_quantlist__44p3_p3_1   00000001800d4b98     libvorbisenc:vorbisenc.obj
 0002:0009cba8       _huff_book__44c8_s_long    00000001800d4ba8     libvorbisenc:vorbisenc.obj
 0002:0009cbe0       _vq_lengthlist__44c0_sm_p6_0 00000001800d4be0     libvorbisenc:vorbisenc.obj
 0002:0009cd28       _huff_book_line_256x7_1sub1 00000001800d4d28     libvorbisenc:vorbisenc.obj
 0002:0009cd60       _vq_quantlist__8c0_s_p8_0  00000001800d4d60     libvorbisenc:vorbisenc.obj
 0002:0009cd98       _16u0__p5_0                00000001800d4d98     libvorbisenc:vorbisenc.obj
 0002:0009cdd0       _vq_lengthlist__44u1__p6_1 00000001800d4dd0     libvorbisenc:vorbisenc.obj
 0002:0009ce38       _huff_book__44c9_s_short   00000001800d4e38     libvorbisenc:vorbisenc.obj
 0002:0009ce70       _huff_lengthlist__44p5_short 00000001800d4e70     libvorbisenc:vorbisenc.obj
 0002:0009cf70       _vq_lengthlist__44u5__p9_0 00000001800d4f70     libvorbisenc:vorbisenc.obj
 0002:0009d218       _44c3_s_p7_0               00000001800d5218     libvorbisenc:vorbisenc.obj
 0002:0009d250       _vq_lengthlist__44cn1_sm_p6_0 00000001800d5250     libvorbisenc:vorbisenc.obj
 0002:0009d398       _44p3_p4_0                 00000001800d5398     libvorbisenc:vorbisenc.obj
 0002:0009d3d0       _vq_lengthlist__44c8_s_p8_0 00000001800d53d0     libvorbisenc:vorbisenc.obj
 0002:0009d758       _vq_quantlist__44u6__p7_1  00000001800d5758     libvorbisenc:vorbisenc.obj
 0002:0009d788       _8c1_s_p4_0                00000001800d5788     libvorbisenc:vorbisenc.obj
 0002:0009d7c0       _mapres_template_44_51     00000001800d57c0     libvorbisenc:vorbisenc.obj
 0002:0009d870       _vq_lengthlist__8u1__p9_2  00000001800d5870     libvorbisenc:vorbisenc.obj
 0002:0009dcf8       _44u1__p2_0                00000001800d5cf8     libvorbisenc:vorbisenc.obj
 0002:0009dd30       _vq_quantlist__44p0_p3_0   00000001800d5d30     libvorbisenc:vorbisenc.obj
 0002:0009dd40       _vq_quantlist__44c0_sm_p1_0 00000001800d5d40     libvorbisenc:vorbisenc.obj
 0002:0009dd50       _vq_quantlist__44c6_s_p8_0 00000001800d5d50     libvorbisenc:vorbisenc.obj
 0002:0009dd90       _global_mapping_8          00000001800d5d90     libvorbisenc:vorbisenc.obj
 0002:0009dda8       _16u2_p9_2                 00000001800d5da8     libvorbisenc:vorbisenc.obj
 0002:0009dde0       _huff_lengthlist_line_128x17_3sub2 00000001800d5de0     libvorbisenc:vorbisenc.obj
 0002:0009dea8       _vq_quantlist__44u3__p7_0  00000001800d5ea8     libvorbisenc:vorbisenc.obj
 0002:0009ded0       _vq_lengthlist__44p0_l0_0  00000001800d5ed0     libvorbisenc:vorbisenc.obj
 0002:0009e178       _16u1__p8_1                00000001800d6178     libvorbisenc:vorbisenc.obj
 0002:0009e1b0       _44p1_l0_0                 00000001800d61b0     libvorbisenc:vorbisenc.obj
 0002:0009e1e8       _44u9_p8_1                 00000001800d61e8     libvorbisenc:vorbisenc.obj
 0002:0009e220       _vq_lengthlist__8u0__p3_0  00000001800d6220     libvorbisenc:vorbisenc.obj
 0002:0009ebe8       _vq_quantlist__44u8_p6_0   00000001800d6be8     libvorbisenc:vorbisenc.obj
 0002:0009ec20       _44c3_s_p2_0               00000001800d6c20     libvorbisenc:vorbisenc.obj
 0002:0009ec58       _vq_quantlist__44u8_p9_0   00000001800d6c58     libvorbisenc:vorbisenc.obj
 0002:0009ec80       _44p4_p3_0                 00000001800d6c80     libvorbisenc:vorbisenc.obj
 0002:0009ecb8       _44u0__p6_1                00000001800d6cb8     libvorbisenc:vorbisenc.obj
 0002:0009ecf0       _44c0_sm_p6_1              00000001800d6cf0     libvorbisenc:vorbisenc.obj
 0002:0009ed28       _huff_book__44u9__short    00000001800d6d28     libvorbisenc:vorbisenc.obj
 0002:0009ed60       _vq_quantlist__8u1__p7_1   00000001800d6d60     libvorbisenc:vorbisenc.obj
 0002:0009ed90       _huff_book__16c1_s_long    00000001800d6d90     libvorbisenc:vorbisenc.obj
 0002:0009edc8       _vq_quantlist__44u9_p7_1   00000001800d6dc8     libvorbisenc:vorbisenc.obj
 0002:0009edf8       _huff_book_line_1024x27_class4 00000001800d6df8     libvorbisenc:vorbisenc.obj
 0002:0009ee30       _psy_noisebias_8           00000001800d6e30     libvorbisenc:vorbisenc.obj
 0002:0009f098       _16c0_s_p7_1               00000001800d7098     libvorbisenc:vorbisenc.obj
 0002:0009f0d0       _vq_quantlist__44p6_p7_2   00000001800d70d0     libvorbisenc:vorbisenc.obj
 0002:0009f138       _vq_lengthlist__44p3_l1_0  00000001800d7138     libvorbisenc:vorbisenc.obj
 0002:0009f160       _vq_lengthlist__44u4__p4_0 00000001800d7160     libvorbisenc:vorbisenc.obj
 0002:0009fb28       _44c7_s_p6_0               00000001800d7b28     libvorbisenc:vorbisenc.obj
 0002:0009fb60       _vq_lengthlist__44c6_s_p6_1 00000001800d7b60     libvorbisenc:vorbisenc.obj
 0002:0009fbc8       _vq_quantlist__44cn1_s_p7_1 00000001800d7bc8     libvorbisenc:vorbisenc.obj
 0002:0009fbe0       _vq_lengthlist__16u2_p5_0  00000001800d7be0     libvorbisenc:vorbisenc.obj
 0002:0009fd28       _huff_book_line_128x17_3sub1 00000001800d7d28     libvorbisenc:vorbisenc.obj
 0002:0009fd60       _vq_lengthlist__16c2_s_p8_1 00000001800d7d60     libvorbisenc:vorbisenc.obj
 0002:000a0448       rate_mapping_16            00000001800d8448     libvorbisenc:vorbisenc.obj
 0002:000a0468       _44c1_s_p4_0               00000001800d8468     libvorbisenc:vorbisenc.obj
 0002:000a04a0       _vq_quantlist__44p4_p7_3   00000001800d84a0     libvorbisenc:vorbisenc.obj
 0002:000a0508       _huff_lengthlist__44p9_short 00000001800d8508     libvorbisenc:vorbisenc.obj
 0002:000a0528       _44p0_p5_0                 00000001800d8528     libvorbisenc:vorbisenc.obj
 0002:000a0560       _vq_lengthlist__8c0_s_p9_0 00000001800d8560     libvorbisenc:vorbisenc.obj
 0002:000a06a8       _huff_book__16c1_s_short   00000001800d86a8     libvorbisenc:vorbisenc.obj
 0002:000a06e0       _psy_noisebias_16_impulse  00000001800d86e0     libvorbisenc:vorbisenc.obj
 0002:000a0a10       _vq_lengthlist__44c6_s_p2_0 00000001800d8a10     libvorbisenc:vorbisenc.obj
 0002:000a13d8       _44p6_p1_0                 00000001800d93d8     libvorbisenc:vorbisenc.obj
 0002:000a1410       _huff_lengthlist_line_128x7_1sub2 00000001800d9410     libvorbisenc:vorbisenc.obj
 0002:000a1478       rate_mapping_22            00000001800d9478     libvorbisenc:vorbisenc.obj
 0002:000a1498       _vq_quantlist__44c1_sm_p4_0 00000001800d9498     libvorbisenc:vorbisenc.obj
 0002:000a14c0       _huff_lengthlist_line_128x4_0sub3 00000001800d94c0     libvorbisenc:vorbisenc.obj
 0002:000a15c0       _8c1_s_p7_0                00000001800d95c0     libvorbisenc:vorbisenc.obj
 0002:000a15f8       _vq_quantlist__16c2_s_p7_0 00000001800d95f8     libvorbisenc:vorbisenc.obj
 0002:000a1630       _vq_lengthlist__44p3_l0_1  00000001800d9630     libvorbisenc:vorbisenc.obj
 0002:000a1698       _44u4__p2_0                00000001800d9698     libvorbisenc:vorbisenc.obj
 0002:000a16d0       _44u9_p9_1                 00000001800d96d0     libvorbisenc:vorbisenc.obj
 0002:000a1708       _vq_quantlist__44p8_l0_0   00000001800d9708     libvorbisenc:vorbisenc.obj
 0002:000a1740       _vq_lengthlist__44c1_s_p5_0 00000001800d9740     libvorbisenc:vorbisenc.obj
 0002:000a1bc8       _vq_quantlist__44u2__p3_0  00000001800d9bc8     libvorbisenc:vorbisenc.obj
 0002:000a1be0       _vq_lengthlist__16c1_s_p6_0 00000001800d9be0     libvorbisenc:vorbisenc.obj
 0002:000a2068       _vq_quantlist__16c0_s_p5_0 00000001800da068     libvorbisenc:vorbisenc.obj
 0002:000a2090       _huff_lengthlist__44u8__long 00000001800da090     libvorbisenc:vorbisenc.obj
 0002:000a2220       _vq_lengthlist__44u7__p1_0 00000001800da220     libvorbisenc:vorbisenc.obj
 0002:000a2368       _huff_book__44c1_s_short   00000001800da368     libvorbisenc:vorbisenc.obj
 0002:000a23a0       _vq_lengthlist__44p4_p2_0  00000001800da3a0     libvorbisenc:vorbisenc.obj
 0002:000a5478       _vq_quantlist__44c7_s_p9_0 00000001800dd478     libvorbisenc:vorbisenc.obj
 0002:000a54b0       _huff_lengthlist__16u2__long 00000001800dd4b0     libvorbisenc:vorbisenc.obj
 0002:000a5640       _vq_lengthlist__16c0_s_p7_1 00000001800dd640     libvorbisenc:vorbisenc.obj
 0002:000a5828       blocksize_11               00000001800dd828     libvorbisenc:vorbisenc.obj
 0002:000a5830       _vq_lengthlist__44p4_p7_2  00000001800dd830     libvorbisenc:vorbisenc.obj
 0002:000a5898       _vq_lengthlist__44p2_p5_1  00000001800dd898     libvorbisenc:vorbisenc.obj
 0002:000a58b8       _44c5_s_p8_0               00000001800dd8b8     libvorbisenc:vorbisenc.obj
 0002:000a58f0       _huff_lengthlist_line_512x17_2sub1 00000001800dd8f0     libvorbisenc:vorbisenc.obj
 0002:000a5938       _vq_quantlist__44cn1_sm_p2_0 00000001800dd938     libvorbisenc:vorbisenc.obj
 0002:000a5950       _huff_lengthlist_line_1024x27_2sub0 00000001800dd950     libvorbisenc:vorbisenc.obj
 0002:000a59d0       _vq_lengthlist__44p8_p6_1  00000001800dd9d0     libvorbisenc:vorbisenc.obj
 0002:000a5da0       _vq_quantlist__16u1__p9_1  00000001800ddda0     libvorbisenc:vorbisenc.obj
 0002:000a5de0       _vq_quantlist__44c1_s_p8_2 00000001800ddde0     libvorbisenc:vorbisenc.obj
 0002:000a5e28       _vq_quantlist__44p1_p5_0   00000001800dde28     libvorbisenc:vorbisenc.obj
 0002:000a5e38       _huff_book__44c1_sm_long   00000001800dde38     libvorbisenc:vorbisenc.obj
 0002:000a5e70       _vq_quantlist__44cn1_sm_p5_0 00000001800dde70     libvorbisenc:vorbisenc.obj
 0002:000a5eb8       _floor_mapping_8a          00000001800ddeb8     libvorbisenc:vorbisenc.obj
 0002:000a5ec0       _huff_lengthlist_line_2048x27_4sub1 00000001800ddec0     libvorbisenc:vorbisenc.obj
 0002:000a5f08       _44p6_p4_1                 00000001800ddf08     libvorbisenc:vorbisenc.obj
 0002:000a5f40       _huff_lengthlist_line_1024x27_3sub2 00000001800ddf40     libvorbisenc:vorbisenc.obj
 0002:000a6008       _vq_quantlist__44u6__p5_0  00000001800de008     libvorbisenc:vorbisenc.obj
 0002:000a6030       _vq_lengthlist__44p8_p3_0  00000001800de030     libvorbisenc:vorbisenc.obj
 0002:000a6400       _vq_lengthlist__16c0_s_p7_0 00000001800de400     libvorbisenc:vorbisenc.obj
 0002:000a6548       _vq_quantlist__44c0_s_p6_1 00000001800de548     libvorbisenc:vorbisenc.obj
 0002:000a6578       _noise_part_16             00000001800de578     libvorbisenc:vorbisenc.obj
 0002:000a6588       _vq_quantlist__44c9_s_p7_0 00000001800de588     libvorbisenc:vorbisenc.obj
 0002:000a65c0       _vq_lengthlist__16c2_s_p4_0 00000001800de5c0     libvorbisenc:vorbisenc.obj
 0002:000a6a48       _vq_quantlist__44u3__p5_0  00000001800dea48     libvorbisenc:vorbisenc.obj
 0002:000a6a70       _huff_lengthlist__44c0_s_short 00000001800dea70     libvorbisenc:vorbisenc.obj
 0002:000a6bb8       _44c5_s_p8_1               00000001800debb8     libvorbisenc:vorbisenc.obj
 0002:000a6bf0       _vq_lengthlist__44pn1_p4_0 00000001800debf0     libvorbisenc:vorbisenc.obj
 0002:000a9cc8       _vq_quantlist__44p8_p7_1   00000001800e1cc8     libvorbisenc:vorbisenc.obj
 0002:000a9ce0       _vq_lengthlist__44u8_p5_1  00000001800e1ce0     libvorbisenc:vorbisenc.obj
 0002:000a9ec8       _44u6__p7_0                00000001800e1ec8     libvorbisenc:vorbisenc.obj
 0002:000a9f00       ve_setup_XX_uncoupled      00000001800e1f00     libvorbisenc:vorbisenc.obj
 0002:000aa030       _huff_lengthlist_line_512x17_class2 00000001800e2030     libvorbisenc:vorbisenc.obj
 0002:000aa130       _vq_lengthlist__44c2_s_p2_0 00000001800e2130     libvorbisenc:vorbisenc.obj
 0002:000aaaf8       _huff_book_line_256x7_0sub2 00000001800e2af8     libvorbisenc:vorbisenc.obj
 0002:000aab30       _vq_lengthlist__44c0_s_p6_1 00000001800e2b30     libvorbisenc:vorbisenc.obj
 0002:000aad18       _vq_quantlist__44p3_p7_0   00000001800e2d18     libvorbisenc:vorbisenc.obj
 0002:000aad28       _vq_quantlist__16c1_s_p8_0 00000001800e2d28     libvorbisenc:vorbisenc.obj
 0002:000aad60       _vq_quantlist__16c0_s_p8_1 00000001800e2d60     libvorbisenc:vorbisenc.obj
 0002:000aad78       _8u1__p9_1                 00000001800e2d78     libvorbisenc:vorbisenc.obj
 0002:000aadb0       _vq_quantlist__16u1__p9_2  00000001800e2db0     libvorbisenc:vorbisenc.obj
 0002:000aadf8       _44u0__p4_0                00000001800e2df8     libvorbisenc:vorbisenc.obj
 0002:000aae30       _vq_lengthlist__44u1__p4_0 00000001800e2e30     libvorbisenc:vorbisenc.obj
 0002:000ab7f8       _vq_quantlist__44p4_p7_1   00000001800e37f8     libvorbisenc:vorbisenc.obj
 0002:000ab808       _huff_book__44u5__long     00000001800e3808     libvorbisenc:vorbisenc.obj
 0002:000ab840       _res_44u_2                 00000001800e3840     libvorbisenc:vorbisenc.obj
 0002:000ab8b0       _vq_lengthlist__44c6_s_p8_1 00000001800e38b0     libvorbisenc:vorbisenc.obj
 0002:000abf98       _44u8_p6_0                 00000001800e3f98     libvorbisenc:vorbisenc.obj
 0002:000abfd0       _vq_lengthlist__8c0_s_p8_1 00000001800e3fd0     libvorbisenc:vorbisenc.obj
 0002:000ac038       _8c1_s_p9_2                00000001800e4038     libvorbisenc:vorbisenc.obj
 0002:000ac070       _vq_lengthlist__16c2_s_p2_0 00000001800e4070     libvorbisenc:vorbisenc.obj
 0002:000aca38       _huff_lengthlist_line_256x4low_0sub1 00000001800e4a38     libvorbisenc:vorbisenc.obj
 0002:000aca60       _vq_lengthlist__44u8_p4_0  00000001800e4a60     libvorbisenc:vorbisenc.obj
 0002:000acee8       _44u4__p4_0                00000001800e4ee8     libvorbisenc:vorbisenc.obj
 0002:000acf20       _map_nominal               00000001800e4f20     libvorbisenc:vorbisenc.obj
 0002:000ae830       _resbook_44p_l4            00000001800e6830     libvorbisenc:vorbisenc.obj
 0002:000ae9b0       _vq_lengthlist__44c8_s_p2_0 00000001800e69b0     libvorbisenc:vorbisenc.obj
 0002:000af378       _44c4_s_p5_0               00000001800e7378     libvorbisenc:vorbisenc.obj
 0002:000af3b0       _huff_lengthlist_line_256x4low_0sub2 00000001800e73b0     libvorbisenc:vorbisenc.obj
 0002:000af418       _vq_quantlist__44cn1_s_p2_0 00000001800e7418     libvorbisenc:vorbisenc.obj
 0002:000af430       _vq_lengthlist__44u9_p7_1  00000001800e7430     libvorbisenc:vorbisenc.obj
 0002:000af618       _44c2_s_p5_0               00000001800e7618     libvorbisenc:vorbisenc.obj
 0002:000af650       _vq_lengthlist__8u1__p5_0  00000001800e7650     libvorbisenc:vorbisenc.obj
 0002:000af798       _vq_quantlist__44u9_p5_0   00000001800e7798     libvorbisenc:vorbisenc.obj
 0002:000af7a8       _huff_lengthlist__44pn1_lfe 00000001800e77a8     libvorbisenc:vorbisenc.obj
 0002:000af7b8       _vq_quantlist__16u0__p5_0  00000001800e77b8     libvorbisenc:vorbisenc.obj
 0002:000af7e0       _huff_lengthlist__44c4_s_short 00000001800e77e0     libvorbisenc:vorbisenc.obj
 0002:000af970       _psy_stereo_modes_8        00000001800e7970     libvorbisenc:vorbisenc.obj
 0002:000afc40       _vq_lengthlist__44c9_s_p6_1 00000001800e7c40     libvorbisenc:vorbisenc.obj
 0002:000afca8       _16u0__p3_0                00000001800e7ca8     libvorbisenc:vorbisenc.obj
 0002:000afce0       _vq_lengthlist__16c0_s_p9_1 00000001800e7ce0     libvorbisenc:vorbisenc.obj
 0002:000b0068       _44u3__p6_0                00000001800e8068     libvorbisenc:vorbisenc.obj
 0002:000b00a0       _vq_lengthlist__44cn1_s_p8_0 00000001800e80a0     libvorbisenc:vorbisenc.obj
 0002:000b0a68       _44c1_s_p8_1               00000001800e8a68     libvorbisenc:vorbisenc.obj
 0002:000b0aa0       _huff_lengthlist__8c1_s_single 00000001800e8aa0     libvorbisenc:vorbisenc.obj
 0002:000b0c30       _huff_lengthlist__44p3_long 00000001800e8c30     libvorbisenc:vorbisenc.obj
 0002:000b0d30       _vp_tonemask_adj_otherblock 00000001800e8d30     libvorbisenc:vorbisenc.obj
 0002:000b1060       _vq_quantlist__44p2_p7_1   00000001800e9060     libvorbisenc:vorbisenc.obj
 0002:000b1070       _vq_lengthlist__44c1_s_p6_1 00000001800e9070     libvorbisenc:vorbisenc.obj
 0002:000b1258       _huff_lengthlist__44p6_lfe 00000001800e9258     libvorbisenc:vorbisenc.obj
 0002:000b1268       _huff_book_line_128x17_class2 00000001800e9268     libvorbisenc:vorbisenc.obj
 0002:000b12a0       ve_setup_X_stereo          00000001800e92a0     libvorbisenc:vorbisenc.obj
 0002:000b13d0       _vq_quantlist__44c7_s_p5_1 00000001800e93d0     libvorbisenc:vorbisenc.obj
 0002:000b1400       _psy_compand_short_mapping 00000001800e9400     libvorbisenc:vorbisenc.obj
 0002:000b1460       _huff_lengthlist_line_128x17_class3 00000001800e9460     libvorbisenc:vorbisenc.obj
 0002:000b1560       _vq_lengthlist__8c1_s_p4_0 00000001800e9560     libvorbisenc:vorbisenc.obj
 0002:000b16a8       _vq_quantlist__44u1__p1_0  00000001800e96a8     libvorbisenc:vorbisenc.obj
 0002:000b16b8       _vq_quantlist__44p6_p6_0   00000001800e96b8     libvorbisenc:vorbisenc.obj
 0002:000b16c8       _44c6_s_p8_0               00000001800e96c8     libvorbisenc:vorbisenc.obj
 0002:000b1700       _vq_lengthlist__44u5__p2_0 00000001800e9700     libvorbisenc:vorbisenc.obj
 0002:000b1848       _vq_quantlist__44u6__p6_0  00000001800e9848     libvorbisenc:vorbisenc.obj
 0002:000b1870       _vq_quantlist__44c9_s_p8_1 00000001800e9870     libvorbisenc:vorbisenc.obj
 0002:000b18c8       _huff_lengthlist__44p9_lfe 00000001800e98c8     libvorbisenc:vorbisenc.obj
 0002:000b18d0       _vq_lengthlist__44c1_s_p8_0 00000001800e98d0     libvorbisenc:vorbisenc.obj
 0002:000b1b78       _44cn1_s_p2_0              00000001800e9b78     libvorbisenc:vorbisenc.obj
 0002:000b1bb0       _vq_lengthlist__44pn1_p3_0 00000001800e9bb0     libvorbisenc:vorbisenc.obj
 0002:000b1f80       _huff_lengthlist__44p1_short 00000001800e9f80     libvorbisenc:vorbisenc.obj
 0002:000b2048       _huff_book_line_128x17_3sub3 00000001800ea048     libvorbisenc:vorbisenc.obj
 0002:000b2080       _vq_lengthlist__16u2_p7_0  00000001800ea080     libvorbisenc:vorbisenc.obj
 0002:000b2328       _8c0_s_p9_2                00000001800ea328     libvorbisenc:vorbisenc.obj
 0002:000b2360       _vq_lengthlist__44u3__p6_1 00000001800ea360     libvorbisenc:vorbisenc.obj
 0002:000b23c8       _huff_book_line_512x17_1sub0 00000001800ea3c8     libvorbisenc:vorbisenc.obj
 0002:000b2400       _huff_lengthlist__44u7__short 00000001800ea400     libvorbisenc:vorbisenc.obj
 0002:000b2590       _huff_lengthlist_line_512x17_0sub0 00000001800ea590     libvorbisenc:vorbisenc.obj
 0002:000b2790       _vq_quantlist__44cn1_sm_p8_2 00000001800ea790     libvorbisenc:vorbisenc.obj
 0002:000b27d8       _44cn1_s_p5_0              00000001800ea7d8     libvorbisenc:vorbisenc.obj
 0002:000b2810       _vq_lengthlist__44c7_s_p7_0 00000001800ea810     libvorbisenc:vorbisenc.obj
 0002:000b2ab8       _vq_quantlist__44c6_s_p2_0 00000001800eaab8     libvorbisenc:vorbisenc.obj
 0002:000b2ad0       _huff_lengthlist_line_128x17_2sub3 00000001800eaad0     libvorbisenc:vorbisenc.obj
 0002:000b2cd0       _44c8_s_p8_1               00000001800eacd0     libvorbisenc:vorbisenc.obj
 0002:000b2d08       _44c5_s_p7_0               00000001800ead08     libvorbisenc:vorbisenc.obj
 0002:000b2d40       _vq_quantlist__44p5_p5_0   00000001800ead40     libvorbisenc:vorbisenc.obj
 0002:000b2d58       _vq_quantlist__44p9_p7_0   00000001800ead58     libvorbisenc:vorbisenc.obj
 0002:000b2d70       _vq_lengthlist__44u6__p2_0 00000001800ead70     libvorbisenc:vorbisenc.obj
 0002:000b2eb8       _vq_quantlist__44u9_p3_0   00000001800eaeb8     libvorbisenc:vorbisenc.obj
 0002:000b2ee0       _huff_lengthlist_line_256x7_1sub3 00000001800eaee0     libvorbisenc:vorbisenc.obj
 0002:000b2fe0       _vq_lengthlist__16c0_s_p3_0 00000001800eafe0     libvorbisenc:vorbisenc.obj
 0002:000b39a8       _vq_quantlist__44c0_sm_p8_1 00000001800eb9a8     libvorbisenc:vorbisenc.obj
 0002:000b39e0       _vq_lengthlist__44p7_p6_0  00000001800eb9e0     libvorbisenc:vorbisenc.obj
 0002:000b3db0       _vq_lengthlist__44cn1_s_p8_1 00000001800ebdb0     libvorbisenc:vorbisenc.obj
 0002:000b4058       _44p6_p4_0                 00000001800ec058     libvorbisenc:vorbisenc.obj
 0002:000b4090       _residue_44p_lo            00000001800ec090     libvorbisenc:vorbisenc.obj
 0002:000b4ba8       _44u0__p3_0                00000001800ecba8     libvorbisenc:vorbisenc.obj
 0002:000b4be0       _vq_lengthlist__44p9_p5_0  00000001800ecbe0     libvorbisenc:vorbisenc.obj
 0002:000b7cb8       _vq_quantlist__44p1_l0_1   00000001800efcb8     libvorbisenc:vorbisenc.obj
 0002:000b7cd0       _vq_lengthlist__16u1__p9_1 00000001800efcd0     libvorbisenc:vorbisenc.obj
 0002:000b8058       _44p0_p6_1                 00000001800f0058     libvorbisenc:vorbisenc.obj
 0002:000b8090       _psy_compand_long_mapping  00000001800f0090     libvorbisenc:vorbisenc.obj
 0002:000b80f0       _vq_lengthlist__44pn1_p3_1 00000001800f00f0     libvorbisenc:vorbisenc.obj
 0002:000bb1c8       _vq_quantlist__44u4__p7_1  00000001800f31c8     libvorbisenc:vorbisenc.obj
 0002:000bb208       _44u5__p9_0                00000001800f3208     libvorbisenc:vorbisenc.obj
 0002:000bb240       _vq_lengthlist__44u9_p4_0  00000001800f3240     libvorbisenc:vorbisenc.obj
 0002:000bb6c8       _psy_tone_suppress         00000001800f36c8     libvorbisenc:vorbisenc.obj
 0002:000bb6f8       _vq_quantlist__44u0__p4_0  00000001800f36f8     libvorbisenc:vorbisenc.obj
 0002:000bb710       _vq_quantlist__16c0_s_p6_0 00000001800f3710     libvorbisenc:vorbisenc.obj
 0002:000bb758       _16u1__p9_1                00000001800f3758     libvorbisenc:vorbisenc.obj
 0002:000bb790       _vq_lengthlist__16c1_s_p1_0 00000001800f3790     libvorbisenc:vorbisenc.obj
 0002:000c1e18       _vq_quantlist__44pn1_p6_0  00000001800f9e18     libvorbisenc:vorbisenc.obj
 0002:000c1e28       _vq_quantlist__44c4_s_p7_1 00000001800f9e28     libvorbisenc:vorbisenc.obj
 0002:000c1e58       _vq_quantlist__8c0_s_p7_0  00000001800f9e58     libvorbisenc:vorbisenc.obj
 0002:000c1e68       _vq_quantlist__44c3_s_p5_0 00000001800f9e68     libvorbisenc:vorbisenc.obj
 0002:000c1e90       _vq_lengthlist__44u2__p5_0 00000001800f9e90     libvorbisenc:vorbisenc.obj
 0002:000c1fd8       _44p8_p7_2                 00000001800f9fd8     libvorbisenc:vorbisenc.obj
 0002:000c2010       _huff_lengthlist_line_128x11_3sub1 00000001800fa010     libvorbisenc:vorbisenc.obj
 0002:000c2058       _noise_start_short_44      00000001800fa058     libvorbisenc:vorbisenc.obj
 0002:000c2088       _vq_quantlist__44c7_s_p9_1 00000001800fa088     libvorbisenc:vorbisenc.obj
 0002:000c20c0       _vq_lengthlist__44cn1_sm_p6_1 00000001800fa0c0     libvorbisenc:vorbisenc.obj
 0002:000c22a8       _huff_book__44c5_s_long    00000001800fa2a8     libvorbisenc:vorbisenc.obj
 0002:000c22e0       _vq_quantlist__44c0_sm_p5_0 00000001800fa2e0     libvorbisenc:vorbisenc.obj
 0002:000c2328       _vq_quantlist__44c2_s_p9_1 00000001800fa328     libvorbisenc:vorbisenc.obj
 0002:000c2360       _vq_lengthlist__44p8_p7_3  00000001800fa360     libvorbisenc:vorbisenc.obj
 0002:000c23c8       _44u4__p3_0                00000001800fa3c8     libvorbisenc:vorbisenc.obj
 0002:000c2400       _psy_compand_16_mapping    00000001800fa400     libvorbisenc:vorbisenc.obj
 0002:000c2420       _vq_quantlist__44c9_s_p5_1 00000001800fa420     libvorbisenc:vorbisenc.obj
 0002:000c2450       _huff_book__44u9__long     00000001800fa450     libvorbisenc:vorbisenc.obj
 0002:000c2488       _44u8_p5_1                 00000001800fa488     libvorbisenc:vorbisenc.obj
 0002:000c24c0       _vq_lengthlist__44u2__p2_0 00000001800fa4c0     libvorbisenc:vorbisenc.obj
 0002:000c2608       _44p7_p3_0                 00000001800fa608     libvorbisenc:vorbisenc.obj
 0002:000c2640       _vq_lengthlist__44p7_l1_0  00000001800fa640     libvorbisenc:vorbisenc.obj
 0002:000c26a8       _vq_quantlist__44p3_p4_0   00000001800fa6a8     libvorbisenc:vorbisenc.obj
 0002:000c26b8       _vq_quantlist__44c1_sm_p8_1 00000001800fa6b8     libvorbisenc:vorbisenc.obj
 0002:000c26f0       _vq_lengthlist__44p1_p2_0  00000001800fa6f0     libvorbisenc:vorbisenc.obj
 0002:000c2ac0       _44c1_sm_p6_0              00000001800faac0     libvorbisenc:vorbisenc.obj
 0002:000c2af8       _mapres_template_16_stereo 00000001800faaf8     libvorbisenc:vorbisenc.obj
 0002:000c2b28       _44u9_p6_1                 00000001800fab28     libvorbisenc:vorbisenc.obj
 0002:000c2b60       _vq_quantlist__44u2__p6_1  00000001800fab60     libvorbisenc:vorbisenc.obj
 0002:000c2b78       _44u2__p6_1                00000001800fab78     libvorbisenc:vorbisenc.obj
 0002:000c2bb0       _vq_lengthlist__44c1_sm_p3_0 00000001800fabb0     libvorbisenc:vorbisenc.obj
 0002:000c2cf8       _vq_quantlist__44c3_s_p8_1 00000001800facf8     libvorbisenc:vorbisenc.obj
 0002:000c2d10       _resbook_44p_9             00000001800fad10     libvorbisenc:vorbisenc.obj
 0002:000c2e90       _huff_book_line_128x11_1sub0 00000001800fae90     libvorbisenc:vorbisenc.obj
 0002:000c2ec8       _44p3_l0_0                 00000001800faec8     libvorbisenc:vorbisenc.obj
 0002:000c2f00       _huff_lengthlist_line_128x17_2sub1 00000001800faf00     libvorbisenc:vorbisenc.obj
 0002:000c2f48       _44c7_s_p5_0               00000001800faf48     libvorbisenc:vorbisenc.obj
 0002:000c2f80       _huff_lengthlist__44c3_s_short 00000001800faf80     libvorbisenc:vorbisenc.obj
 0002:000c3110       _vq_lengthlist__44p2_l0_1  00000001800fb110     libvorbisenc:vorbisenc.obj
 0002:000c3178       _44p7_l0_1                 00000001800fb178     libvorbisenc:vorbisenc.obj
 0002:000c31b0       _vq_quantlist__44c8_s_p8_1 00000001800fb1b0     libvorbisenc:vorbisenc.obj
 0002:000c3208       _huff_book_line_1024x27_class3 00000001800fb208     libvorbisenc:vorbisenc.obj
 0002:000c3240       _huff_book_line_256x7_0sub1 00000001800fb240     libvorbisenc:vorbisenc.obj
 0002:000c3278       _vq_quantlist__44u4__p7_0  00000001800fb278     libvorbisenc:vorbisenc.obj
 0002:000c32b0       _44c1_sm_p7_0              00000001800fb2b0     libvorbisenc:vorbisenc.obj
 0002:000c32e8       _44u0__p7_2                00000001800fb2e8     libvorbisenc:vorbisenc.obj
 0002:000c3320       _vq_quantlist__44p8_p4_1   00000001800fb320     libvorbisenc:vorbisenc.obj
 0002:000c3338       _44c9_s_p8_1               00000001800fb338     libvorbisenc:vorbisenc.obj
 0002:000c3370       _huff_book__44u6__long     00000001800fb370     libvorbisenc:vorbisenc.obj
 0002:000c33a8       _vq_quantlist__44cn1_s_p4_0 00000001800fb3a8     libvorbisenc:vorbisenc.obj
 0002:000c33d0       _8c1_s_p7_1                00000001800fb3d0     libvorbisenc:vorbisenc.obj
 0002:000c3408       _44u7__p9_2                00000001800fb408     libvorbisenc:vorbisenc.obj
 0002:000c3440       _huff_lengthlist__44u9__long 00000001800fb440     libvorbisenc:vorbisenc.obj
 0002:000c35d0       _vq_quantlist__44c0_sm_p7_1 00000001800fb5d0     libvorbisenc:vorbisenc.obj
 0002:000c35e8       _44u1__p6_1                00000001800fb5e8     libvorbisenc:vorbisenc.obj
 0002:000c3620       ve_setup_44_uncoupled      00000001800fb620     libvorbisenc:vorbisenc.obj
 0002:000c3750       _floor_books               00000001800fb750     libvorbisenc:vorbisenc.obj
 0002:000c37a8       _16c2_s_p6_0               00000001800fb7a8     libvorbisenc:vorbisenc.obj
 0002:000c37e0       _vq_lengthlist__44c3_s_p2_0 00000001800fb7e0     libvorbisenc:vorbisenc.obj
 0002:000c41a8       _44p2_l1_0                 00000001800fc1a8     libvorbisenc:vorbisenc.obj
 0002:000c41e0       _vq_lengthlist__16c2_s_p3_0 00000001800fc1e0     libvorbisenc:vorbisenc.obj
 0002:000c4328       _huff_book__44p9_long      00000001800fc328     libvorbisenc:vorbisenc.obj
 0002:000c4360       _vq_quantlist__44c3_s_p8_0 00000001800fc360     libvorbisenc:vorbisenc.obj
 0002:000c4398       _vq_quantlist__16c2_s_p5_0 00000001800fc398     libvorbisenc:vorbisenc.obj
 0002:000c43a8       _16u1__p4_0                00000001800fc3a8     libvorbisenc:vorbisenc.obj
 0002:000c43e0       _vp_tonemask_adj_longblock 00000001800fc3e0     libvorbisenc:vorbisenc.obj
 0002:000c4710       _44u4__p7_2                00000001800fc710     libvorbisenc:vorbisenc.obj
 0002:000c4748       _huff_book_line_128x7_class0 00000001800fc748     libvorbisenc:vorbisenc.obj
 0002:000c4780       _vq_lengthlist__44p7_l0_0  00000001800fc780     libvorbisenc:vorbisenc.obj
 0002:000c4a28       _vq_quantlist__44u2__p7_1  00000001800fca28     libvorbisenc:vorbisenc.obj
 0002:000c4a60       _vq_lengthlist__44c6_s_p7_0 00000001800fca60     libvorbisenc:vorbisenc.obj
 0002:000c4d08       _huff_book__44p7_long      00000001800fcd08     libvorbisenc:vorbisenc.obj
 0002:000c4d40       _vq_quantlist__44c3_s_p6_0 00000001800fcd40     libvorbisenc:vorbisenc.obj
 0002:000c4d88       _vq_lengthlist__44p3_p5_1  00000001800fcd88     libvorbisenc:vorbisenc.obj
 0002:000c4da8       _44c6_s_p6_1               00000001800fcda8     libvorbisenc:vorbisenc.obj
 0002:000c4de0       _vq_lengthlist__44p7_p3_0  00000001800fcde0     libvorbisenc:vorbisenc.obj
 0002:000c51b0       _vq_quantlist__44pn1_l0_0  00000001800fd1b0     libvorbisenc:vorbisenc.obj
 0002:000c51e8       _44p8_p6_0                 00000001800fd1e8     libvorbisenc:vorbisenc.obj
 0002:000c5220       _vq_quantlist__44p0_p4_1   00000001800fd220     libvorbisenc:vorbisenc.obj
 0002:000c5240       _huff_book__44un1__short   00000001800fd240     libvorbisenc:vorbisenc.obj
 0002:000c5278       _vq_quantlist__44c5_s_p4_0 00000001800fd278     libvorbisenc:vorbisenc.obj
 0002:000c52a0       _44p5_l0_1                 00000001800fd2a0     libvorbisenc:vorbisenc.obj
 0002:000c52d8       _44c3_s_p9_2               00000001800fd2d8     libvorbisenc:vorbisenc.obj
 0002:000c5310       _vq_quantlist__44c8_s_p9_1 00000001800fd310     libvorbisenc:vorbisenc.obj
 0002:000c5360       _vq_quantlist__16c0_s_p7_1 00000001800fd360     libvorbisenc:vorbisenc.obj
 0002:000c5390       _floor_256x7_books         00000001800fd390     libvorbisenc:vorbisenc.obj
 0002:000c53d0       _psy_ath_floater_16        00000001800fd3d0     libvorbisenc:vorbisenc.obj
 0002:000c53e0       _psy_lowpass_44            00000001800fd3e0     libvorbisenc:vorbisenc.obj
 0002:000c5440       _vq_quantlist__44c7_s_p5_0 00000001800fd440     libvorbisenc:vorbisenc.obj
 0002:000c5450       _vq_lengthlist__44u2__p7_1 00000001800fd450     libvorbisenc:vorbisenc.obj
 0002:000c56f8       _res_8u_0                  00000001800fd6f8     libvorbisenc:vorbisenc.obj
 0002:000c5730       _vq_lengthlist__44c2_s_p9_2 00000001800fd730     libvorbisenc:vorbisenc.obj
 0002:000c5bb8       _vq_quantlist__44c5_s_p8_0 00000001800fdbb8     libvorbisenc:vorbisenc.obj
 0002:000c5bf0       _vq_lengthlist__44c9_s_p9_1 00000001800fdbf0     libvorbisenc:vorbisenc.obj
 0002:000c6198       _vq_quantlist__44p2_l0_1   00000001800fe198     libvorbisenc:vorbisenc.obj
 0002:000c61b0       _vq_lengthlist__44p5_p4_0  00000001800fe1b0     libvorbisenc:vorbisenc.obj
 0002:000c6580       _vq_quantlist__16c2_s_p9_0 00000001800fe580     libvorbisenc:vorbisenc.obj
 0002:000c65c8       _huff_book__44u1__long     00000001800fe5c8     libvorbisenc:vorbisenc.obj
 0002:000c6600       _44cn1_s_p7_0              00000001800fe600     libvorbisenc:vorbisenc.obj
 0002:000c6638       _vq_quantlist__44c8_s_p3_0 00000001800fe638     libvorbisenc:vorbisenc.obj
 0002:000c6660       _vq_lengthlist__44c0_sm_p7_1 00000001800fe660     libvorbisenc:vorbisenc.obj
 0002:000c66c8       _vq_quantlist__44p7_p5_0   00000001800fe6c8     libvorbisenc:vorbisenc.obj
 0002:000c66e0       _vq_lengthlist__44p9_p2_0  00000001800fe6e0     libvorbisenc:vorbisenc.obj
 0002:000c97b8       _vq_quantlist__44c0_s_p6_0 00000001801017b8     libvorbisenc:vorbisenc.obj
 0002:000c97c8       _44c1_sm_p4_0              00000001801017c8     libvorbisenc:vorbisenc.obj
 0002:000c9800       _44p7_p5_1                 0000000180101800     libvorbisenc:vorbisenc.obj
 0002:000c9838       _44p4_p3_1                 0000000180101838     libvorbisenc:vorbisenc.obj
 0002:000c9870       _floor_1024x27_books       0000000180101870     libvorbisenc:vorbisenc.obj
 0002:000c98e8       _huff_book_line_1024x27_2sub1 00000001801018e8     libvorbisenc:vorbisenc.obj
 0002:000c9920       _vq_lengthlist__44u7__p9_0 0000000180101920     libvorbisenc:vorbisenc.obj
 0002:000c9b08       _vq_quantlist__44c0_s_p8_0 0000000180101b08     libvorbisenc:vorbisenc.obj
 0002:000c9b20       _vq_lengthlist__44u8_p6_1  0000000180101b20     libvorbisenc:vorbisenc.obj
 0002:000c9b88       _huff_book_line_256x4_0sub1 0000000180101b88     libvorbisenc:vorbisenc.obj
 0002:000c9bc0       _huff_book__44u1__short    0000000180101bc0     libvorbisenc:vorbisenc.obj
 0002:000c9bf8       _44c6_s_p3_0               0000000180101bf8     libvorbisenc:vorbisenc.obj
 0002:000c9c30       _16c2_s_p5_0               0000000180101c30     libvorbisenc:vorbisenc.obj
 0002:000c9c68       _44u4__p6_0                0000000180101c68     libvorbisenc:vorbisenc.obj
 0002:000c9ca0       _vq_lengthlist__16c1_s_p8_1 0000000180101ca0     libvorbisenc:vorbisenc.obj
 0002:000c9d08       _44c4_s_p7_1               0000000180101d08     libvorbisenc:vorbisenc.obj
 0002:000c9d40       _floor                     0000000180101d40     libvorbisenc:vorbisenc.obj
 0002:000ccd60       _vq_quantlist__44p5_p7_0   0000000180104d60     libvorbisenc:vorbisenc.obj
 0002:000ccd70       _floor_256x4low_books      0000000180104d70     libvorbisenc:vorbisenc.obj
 0002:000ccd98       _vq_quantlist__44cn1_s_p3_0 0000000180104d98     libvorbisenc:vorbisenc.obj
 0002:000ccdc0       _vq_quantlist__44p1_p6_2   0000000180104dc0     libvorbisenc:vorbisenc.obj
 0002:000cce28       _psy_tone_0dB              0000000180104e28     libvorbisenc:vorbisenc.obj
 0002:000cce58       _16c0_s_p5_0               0000000180104e58     libvorbisenc:vorbisenc.obj
 0002:000cce90       _vq_lengthlist__16c1_s_p7_1 0000000180104e90     libvorbisenc:vorbisenc.obj
 0002:000cd078       _huff_book__44un1__long    0000000180105078     libvorbisenc:vorbisenc.obj
 0002:000cd0b0       _huff_book__44p7_short     00000001801050b0     libvorbisenc:vorbisenc.obj
 0002:000cd0e8       _44pn1_p6_0                00000001801050e8     libvorbisenc:vorbisenc.obj
 0002:000cd120       _vq_lengthlist__8c1_s_p5_0 0000000180105120     libvorbisenc:vorbisenc.obj
 0002:000cd268       _44c9_s_p1_0               0000000180105268     libvorbisenc:vorbisenc.obj
 0002:000cd2a0       _vq_lengthlist__44p6_p3_1  00000001801052a0     libvorbisenc:vorbisenc.obj
 0002:000cd670       _vq_lengthlist__44c6_s_p6_0 0000000180105670     libvorbisenc:vorbisenc.obj
 0002:000cd918       _huff_book__44c8_s_short   0000000180105918     libvorbisenc:vorbisenc.obj
 0002:000cd950       _floor_mapping_16a         0000000180105950     libvorbisenc:vorbisenc.obj
 0002:000cd960       _huff_book_line_128x17_0sub0 0000000180105960     libvorbisenc:vorbisenc.obj
 0002:000cd998       _8c0_s_p7_0                0000000180105998     libvorbisenc:vorbisenc.obj
 0002:000cd9d0       _vq_quantlist__44c4_s_p7_0 00000001801059d0     libvorbisenc:vorbisenc.obj
 0002:000cd9e0       _16c0_s_p9_2               00000001801059e0     libvorbisenc:vorbisenc.obj
 0002:000cda18       _vq_quantlist__8u1__p6_0   0000000180105a18     libvorbisenc:vorbisenc.obj
 0002:000cda40       _44u5__p8_0                0000000180105a40     libvorbisenc:vorbisenc.obj
 0002:000cda78       _vq_quantlist__44cn1_s_p8_1 0000000180105a78     libvorbisenc:vorbisenc.obj
 0002:000cdab0       _resbook_44u_6             0000000180105ab0     libvorbisenc:vorbisenc.obj
 0002:000cdc30       rate_mapping_44_stereo     0000000180105c30     libvorbisenc:vorbisenc.obj
 0002:000cdc90       _vq_lengthlist__44cn1_s_p5_0 0000000180105c90     libvorbisenc:vorbisenc.obj
 0002:000ce118       _huff_lengthlist_line_128x7_1sub1 0000000180106118     libvorbisenc:vorbisenc.obj
 0002:000ce140       _vq_quantlist__44c6_s_p6_1 0000000180106140     libvorbisenc:vorbisenc.obj
 0002:000ce158       _huff_book_line_2048x27_class4 0000000180106158     libvorbisenc:vorbisenc.obj
 0002:000ce190       _resbook_16u_1             0000000180106190     libvorbisenc:vorbisenc.obj
 0002:000ce310       _vq_lengthlist__44p9_p7_2  0000000180106310     libvorbisenc:vorbisenc.obj
 0002:000ce378       _huff_book_line_128x11_3sub3 0000000180106378     libvorbisenc:vorbisenc.obj
 0002:000ce3b0       _44cn1_s_p4_0              00000001801063b0     libvorbisenc:vorbisenc.obj
 0002:000ce3e8       _vq_quantlist__44p2_p4_1   00000001801063e8     libvorbisenc:vorbisenc.obj
 0002:000ce400       _vq_lengthlist__44u0__p1_0 0000000180106400     libvorbisenc:vorbisenc.obj
 0002:000ce548       _44u7__p3_0                0000000180106548     libvorbisenc:vorbisenc.obj
 0002:000ce580       _vq_lengthlist__44c0_sm_p2_0 0000000180106580     libvorbisenc:vorbisenc.obj
 0002:000cef48       _vq_quantlist__44c7_s_p1_0 0000000180106f48     libvorbisenc:vorbisenc.obj
 0002:000cef58       _44c7_s_p7_1               0000000180106f58     libvorbisenc:vorbisenc.obj
 0002:000cef90       _vq_lengthlist__8c1_s_p7_1 0000000180106f90     libvorbisenc:vorbisenc.obj
 0002:000cf178       _44p0_p6_2                 0000000180107178     libvorbisenc:vorbisenc.obj
 0002:000cf1b0       _vq_lengthlist__44p8_p4_0  00000001801071b0     libvorbisenc:vorbisenc.obj
 0002:000cf580       _residue_44_high           0000000180107580     libvorbisenc:vorbisenc.obj
 0002:000d0098       _huff_book_line_256x7_class1 0000000180108098     libvorbisenc:vorbisenc.obj
 0002:000d00d0       _vq_lengthlist__44cn1_sm_p4_0 00000001801080d0     libvorbisenc:vorbisenc.obj
 0002:000d0218       _44p7_p4_1                 0000000180108218     libvorbisenc:vorbisenc.obj
 0002:000d0250       _vq_lengthlist__44c1_sm_p4_0 0000000180108250     libvorbisenc:vorbisenc.obj
 0002:000d0398       _44u8_p9_1                 0000000180108398     libvorbisenc:vorbisenc.obj
 0002:000d03d0       _vq_lengthlist__44p6_p7_3  00000001801083d0     libvorbisenc:vorbisenc.obj
 0002:000d0438       _44cn1_s_p3_0              0000000180108438     libvorbisenc:vorbisenc.obj
 0002:000d0470       _vq_lengthlist__44c0_s_p8_2 0000000180108470     libvorbisenc:vorbisenc.obj
 0002:000d08f8       _vq_quantlist__16u0__p6_1  00000001801088f8     libvorbisenc:vorbisenc.obj
 0002:000d0910       _vq_lengthlist__16c2_s_p8_0 0000000180108910     libvorbisenc:vorbisenc.obj
 0002:000d0c98       _vq_quantlist__44p5_p7_1   0000000180108c98     libvorbisenc:vorbisenc.obj
 0002:000d0ca8       _44p7_p7_3                 0000000180108ca8     libvorbisenc:vorbisenc.obj
 0002:000d0ce0       rate_mapping_X             0000000180108ce0     libvorbisenc:vorbisenc.obj
 0002:000d0d40       _huff_lengthlist__44c0_sm_long 0000000180108d40     libvorbisenc:vorbisenc.obj
 0002:000d0e88       _44c0_s_p6_0               0000000180108e88     libvorbisenc:vorbisenc.obj
 0002:000d0ec0       _resbook_44p_l2            0000000180108ec0     libvorbisenc:vorbisenc.obj
 0002:000d1040       _vq_quantlist__44p7_p6_1   0000000180109040     libvorbisenc:vorbisenc.obj
 0002:000d1050       _44p0_p6_0                 0000000180109050     libvorbisenc:vorbisenc.obj
 0002:000d1088       _44p5_p7_0                 0000000180109088     libvorbisenc:vorbisenc.obj
 0002:000d10c0       _vq_lengthlist__44u8_p1_0  00000001801090c0     libvorbisenc:vorbisenc.obj
 0002:000d1208       _44u5__p7_0                0000000180109208     libvorbisenc:vorbisenc.obj
 0002:000d1240       _vq_quantlist__44c2_s_p6_0 0000000180109240     libvorbisenc:vorbisenc.obj
 0002:000d1288       _44c6_s_p6_0               0000000180109288     libvorbisenc:vorbisenc.obj
 0002:000d12c0       _vq_lengthlist__44p5_p7_3  00000001801092c0     libvorbisenc:vorbisenc.obj
 0002:000d1328       _huff_book__44c3_s_long    0000000180109328     libvorbisenc:vorbisenc.obj
 0002:000d1360       _vq_lengthlist__44p3_p6_0  0000000180109360     libvorbisenc:vorbisenc.obj
 0002:000d1730       _huff_lengthlist_line_128x17_1sub0 0000000180109730     libvorbisenc:vorbisenc.obj
 0002:000d17b0       _vq_quantlist__44c8_s_p9_0 00000001801097b0     libvorbisenc:vorbisenc.obj
 0002:000d17f8       _psy_lowpass_16            00000001801097f8     libvorbisenc:vorbisenc.obj
 0002:000d1818       _vq_quantlist__44p7_l0_1   0000000180109818     libvorbisenc:vorbisenc.obj
 0002:000d1830       _psy_stereo_modes_44       0000000180109830     libvorbisenc:vorbisenc.obj
 0002:000d2370       _vq_quantlist__44u0__p5_0  000000018010a370     libvorbisenc:vorbisenc.obj
 0002:000d2398       _44p5_p1_0                 000000018010a398     libvorbisenc:vorbisenc.obj
 0002:000d23d0       _vq_lengthlist__44u1__p2_0 000000018010a3d0     libvorbisenc:vorbisenc.obj
 0002:000d2518       _huff_book__44p5_long      000000018010a518     libvorbisenc:vorbisenc.obj
 0002:000d2550       _vq_lengthlist__16c0_s_p5_0 000000018010a550     libvorbisenc:vorbisenc.obj
 0002:000d2698       _vq_quantlist__16u1__p8_1  000000018010a698     libvorbisenc:vorbisenc.obj
 0002:000d26c8       _vq_quantlist__44c4_s_p9_1 000000018010a6c8     libvorbisenc:vorbisenc.obj
 0002:000d2708       _44u0__p2_0                000000018010a708     libvorbisenc:vorbisenc.obj
 0002:000d2740       _vq_quantlist__44p4_p2_0   000000018010a740     libvorbisenc:vorbisenc.obj
 0002:000d2758       _44c8_s_p6_0               000000018010a758     libvorbisenc:vorbisenc.obj
 0002:000d2790       _44u8_p4_0                 000000018010a790     libvorbisenc:vorbisenc.obj
 0002:000d27c8       _44un1__p3_0               000000018010a7c8     libvorbisenc:vorbisenc.obj
 0002:000d2800       _vq_lengthlist__44c1_sm_p6_0 000000018010a800     libvorbisenc:vorbisenc.obj
 0002:000d2948       _vq_quantlist__16c2_s_p6_1 000000018010a948     libvorbisenc:vorbisenc.obj
 0002:000d2960       _resbook_44p_8             000000018010a960     libvorbisenc:vorbisenc.obj
 0002:000d2ae0       _vq_quantlist__44p9_p4_0   000000018010aae0     libvorbisenc:vorbisenc.obj
 0002:000d2af0       _vq_lengthlist__44u0__p7_0 000000018010aaf0     libvorbisenc:vorbisenc.obj
 0002:000d34b8       _44c6_s_p8_1               000000018010b4b8     libvorbisenc:vorbisenc.obj
 0002:000d34f0       _huff_lengthlist__16u0__single 000000018010b4f0     libvorbisenc:vorbisenc.obj
 0002:000d35f0       _huff_lengthlist_line_1024x27_3sub3 000000018010b5f0     libvorbisenc:vorbisenc.obj
 0002:000d37f0       blocksize_long_44          000000018010b7f0     libvorbisenc:vorbisenc.obj
 0002:000d3820       _vq_lengthlist__44p6_p7_2  000000018010b820     libvorbisenc:vorbisenc.obj
 0002:000d3888       _vq_quantlist__44c1_sm_p7_1 000000018010b888     libvorbisenc:vorbisenc.obj
 0002:000d38a0       _44c3_s_p7_1               000000018010b8a0     libvorbisenc:vorbisenc.obj
 0002:000d38d8       _vq_quantlist__44cn1_s_p7_0 000000018010b8d8     libvorbisenc:vorbisenc.obj
 0002:000d3910       _vq_lengthlist__44p1_p2_1  000000018010b910     libvorbisenc:vorbisenc.obj
 0002:000d3ce0       _44p7_p1_0                 000000018010bce0     libvorbisenc:vorbisenc.obj
 0002:000d3d18       _vq_quantlist__44p4_p5_1   000000018010bd18     libvorbisenc:vorbisenc.obj
 0002:000d3d38       _vq_quantlist__44c2_s_p5_0 000000018010bd38     libvorbisenc:vorbisenc.obj
 0002:000d3d60       _vq_quantlist__44c9_s_p6_1 000000018010bd60     libvorbisenc:vorbisenc.obj
 0002:000d3d78       _44un1__p5_0               000000018010bd78     libvorbisenc:vorbisenc.obj
 0002:000d3db0       _vq_lengthlist__16c1_s_p3_0 000000018010bdb0     libvorbisenc:vorbisenc.obj
 0002:000d4778       _8u1__p4_0                 000000018010c778     libvorbisenc:vorbisenc.obj
 0002:000d47b0       _vq_quantlist__44p9_p7_3   000000018010c7b0     libvorbisenc:vorbisenc.obj
 0002:000d4818       _44c0_s_p3_0               000000018010c818     libvorbisenc:vorbisenc.obj
 0002:000d4850       _44c4_s_p8_0               000000018010c850     libvorbisenc:vorbisenc.obj
 0002:000d4888       _psy_ath_abs_16            000000018010c888     libvorbisenc:vorbisenc.obj
 0002:000d4898       _44u4__p6_1                000000018010c898     libvorbisenc:vorbisenc.obj
 0002:000d48d0       _huff_lengthlist_line_2048x27_1sub1 000000018010c8d0     libvorbisenc:vorbisenc.obj
 0002:000d4ad0       _vq_lengthlist__44u6__p7_1 000000018010cad0     libvorbisenc:vorbisenc.obj
 0002:000d4cb8       _vq_quantlist__44c0_s_p3_0 000000018010ccb8     libvorbisenc:vorbisenc.obj
 0002:000d4ce0       _vq_quantlist__44c8_s_p8_0 000000018010cce0     libvorbisenc:vorbisenc.obj
 0002:000d4d20       _44u0__p6_0                000000018010cd20     libvorbisenc:vorbisenc.obj
 0002:000d4d58       _44p2_p2_0                 000000018010cd58     libvorbisenc:vorbisenc.obj
 0002:000d4d90       _vq_quantlist__16u2_p9_0   000000018010cd90     libvorbisenc:vorbisenc.obj
 0002:000d4dd0       _vq_lengthlist__44c0_s_p1_0 000000018010cdd0     libvorbisenc:vorbisenc.obj
 0002:000db458       _44c9_s_p7_1               0000000180113458     libvorbisenc:vorbisenc.obj
 0002:000db490       _psy_noisebias_16          0000000180113490     libvorbisenc:vorbisenc.obj
 0002:000db7c0       _vq_lengthlist__8c1_s_p9_2 00000001801137c0     libvorbisenc:vorbisenc.obj
 0002:000dbea8       _44u8_p9_0                 0000000180113ea8     libvorbisenc:vorbisenc.obj
 0002:000dbee0       _floor_128x11_books        0000000180113ee0     libvorbisenc:vorbisenc.obj
 0002:000dbf40       _vq_quantlist__44p5_p3_0   0000000180113f40     libvorbisenc:vorbisenc.obj
 0002:000dbf50       _huff_lengthlist__16c1_s_short 0000000180113f50     libvorbisenc:vorbisenc.obj
 0002:000dc0e0       _vq_quantlist__44c6_s_p4_0 00000001801140e0     libvorbisenc:vorbisenc.obj
 0002:000dc128       _vq_quantlist__44u4__p3_0  0000000180114128     libvorbisenc:vorbisenc.obj
 0002:000dc140       _huff_lengthlist__44u4__short 0000000180114140     libvorbisenc:vorbisenc.obj
 0002:000dc240       _huff_lengthlist__16c1_s_long 0000000180114240     libvorbisenc:vorbisenc.obj
 0002:000dc3d0       _vq_lengthlist__44u2__p4_0 00000001801143d0     libvorbisenc:vorbisenc.obj
 0002:000dcd98       _vq_quantlist__16c1_s_p3_0 0000000180114d98     libvorbisenc:vorbisenc.obj
 0002:000dcdb0       _vq_quantlist__44u7__p9_2  0000000180114db0     libvorbisenc:vorbisenc.obj
 0002:000dce78       _44c3_s_p5_0               0000000180114e78     libvorbisenc:vorbisenc.obj
 0002:000dceb0       _resbook_44sm_n1           0000000180114eb0     libvorbisenc:vorbisenc.obj
 0002:000dd030       _vq_quantlist__44u9_p9_2   0000000180115030     libvorbisenc:vorbisenc.obj
 0002:000dd0f8       _44p7_p6_1                 00000001801150f8     libvorbisenc:vorbisenc.obj
 0002:000dd130       _vq_quantlist__44p5_p7_3   0000000180115130     libvorbisenc:vorbisenc.obj
 0002:000dd198       _vq_quantlist__44u7__p6_0  0000000180115198     libvorbisenc:vorbisenc.obj
 0002:000dd1c0       _huff_lengthlist__44c4_s_long 00000001801151c0     libvorbisenc:vorbisenc.obj
 0002:000dd350       _vq_lengthlist__16u0__p6_0 0000000180115350     libvorbisenc:vorbisenc.obj
 0002:000dd5f8       _44c7_s_p9_2               00000001801155f8     libvorbisenc:vorbisenc.obj
 0002:000dd630       _huff_book__44p1_long      0000000180115630     libvorbisenc:vorbisenc.obj
 0002:000dd668       _44cn1_s_p7_1              0000000180115668     libvorbisenc:vorbisenc.obj
 0002:000dd6a0       _vq_lengthlist__44p4_p7_0  00000001801156a0     libvorbisenc:vorbisenc.obj
 0002:000dda70       _44p3_p3_0                 0000000180115a70     libvorbisenc:vorbisenc.obj
 0002:000ddaa8       _vq_quantlist__44c2_s_p4_0 0000000180115aa8     libvorbisenc:vorbisenc.obj
 0002:000ddad0       _vq_lengthlist__16u2_p5_1  0000000180115ad0     libvorbisenc:vorbisenc.obj
 0002:000ddcb8       _huff_book_line_256x7_class0 0000000180115cb8     libvorbisenc:vorbisenc.obj
 0002:000ddcf0       _vq_lengthlist__44c4_s_p9_2 0000000180115cf0     libvorbisenc:vorbisenc.obj
 0002:000de3d8       _44p8_l0_1                 00000001801163d8     libvorbisenc:vorbisenc.obj
 0002:000de410       _huff_lengthlist__16c2_s_short 0000000180116410     libvorbisenc:vorbisenc.obj
 0002:000de5a0       _vq_lengthlist__44pn1_p2_0 00000001801165a0     libvorbisenc:vorbisenc.obj
 0002:000de970       _vq_quantlist__44p3_p6_0   0000000180116970     libvorbisenc:vorbisenc.obj
 0002:000de980       _vq_lengthlist__44u3__p5_0 0000000180116980     libvorbisenc:vorbisenc.obj
 0002:000deac8       _44p3_l1_0                 0000000180116ac8     libvorbisenc:vorbisenc.obj
 0002:000deb00       _vq_lengthlist__44p9_l0_1  0000000180116b00     libvorbisenc:vorbisenc.obj
 0002:000deb68       _vq_quantlist__44u2__p7_2  0000000180116b68     libvorbisenc:vorbisenc.obj
 0002:000deba0       _44p9_p7_0                 0000000180116ba0     libvorbisenc:vorbisenc.obj
 0002:000debd8       _vq_quantlist__44p1_p4_0   0000000180116bd8     libvorbisenc:vorbisenc.obj
 0002:000debf0       _44c3_s_p4_0               0000000180116bf0     libvorbisenc:vorbisenc.obj
 0002:000dec28       _44c0_sm_p6_0              0000000180116c28     libvorbisenc:vorbisenc.obj
 0002:000dec60       _vq_quantlist__16c1_s_p1_0 0000000180116c60     libvorbisenc:vorbisenc.obj
 0002:000dec70       _res_16s_0                 0000000180116c70     libvorbisenc:vorbisenc.obj
 0002:000deca8       _44u5__p8_1                0000000180116ca8     libvorbisenc:vorbisenc.obj
 0002:000dece0       _vq_lengthlist__44c0_s_p8_0 0000000180116ce0     libvorbisenc:vorbisenc.obj
 0002:000df6a8       _vq_quantlist__16u2_p5_0   00000001801176a8     libvorbisenc:vorbisenc.obj
 0002:000df6b8       _vq_quantlist__44c0_s_p2_0 00000001801176b8     libvorbisenc:vorbisenc.obj
 0002:000df6d0       _vq_lengthlist__44u8_p5_0  00000001801176d0     libvorbisenc:vorbisenc.obj
 0002:000df818       _8c0_s_p7_1                0000000180117818     libvorbisenc:vorbisenc.obj
 0002:000df850       _resbook_16s_0             0000000180117850     libvorbisenc:vorbisenc.obj
 0002:000df9d0       _vq_lengthlist__44u7__p2_0 00000001801179d0     libvorbisenc:vorbisenc.obj
 0002:000dfb18       _vq_quantlist__8u0__p6_0   0000000180117b18     libvorbisenc:vorbisenc.obj
 0002:000dfb50       _vq_lengthlist__44u7__p9_2 0000000180117b50     libvorbisenc:vorbisenc.obj
 0002:000dfc18       _44c0_s_p7_1               0000000180117c18     libvorbisenc:vorbisenc.obj
 0002:000dfc50       _vq_quantlist__44c0_s_p5_0 0000000180117c50     libvorbisenc:vorbisenc.obj
 0002:000dfc98       _huff_lengthlist_line_128x17_class1 0000000180117c98     libvorbisenc:vorbisenc.obj
 0002:000dfcb8       _vq_quantlist__44p1_p4_1   0000000180117cb8     libvorbisenc:vorbisenc.obj
 0002:000dfcd8       _vq_quantlist__44c4_s_p8_1 0000000180117cd8     libvorbisenc:vorbisenc.obj
 0002:000dfcf0       ve_setup_11_uncoupled      0000000180117cf0     libvorbisenc:vorbisenc.obj
 0002:000dfe20       _vq_quantlist__44pn1_p2_1  0000000180117e20     libvorbisenc:vorbisenc.obj
 0002:000dfe30       _vq_quantlist__16u1__p8_0  0000000180117e30     libvorbisenc:vorbisenc.obj
 0002:000dfe60       _vq_quantlist__16u0__p7_1  0000000180117e60     libvorbisenc:vorbisenc.obj
 0002:000dfea0       _vq_quantlist__44p5_p2_0   0000000180117ea0     libvorbisenc:vorbisenc.obj
 0002:000dfeb8       _vq_quantlist__44c7_s_p8_0 0000000180117eb8     libvorbisenc:vorbisenc.obj
 0002:000dfef8       _44p6_p7_0                 0000000180117ef8     libvorbisenc:vorbisenc.obj
 0002:000dff30       _16u0__p6_1                0000000180117f30     libvorbisenc:vorbisenc.obj
 0002:000dff68       _44c0_s_p8_0               0000000180117f68     libvorbisenc:vorbisenc.obj
 0002:000dffa0       _res_44u_n1                0000000180117fa0     libvorbisenc:vorbisenc.obj
 0002:000e0010       _vq_lengthlist__16c1_s_p8_0 0000000180118010     libvorbisenc:vorbisenc.obj
 0002:000e02b8       quality_mapping_8          00000001801182b8     libvorbisenc:vorbisenc.obj
 0002:000e02d0       _16c2_s_p6_1               00000001801182d0     libvorbisenc:vorbisenc.obj
 0002:000e0308       _44c8_s_p3_0               0000000180118308     libvorbisenc:vorbisenc.obj
 0002:000e0340       _huff_lengthlist__44u5__long 0000000180118340     libvorbisenc:vorbisenc.obj
 0002:000e04d0       _44c3_s_p9_0               00000001801184d0     libvorbisenc:vorbisenc.obj
 0002:000e0508       _16c1_s_p7_1               0000000180118508     libvorbisenc:vorbisenc.obj
 0002:000e0540       _huff_book_line_128x17_1sub1 0000000180118540     libvorbisenc:vorbisenc.obj
 0002:000e0578       _huff_book_line_256x7_0sub3 0000000180118578     libvorbisenc:vorbisenc.obj
 0002:000e05b0       rate_mapping_44_un         00000001801185b0     libvorbisenc:vorbisenc.obj
 0002:000e0610       _huff_lengthlist__44p1_lfe 0000000180118610     libvorbisenc:vorbisenc.obj
 0002:000e0620       _44c9_s_p2_0               0000000180118620     libvorbisenc:vorbisenc.obj
 0002:000e0658       _vq_quantlist__44p4_l0_0   0000000180118658     libvorbisenc:vorbisenc.obj
 0002:000e0690       _huff_lengthlist_line_256x7_0sub3 0000000180118690     libvorbisenc:vorbisenc.obj
 0002:000e0790       _vq_quantlist__44p8_l0_1   0000000180118790     libvorbisenc:vorbisenc.obj
 0002:000e07a8       _16u1__p3_0                00000001801187a8     libvorbisenc:vorbisenc.obj
 0002:000e07e0       _vq_lengthlist__44c3_s_p3_0 00000001801187e0     libvorbisenc:vorbisenc.obj
 0002:000e11a8       _huff_lengthlist__44p3_lfe 00000001801191a8     libvorbisenc:vorbisenc.obj
 0002:000e11b8       _8u1__p9_0                 00000001801191b8     libvorbisenc:vorbisenc.obj
 0002:000e11f0       _huff_lengthlist__8c0_s_single 00000001801191f0     libvorbisenc:vorbisenc.obj
 0002:000e1380       _vq_lengthlist__8c0_s_p4_0 0000000180119380     libvorbisenc:vorbisenc.obj
 0002:000e14c8       _44cn1_s_p1_0              00000001801194c8     libvorbisenc:vorbisenc.obj
 0002:000e1500       _huff_lengthlist__44u1__short 0000000180119500     libvorbisenc:vorbisenc.obj
 0002:000e1600       _huff_book__44p6_short     0000000180119600     libvorbisenc:vorbisenc.obj
 0002:000e1638       _vq_quantlist__44u3__p4_0  0000000180119638     libvorbisenc:vorbisenc.obj
 0002:000e1650       _huff_lengthlist__44cn1_s_short 0000000180119650     libvorbisenc:vorbisenc.obj
 0002:000e1798       _44p4_p7_2                 0000000180119798     libvorbisenc:vorbisenc.obj
 0002:000e17d0       _res_44s_6                 00000001801197d0     libvorbisenc:vorbisenc.obj
 0002:000e1840       _vq_quantlist__44c1_s_p6_1 0000000180119840     libvorbisenc:vorbisenc.obj
 0002:000e1870       _vq_lengthlist__44p2_p7_0  0000000180119870     libvorbisenc:vorbisenc.obj
 0002:000e1c40       _16u0__p1_0                0000000180119c40     libvorbisenc:vorbisenc.obj
 0002:000e1c78       _44cn1_sm_p7_0             0000000180119c78     libvorbisenc:vorbisenc.obj
 0002:000e1cb0       _huff_lengthlist__44p8_long 0000000180119cb0     libvorbisenc:vorbisenc.obj
 0002:000e1db0       _huff_lengthlist_line_128x11_3sub2 0000000180119db0     libvorbisenc:vorbisenc.obj
 0002:000e1e78       _vq_quantlist__44u5__p1_0  0000000180119e78     libvorbisenc:vorbisenc.obj
 0002:000e1e88       _44u8_p7_0                 0000000180119e88     libvorbisenc:vorbisenc.obj
 0002:000e1ec0       _vq_lengthlist__44u2__p7_0 0000000180119ec0     libvorbisenc:vorbisenc.obj
 0002:000e2008       _huff_book_line_256x4low_0sub3 000000018011a008     libvorbisenc:vorbisenc.obj
 0002:000e2040       _vq_quantlist__44p6_p7_3   000000018011a040     libvorbisenc:vorbisenc.obj
 0002:000e20a8       _vq_quantlist__44u5__p6_0  000000018011a0a8     libvorbisenc:vorbisenc.obj
 0002:000e20d0       _resbook_44s_5             000000018011a0d0     libvorbisenc:vorbisenc.obj
 0002:000e2250       _vq_lengthlist__44cn1_s_p4_0 000000018011a250     libvorbisenc:vorbisenc.obj
 0002:000e2398       _vq_quantlist__44c8_s_p6_1 000000018011a398     libvorbisenc:vorbisenc.obj
 0002:000e23b0       _vq_lengthlist__44c6_s_p3_0 000000018011a3b0     libvorbisenc:vorbisenc.obj
 0002:000e24f8       _44u3__p7_1                000000018011a4f8     libvorbisenc:vorbisenc.obj
 0002:000e2530       _res_44p51_9               000000018011a530     libvorbisenc:vorbisenc.obj
 0002:000e25d8       _huff_book_line_1024x27_4sub3 000000018011a5d8     libvorbisenc:vorbisenc.obj
 0002:000e2610       _res_44s_5                 000000018011a610     libvorbisenc:vorbisenc.obj
 0002:000e2680       _vq_lengthlist__44p7_p3_1  000000018011a680     libvorbisenc:vorbisenc.obj
 0002:000e2a50       _vq_quantlist__16c1_s_p9_1 000000018011aa50     libvorbisenc:vorbisenc.obj
 0002:000e2a90       _vq_lengthlist__44p7_p4_1  000000018011aa90     libvorbisenc:vorbisenc.obj
 0002:000e5b68       _vq_quantlist__16c1_s_p4_0 000000018011db68     libvorbisenc:vorbisenc.obj
 0002:000e5b90       _vq_lengthlist__44c3_s_p8_0 000000018011db90     libvorbisenc:vorbisenc.obj
 0002:000e5e38       _vq_quantlist__44p5_p3_1   000000018011de38     libvorbisenc:vorbisenc.obj
 0002:000e5e48       _vq_quantlist__44c0_sm_p2_0 000000018011de48     libvorbisenc:vorbisenc.obj
 0002:000e5e60       _vq_lengthlist__44u2__p7_2 000000018011de60     libvorbisenc:vorbisenc.obj
 0002:000e6108       _floor_Xx0_books           000000018011e108     libvorbisenc:vorbisenc.obj
 0002:000e6110       _vq_quantlist__44u2__p2_0  000000018011e110     libvorbisenc:vorbisenc.obj
 0002:000e6120       _huff_book__44u8__long     000000018011e120     libvorbisenc:vorbisenc.obj
 0002:000e6158       _44u9_p4_0                 000000018011e158     libvorbisenc:vorbisenc.obj
 0002:000e6190       _vq_quantlist__44cn1_s_p6_0 000000018011e190     libvorbisenc:vorbisenc.obj
 0002:000e61a0       _vq_lengthlist__16u0__p3_0 000000018011e1a0     libvorbisenc:vorbisenc.obj
 0002:000e6b68       _16u2_p7_1                 000000018011eb68     libvorbisenc:vorbisenc.obj
 0002:000e6ba0       _16c1_s_p1_0               000000018011eba0     libvorbisenc:vorbisenc.obj
 0002:000e6bd8       _44p4_p4_0                 000000018011ebd8     libvorbisenc:vorbisenc.obj
 0002:000e6c10       _vq_lengthlist__44pn1_p6_2 000000018011ec10     libvorbisenc:vorbisenc.obj
 0002:000e6c78       _8c1_s_p6_0                000000018011ec78     libvorbisenc:vorbisenc.obj
 0002:000e6cb0       _44p9_p5_0                 000000018011ecb0     libvorbisenc:vorbisenc.obj
 0002:000e6ce8       _44c1_s_p8_0               000000018011ece8     libvorbisenc:vorbisenc.obj
 0002:000e6d20       _vq_lengthlist__44p9_p4_0  000000018011ed20     libvorbisenc:vorbisenc.obj
 0002:000e70f0       _vq_lengthlist__44p4_l0_0  000000018011f0f0     libvorbisenc:vorbisenc.obj
 0002:000e7398       _vq_quantlist__44c7_s_p2_0 000000018011f398     libvorbisenc:vorbisenc.obj
 0002:000e73b0       _res_44s_1                 000000018011f3b0     libvorbisenc:vorbisenc.obj
 0002:000e7420       _huff_lengthlist__44p6_long 000000018011f420     libvorbisenc:vorbisenc.obj
 0002:000e7520       _vq_quantlist__44un1__p1_0 000000018011f520     libvorbisenc:vorbisenc.obj
 0002:000e7530       _huff_book__44p2_lfe       000000018011f530     libvorbisenc:vorbisenc.obj
 0002:000e7568       _huff_book_line_512x17_3sub1 000000018011f568     libvorbisenc:vorbisenc.obj
 0002:000e75a0       _vq_quantlist__44c6_s_p7_1 000000018011f5a0     libvorbisenc:vorbisenc.obj
 0002:000e75d0       _vq_lengthlist__44p5_p7_2  000000018011f5d0     libvorbisenc:vorbisenc.obj
 0002:000e7638       _vq_lengthlist__44p6_l1_0  000000018011f638     libvorbisenc:vorbisenc.obj
 0002:000e7660       _44u0__p5_0                000000018011f660     libvorbisenc:vorbisenc.obj
 0002:000e7698       _vq_quantlist__44un1__p6_0 000000018011f698     libvorbisenc:vorbisenc.obj
 0002:000e76d0       _vq_lengthlist__44u7__p5_0 000000018011f6d0     libvorbisenc:vorbisenc.obj
 0002:000e7818       _vq_quantlist__44c9_s_p8_0 000000018011f818     libvorbisenc:vorbisenc.obj
 0002:000e7858       _vq_quantlist__44c6_s_p6_0 000000018011f858     libvorbisenc:vorbisenc.obj
 0002:000e7890       _vq_lengthlist__44c3_s_p7_1 000000018011f890     libvorbisenc:vorbisenc.obj
 0002:000e7a78       _44c8_s_p7_1               000000018011fa78     libvorbisenc:vorbisenc.obj
 0002:000e7ab0       _huff_lengthlist_line_128x11_2sub2 000000018011fab0     libvorbisenc:vorbisenc.obj
 0002:000e7b78       _vq_quantlist__44c8_s_p6_0 000000018011fb78     libvorbisenc:vorbisenc.obj
 0002:000e7bb0       _vq_lengthlist__44p4_p7_1  000000018011fbb0     libvorbisenc:vorbisenc.obj
 0002:000e7f80       _vq_quantlist__44c4_s_p5_0 000000018011ff80     libvorbisenc:vorbisenc.obj
 0002:000e7fa8       _huff_book_line_512x17_1sub1 000000018011ffa8     libvorbisenc:vorbisenc.obj
 0002:000e7fe0       _vq_quantlist__44p9_l0_1   000000018011ffe0     libvorbisenc:vorbisenc.obj
 0002:000e7ff8       _44u6__p3_0                000000018011fff8     libvorbisenc:vorbisenc.obj
 0002:000e8030       _44c0_s_p7_0               0000000180120030     libvorbisenc:vorbisenc.obj
 0002:000e8068       _16c0_s_p8_1               0000000180120068     libvorbisenc:vorbisenc.obj
 0002:000e80a0       _vq_lengthlist__44c2_s_p6_0 00000001801200a0     libvorbisenc:vorbisenc.obj
 0002:000e8528       _vq_quantlist__44c4_s_p3_0 0000000180120528     libvorbisenc:vorbisenc.obj
 0002:000e8540       _huff_lengthlist_line_128x17_0sub0 0000000180120540     libvorbisenc:vorbisenc.obj
 0002:000e8740       _huff_book__44u2__long     0000000180120740     libvorbisenc:vorbisenc.obj
 0002:000e8778       _44c3_s_p3_0               0000000180120778     libvorbisenc:vorbisenc.obj
 0002:000e87b0       _vq_lengthlist__16c2_s_p5_0 00000001801207b0     libvorbisenc:vorbisenc.obj
 0002:000e88f8       _floor_256x4_books         00000001801208f8     libvorbisenc:vorbisenc.obj
 0002:000e8920       _vq_lengthlist__44c9_s_p8_0 0000000180120920     libvorbisenc:vorbisenc.obj
 0002:000e8ca8       _44un1__p7_0               0000000180120ca8     libvorbisenc:vorbisenc.obj
 0002:000e8ce0       _vq_lengthlist__16u2_p8_0  0000000180120ce0     libvorbisenc:vorbisenc.obj
 0002:000e9068       _psy_ath_floater_8         0000000180121068     libvorbisenc:vorbisenc.obj
 0002:000e9078       _44p5_l0_0                 0000000180121078     libvorbisenc:vorbisenc.obj
 0002:000e90b0       _44c2_s_p7_1               00000001801210b0     libvorbisenc:vorbisenc.obj
 0002:000e90e8       _vq_quantlist__44c6_s_p3_0 00000001801210e8     libvorbisenc:vorbisenc.obj
 0002:000e9110       _vq_quantlist__44u3__p6_0  0000000180121110     libvorbisenc:vorbisenc.obj
 0002:000e9148       _44u6__p9_1                0000000180121148     libvorbisenc:vorbisenc.obj
 0002:000e9180       _vq_quantlist__44c1_sm_p8_2 0000000180121180     libvorbisenc:vorbisenc.obj
 0002:000e91c8       _44cn1_sm_p4_0             00000001801211c8     libvorbisenc:vorbisenc.obj
 0002:000e9200       _44c1_sm_p6_1              0000000180121200     libvorbisenc:vorbisenc.obj
 0002:000e9238       _44c7_s_p9_1               0000000180121238     libvorbisenc:vorbisenc.obj
 0002:000e9270       _44p2_l0_0                 0000000180121270     libvorbisenc:vorbisenc.obj
 0002:000e92a8       _44p2_p7_3                 00000001801212a8     libvorbisenc:vorbisenc.obj
 0002:000e92e0       _huff_lengthlist_line_128x11_class2 00000001801212e0     libvorbisenc:vorbisenc.obj
 0002:000e93e0       _huff_book__44c4_s_long    00000001801213e0     libvorbisenc:vorbisenc.obj
 0002:000e9418       _vq_quantlist__8c0_s_p8_1  0000000180121418     libvorbisenc:vorbisenc.obj
 0002:000e9430       _vq_lengthlist__16c2_s_p6_0 0000000180121430     libvorbisenc:vorbisenc.obj
 0002:000e96d8       _16u1__p9_2                00000001801216d8     libvorbisenc:vorbisenc.obj
 0002:000e9710       _vq_lengthlist__44c5_s_p8_0 0000000180121710     libvorbisenc:vorbisenc.obj
 0002:000e99b8       _huff_book_line_2048x27_class2 00000001801219b8     libvorbisenc:vorbisenc.obj
 0002:000e99f0       _vq_lengthlist__16c1_s_p9_1 00000001801219f0     libvorbisenc:vorbisenc.obj
 0002:000e9d78       _44p4_p2_0                 0000000180121d78     libvorbisenc:vorbisenc.obj
 0002:000e9db0       _vq_lengthlist__44p5_p3_1  0000000180121db0     libvorbisenc:vorbisenc.obj
 0002:000ea180       _vq_lengthlist__44u8_p9_1  0000000180122180     libvorbisenc:vorbisenc.obj
 0002:000ea728       _44c4_s_p3_0               0000000180122728     libvorbisenc:vorbisenc.obj
 0002:000ea760       _vq_lengthlist__44p1_p1_0  0000000180122760     libvorbisenc:vorbisenc.obj
 0002:000eab30       _vq_lengthlist__44p8_p2_0  0000000180122b30     libvorbisenc:vorbisenc.obj
 0002:000edc08       _44c9_s_p9_0               0000000180125c08     libvorbisenc:vorbisenc.obj
 0002:000edc40       _8u1__p9_2                 0000000180125c40     libvorbisenc:vorbisenc.obj
 0002:000edc78       _vq_quantlist__16u0__p1_0  0000000180125c78     libvorbisenc:vorbisenc.obj
 0002:000edc88       _44c0_sm_p7_1              0000000180125c88     libvorbisenc:vorbisenc.obj
 0002:000edcc0       _vq_lengthlist__44u4__p6_1 0000000180125cc0     libvorbisenc:vorbisenc.obj
 0002:000edd28       _44pn1_p4_1                0000000180125d28     libvorbisenc:vorbisenc.obj
 0002:000edd60       _huff_lengthlist__44pn1_long 0000000180125d60     libvorbisenc:vorbisenc.obj
 0002:000ede28       _vq_quantlist__44c0_s_p8_1 0000000180125e28     libvorbisenc:vorbisenc.obj
 0002:000ede60       _vq_quantlist__8c0_s_p6_0  0000000180125e60     libvorbisenc:vorbisenc.obj
 0002:000edea8       _vq_quantlist__44c1_sm_p2_0 0000000180125ea8     libvorbisenc:vorbisenc.obj
 0002:000edec0       _vq_lengthlist__44un1__p6_1 0000000180125ec0     libvorbisenc:vorbisenc.obj
 0002:000edf28       _16u2_p8_1                 0000000180125f28     libvorbisenc:vorbisenc.obj
 0002:000edf60       _vq_lengthlist__44u5__p9_1 0000000180125f60     libvorbisenc:vorbisenc.obj
 0002:000ee2e8       _44p9_p6_1                 00000001801262e8     libvorbisenc:vorbisenc.obj
 0002:000ee320       _vq_lengthlist__8c0_s_p7_0 0000000180126320     libvorbisenc:vorbisenc.obj
 0002:000ee468       _8c0_s_p8_1                0000000180126468     libvorbisenc:vorbisenc.obj
 0002:000ee4a0       _huff_lengthlist__44p6_short 00000001801264a0     libvorbisenc:vorbisenc.obj
 0002:000ee5a0       _44p2_p7_2                 00000001801265a0     libvorbisenc:vorbisenc.obj
 0002:000ee5d8       _44p0_l0_0                 00000001801265d8     libvorbisenc:vorbisenc.obj
 0002:000ee610       _vq_lengthlist__44p4_p4_0  0000000180126610     libvorbisenc:vorbisenc.obj
 0002:000ee9e0       _44c5_s_p6_0               00000001801269e0     libvorbisenc:vorbisenc.obj
 0002:000eea18       _44p5_p4_0                 0000000180126a18     libvorbisenc:vorbisenc.obj
 0002:000eea50       _huff_lengthlist_line_1024x27_4sub2 0000000180126a50     libvorbisenc:vorbisenc.obj
 0002:000eeb18       _44u8_p5_0                 0000000180126b18     libvorbisenc:vorbisenc.obj
 0002:000eeb50       _vq_lengthlist__44u4__p7_0 0000000180126b50     libvorbisenc:vorbisenc.obj
 0002:000eedf8       _huff_lengthlist_line_256x4_0sub1 0000000180126df8     libvorbisenc:vorbisenc.obj
 0002:000eee20       _res_16u_2                 0000000180126e20     libvorbisenc:vorbisenc.obj
 0002:000eee90       _vq_lengthlist__44u5__p8_0 0000000180126e90     libvorbisenc:vorbisenc.obj
 0002:000ef078       _8u0__p6_1                 0000000180127078     libvorbisenc:vorbisenc.obj
 0002:000ef0b0       _vq_lengthlist__44c7_s_p8_0 00000001801270b0     libvorbisenc:vorbisenc.obj
 0002:000ef438       _vq_quantlist__44cn1_s_p6_1 0000000180127438     libvorbisenc:vorbisenc.obj
 0002:000ef468       _44c9_s_p9_2               0000000180127468     libvorbisenc:vorbisenc.obj
 0002:000ef4a0       _vq_lengthlist__8u1__p9_1  00000001801274a0     libvorbisenc:vorbisenc.obj
 0002:000ef828       _44u3__p2_0                0000000180127828     libvorbisenc:vorbisenc.obj
 0002:000ef860       _resbook_8u_0              0000000180127860     libvorbisenc:vorbisenc.obj
 0002:000ef9e0       _res_44u_5                 00000001801279e0     libvorbisenc:vorbisenc.obj
 0002:000efa50       _vq_lengthlist__44p7_p5_1  0000000180127a50     libvorbisenc:vorbisenc.obj
 0002:000efa70       _vq_quantlist__44p8_p2_0   0000000180127a70     libvorbisenc:vorbisenc.obj
 0002:000efa88       _huff_lengthlist__44p0_lfe 0000000180127a88     libvorbisenc:vorbisenc.obj
 0002:000efa98       _44cn1_sm_p5_0             0000000180127a98     libvorbisenc:vorbisenc.obj
 0002:000efad0       _huff_lengthlist__44p1_long 0000000180127ad0     libvorbisenc:vorbisenc.obj
 0002:000efb98       _huff_book_line_2048x27_3sub1 0000000180127b98     libvorbisenc:vorbisenc.obj
 0002:000efbd0       _vq_lengthlist__44c0_sm_p8_0 0000000180127bd0     libvorbisenc:vorbisenc.obj
 0002:000efd18       _44un1__p7_1               0000000180127d18     libvorbisenc:vorbisenc.obj
 0002:000efd50       _vq_lengthlist__44cn1_s_p1_0 0000000180127d50     libvorbisenc:vorbisenc.obj
 0002:000f63d8       _44u4__p7_0                000000018012e3d8     libvorbisenc:vorbisenc.obj
 0002:000f6410       _vq_quantlist__44c8_s_p4_0 000000018012e410     libvorbisenc:vorbisenc.obj
 0002:000f6458       _huff_lengthlist_line_128x7_0sub1 000000018012e458     libvorbisenc:vorbisenc.obj
 0002:000f6480       _resbook_16u_2             000000018012e480     libvorbisenc:vorbisenc.obj
 0002:000f6600       _vq_quantlist__8c1_s_p7_1  000000018012e600     libvorbisenc:vorbisenc.obj
 0002:000f6630       _vq_lengthlist__16c2_s_p9_2 000000018012e630     libvorbisenc:vorbisenc.obj
 0002:000f66f8       _vq_quantlist__44p3_l1_0   000000018012e6f8     libvorbisenc:vorbisenc.obj
 0002:000f6708       _vq_quantlist__16u2_p6_0   000000018012e708     libvorbisenc:vorbisenc.obj
 0002:000f6740       _huff_lengthlist__16c2_s_long 000000018012e740     libvorbisenc:vorbisenc.obj
 0002:000f68d0       _vq_quantlist__44pn1_p2_0  000000018012e8d0     libvorbisenc:vorbisenc.obj
 0002:000f68e0       _resbook_44s_1             000000018012e8e0     libvorbisenc:vorbisenc.obj
 0002:000f6a60       _vq_lengthlist__44u4__p1_0 000000018012ea60     libvorbisenc:vorbisenc.obj
 0002:000f6ba8       _vq_quantlist__44u1__p7_0  000000018012eba8     libvorbisenc:vorbisenc.obj
 0002:000f6bc8       _vq_quantlist__44p6_l0_0   000000018012ebc8     libvorbisenc:vorbisenc.obj
 0002:000f6c00       _vq_quantlist__44c5_s_p6_0 000000018012ec00     libvorbisenc:vorbisenc.obj
 0002:000f6c48       _vq_quantlist__44c5_s_p3_0 000000018012ec48     libvorbisenc:vorbisenc.obj
 0002:000f6c60       _huff_lengthlist__44u3__long 000000018012ec60     libvorbisenc:vorbisenc.obj
 0002:000f6d60       _vq_lengthlist__44c1_sm_p8_0 000000018012ed60     libvorbisenc:vorbisenc.obj
 0002:000f7008       _44c1_sm_p8_0              000000018012f008     libvorbisenc:vorbisenc.obj
 0002:000f7040       _resbook_44s_7             000000018012f040     libvorbisenc:vorbisenc.obj
 0002:000f71c0       _vq_lengthlist__44u6__p8_0 000000018012f1c0     libvorbisenc:vorbisenc.obj
 0002:000f73a8       _16c0_s_p7_0               000000018012f3a8     libvorbisenc:vorbisenc.obj
 0002:000f73e0       _huff_lengthlist_line_2048x27_class3 000000018012f3e0     libvorbisenc:vorbisenc.obj
 0002:000f77e0       _huff_lengthlist__44p7_long 000000018012f7e0     libvorbisenc:vorbisenc.obj
 0002:000f78e0       _huff_lengthlist__44un1__long 000000018012f8e0     libvorbisenc:vorbisenc.obj
 0002:000f79e0       _16c1_s_p9_2               000000018012f9e0     libvorbisenc:vorbisenc.obj
 0002:000f7a18       _16c0_s_p3_0               000000018012fa18     libvorbisenc:vorbisenc.obj
 0002:000f7a50       _vq_quantlist__44cn1_sm_p3_0 000000018012fa50     libvorbisenc:vorbisenc.obj
 0002:000f7a78       _44p3_p5_1                 000000018012fa78     libvorbisenc:vorbisenc.obj
 0002:000f7ab0       _vq_quantlist__44c8_s_p1_0 000000018012fab0     libvorbisenc:vorbisenc.obj
 0002:000f7ac0       _huff_book_line_256x4_0sub0 000000018012fac0     libvorbisenc:vorbisenc.obj
 0002:000f7af8       _44c2_s_p6_0               000000018012faf8     libvorbisenc:vorbisenc.obj
 0002:000f7b30       _vq_lengthlist__44c9_s_p9_2 000000018012fb30     libvorbisenc:vorbisenc.obj
 0002:000f7bf8       _vq_quantlist__44p2_p1_0   000000018012fbf8     libvorbisenc:vorbisenc.obj
 0002:000f7c08       _16c1_s_p7_0               000000018012fc08     libvorbisenc:vorbisenc.obj
 0002:000f7c40       _vq_lengthlist__44u7__p4_0 000000018012fc40     libvorbisenc:vorbisenc.obj
 0002:000f8608       rate_mapping_11_uncoupled  0000000180130608     libvorbisenc:vorbisenc.obj
 0002:000f8620       _vq_lengthlist__44c2_s_p9_1 0000000180130620     libvorbisenc:vorbisenc.obj
 0002:000f88c8       _vq_quantlist__16u0__p4_0  00000001801308c8     libvorbisenc:vorbisenc.obj
 0002:000f88e0       _44cn1_sm_p1_0             00000001801308e0     libvorbisenc:vorbisenc.obj
 0002:000f8918       _huff_book__44p3_lfe       0000000180130918     libvorbisenc:vorbisenc.obj
 0002:000f8950       _vq_lengthlist__44cn1_sm_p8_2 0000000180130950     libvorbisenc:vorbisenc.obj
 0002:000f8dd8       _vq_quantlist__44p1_l1_0   0000000180130dd8     libvorbisenc:vorbisenc.obj
 0002:000f8de8       _huff_book__44p0_short     0000000180130de8     libvorbisenc:vorbisenc.obj
 0002:000f8e20       _vq_lengthlist__44u6__p6_0 0000000180130e20     libvorbisenc:vorbisenc.obj
 0002:000f8f68       _vq_quantlist__44c5_s_p7_1 0000000180130f68     libvorbisenc:vorbisenc.obj
 0002:000f8f98       _huff_book__44p1_lfe       0000000180130f98     libvorbisenc:vorbisenc.obj
 0002:000f8fd0       _resbook_8u_1              0000000180130fd0     libvorbisenc:vorbisenc.obj
 0002:000f9150       _vq_quantlist__44p5_p1_0   0000000180131150     libvorbisenc:vorbisenc.obj
 0002:000f9160       _vq_lengthlist__44pn1_l0_0 0000000180131160     libvorbisenc:vorbisenc.obj
 0002:000f9408       _44c0_s_p2_0               0000000180131408     libvorbisenc:vorbisenc.obj
 0002:000f9440       _resbook_44p_4             0000000180131440     libvorbisenc:vorbisenc.obj
 0002:000f95c0       _vq_quantlist__16u2_p4_0   00000001801315c0     libvorbisenc:vorbisenc.obj
 0002:000f9608       _vq_quantlist__44c7_s_p3_0 0000000180131608     libvorbisenc:vorbisenc.obj
 0002:000f9630       _huff_lengthlist_line_1024x27_class1 0000000180131630     libvorbisenc:vorbisenc.obj
 0002:000f9670       _huff_lengthlist__44u5__short 0000000180131670     libvorbisenc:vorbisenc.obj
 0002:000f9800       _vq_quantlist__44c7_s_p7_1 0000000180131800     libvorbisenc:vorbisenc.obj
 0002:000f9830       _vq_lengthlist__44c5_s_p2_0 0000000180131830     libvorbisenc:vorbisenc.obj
 0002:000fa1f8       _vq_quantlist__44u5__p3_0  00000001801321f8     libvorbisenc:vorbisenc.obj
 0002:000fa210       _huff_lengthlist_line_128x11_class3 0000000180132210     libvorbisenc:vorbisenc.obj
 0002:000fa310       _vq_lengthlist__44p5_p6_1  0000000180132310     libvorbisenc:vorbisenc.obj
 0002:000fa6e0       _noise_thresh_16           00000001801326e0     libvorbisenc:vorbisenc.obj
 0002:000fa700       _vq_lengthlist__44c2_s_p3_0 0000000180132700     libvorbisenc:vorbisenc.obj
 0002:000fb0c8       _44u4__p7_1                00000001801330c8     libvorbisenc:vorbisenc.obj
 0002:000fb100       _44c0_sm_p5_0              0000000180133100     libvorbisenc:vorbisenc.obj
 0002:000fb138       _44p9_p7_2                 0000000180133138     libvorbisenc:vorbisenc.obj
 0002:000fb170       _huff_lengthlist_line_1024x27_4sub1 0000000180133170     libvorbisenc:vorbisenc.obj
 0002:000fb1b8       _huff_book_line_1024x27_1sub1 00000001801331b8     libvorbisenc:vorbisenc.obj
 0002:000fb1f0       _vq_quantlist__8u1__p8_1   00000001801331f0     libvorbisenc:vorbisenc.obj
 0002:000fb220       ve_setup_22_stereo         0000000180133220     libvorbisenc:vorbisenc.obj
 0002:000fb350       _44p0_l0_1                 0000000180133350     libvorbisenc:vorbisenc.obj
 0002:000fb388       _44p5_p6_0                 0000000180133388     libvorbisenc:vorbisenc.obj
 0002:000fb3c0       _vq_lengthlist__44c5_s_p9_1 00000001801333c0     libvorbisenc:vorbisenc.obj
 0002:000fb848       _44u7__p6_0                0000000180133848     libvorbisenc:vorbisenc.obj
 0002:000fb880       _vq_lengthlist__44cn1_sm_p7_0 0000000180133880     libvorbisenc:vorbisenc.obj
 0002:000fbb28       _vq_quantlist__44u3__p1_0  0000000180133b28     libvorbisenc:vorbisenc.obj
 0002:000fbb38       _44p0_p3_0                 0000000180133b38     libvorbisenc:vorbisenc.obj
 0002:000fbb70       _vq_lengthlist__44u8_p8_1  0000000180133b70     libvorbisenc:vorbisenc.obj
 0002:000fc258       _44c3_s_p9_1               0000000180134258     libvorbisenc:vorbisenc.obj
 0002:000fc290       _44c8_s_p1_0               0000000180134290     libvorbisenc:vorbisenc.obj
 0002:000fc2c8       _vq_quantlist__44c4_s_p1_0 00000001801342c8     libvorbisenc:vorbisenc.obj
 0002:000fc2d8       blocksize_8                00000001801342d8     libvorbisenc:vorbisenc.obj
 0002:000fc2e0       _vq_lengthlist__8c0_s_p5_0 00000001801342e0     libvorbisenc:vorbisenc.obj
 0002:000fc428       _16u1__p8_0                0000000180134428     libvorbisenc:vorbisenc.obj
 0002:000fc460       _vq_lengthlist__44u4__p5_0 0000000180134460     libvorbisenc:vorbisenc.obj
 0002:000fc5a8       _16c1_s_p8_1               00000001801345a8     libvorbisenc:vorbisenc.obj
 0002:000fc5e0       _44p4_p6_1                 00000001801345e0     libvorbisenc:vorbisenc.obj
 0002:000fc618       _44c5_s_p2_0               0000000180134618     libvorbisenc:vorbisenc.obj
 0002:000fc650       _psy_tone_masteratt_16     0000000180134650     libvorbisenc:vorbisenc.obj
 0002:000fc6a0       _vq_lengthlist__16c1_s_p5_0 00000001801346a0     libvorbisenc:vorbisenc.obj
 0002:000fc7e8       _vq_quantlist__8u1__p5_0   00000001801347e8     libvorbisenc:vorbisenc.obj
 0002:000fc810       _vq_lengthlist__44cn1_s_p7_0 0000000180134810     libvorbisenc:vorbisenc.obj
 0002:000fcab8       _vq_quantlist__44p5_l1_0   0000000180134ab8     libvorbisenc:vorbisenc.obj
 0002:000fcac8       _vq_quantlist__44u9_p6_0   0000000180134ac8     libvorbisenc:vorbisenc.obj
 0002:000fcb00       _vq_quantlist__44c9_s_p1_0 0000000180134b00     libvorbisenc:vorbisenc.obj
 0002:000fcb10       _vq_lengthlist__44p2_l0_0  0000000180134b10     libvorbisenc:vorbisenc.obj
 0002:000fcdb8       _44p7_p4_0                 0000000180134db8     libvorbisenc:vorbisenc.obj
 0002:000fcdf0       _residue_44_mid            0000000180134df0     libvorbisenc:vorbisenc.obj
 0002:000fd908       _44p1_l1_0                 0000000180135908     libvorbisenc:vorbisenc.obj
 0002:000fd940       _vq_lengthlist__44p5_l0_0  0000000180135940     libvorbisenc:vorbisenc.obj
 0002:000fdbe8       _huff_book__44cn1_sm_long  0000000180135be8     libvorbisenc:vorbisenc.obj
 0002:000fdc20       _16c0_s_p8_0               0000000180135c20     libvorbisenc:vorbisenc.obj
 0002:000fdc58       _vq_quantlist__44c9_s_p2_0 0000000180135c58     libvorbisenc:vorbisenc.obj
 0002:000fdc70       _vq_quantlist__44u9_p9_1   0000000180135c70     libvorbisenc:vorbisenc.obj
 0002:000fdcc0       _vq_lengthlist__44c0_s_p5_0 0000000180135cc0     libvorbisenc:vorbisenc.obj
 0002:000fe148       _psy_ath_abs               0000000180136148     libvorbisenc:vorbisenc.obj
 0002:000fe178       _vq_quantlist__44u2__p5_0  0000000180136178     libvorbisenc:vorbisenc.obj
 0002:000fe1a0       _vq_quantlist__44u8_p9_2   00000001801361a0     libvorbisenc:vorbisenc.obj
 0002:000fe268       _huff_book_line_512x17_3sub3 0000000180136268     libvorbisenc:vorbisenc.obj
 0002:000fe2a0       _huff_lengthlist_line_128x7_1sub3 00000001801362a0     libvorbisenc:vorbisenc.obj
 0002:000fe3a0       _44p8_p1_0                 00000001801363a0     libvorbisenc:vorbisenc.obj
 0002:000fe3d8       _vq_quantlist__44p2_p2_0   00000001801363d8     libvorbisenc:vorbisenc.obj
 0002:000fe3f0       _huff_lengthlist_line_256x7_class1 00000001801363f0     libvorbisenc:vorbisenc.obj
 0002:000fe7f0       _resbook_44p_l6            00000001801367f0     libvorbisenc:vorbisenc.obj
 0002:000fe970       _psy_lowpass_32            0000000180136970     libvorbisenc:vorbisenc.obj
 0002:000fe9d0       _vq_lengthlist__44c1_s_p3_0 00000001801369d0     libvorbisenc:vorbisenc.obj
 0002:000feb18       _huff_book_line_256x7_1sub3 0000000180136b18     libvorbisenc:vorbisenc.obj
 0002:000feb50       _psy_noisebias_long        0000000180136b50     libvorbisenc:vorbisenc.obj
 0002:000ff4e0       _vq_quantlist__16c0_s_p8_0 00000001801374e0     libvorbisenc:vorbisenc.obj
 0002:000ff518       _huff_book_line_128x11_2sub3 0000000180137518     libvorbisenc:vorbisenc.obj
 0002:000ff550       _huff_lengthlist__44cn1_sm_short 0000000180137550     libvorbisenc:vorbisenc.obj
 0002:000ff698       _44p6_p7_3                 0000000180137698     libvorbisenc:vorbisenc.obj
 0002:000ff6d0       _vq_quantlist__16c1_s_p6_0 00000001801376d0     libvorbisenc:vorbisenc.obj
 0002:000ff718       _vq_quantlist__8c1_s_p7_0  0000000180137718     libvorbisenc:vorbisenc.obj
 0002:000ff728       _44p5_p4_1                 0000000180137728     libvorbisenc:vorbisenc.obj
 0002:000ff760       _vq_lengthlist__44p2_p2_0  0000000180137760     libvorbisenc:vorbisenc.obj
 0002:00102838       _44p2_p3_1                 000000018013a838     libvorbisenc:vorbisenc.obj
 0002:00102870       _huff_lengthlist_line_2048x27_2sub1 000000018013a870     libvorbisenc:vorbisenc.obj
 0002:00102a70       _vq_lengthlist__44pn1_p6_1 000000018013aa70     libvorbisenc:vorbisenc.obj
 0002:00102ad8       _44cn1_sm_p2_0             000000018013aad8     libvorbisenc:vorbisenc.obj
 0002:00102b10       _vq_lengthlist__44c7_s_p5_1 000000018013ab10     libvorbisenc:vorbisenc.obj
 0002:00102cf8       _44c1_sm_p2_0              000000018013acf8     libvorbisenc:vorbisenc.obj
 0002:00102d30       _vq_lengthlist__8c0_s_p3_0 000000018013ad30     libvorbisenc:vorbisenc.obj
 0002:001036f8       _vq_quantlist__44p0_p1_0   000000018013b6f8     libvorbisenc:vorbisenc.obj
 0002:00103708       _huff_book__16c2_s_short   000000018013b708     libvorbisenc:vorbisenc.obj
 0002:00103740       _vq_lengthlist__44c1_s_p8_1 000000018013b740     libvorbisenc:vorbisenc.obj
 0002:001039e8       _huff_book_line_512x17_2sub2 000000018013b9e8     libvorbisenc:vorbisenc.obj
 0002:00103a20       _vq_quantlist__44c9_s_p9_2 000000018013ba20     libvorbisenc:vorbisenc.obj
 0002:00103ae8       _vq_quantlist__44p7_p4_1   000000018013bae8     libvorbisenc:vorbisenc.obj
 0002:00103b00       _huff_lengthlist__44u9__short 000000018013bb00     libvorbisenc:vorbisenc.obj
 0002:00103c90       _vq_lengthlist__44c8_s_p3_0 000000018013bc90     libvorbisenc:vorbisenc.obj
 0002:00103dd8       _16c1_s_p6_0               000000018013bdd8     libvorbisenc:vorbisenc.obj
 0002:00103e10       _huff_lengthlist__44c1_sm_short 000000018013be10     libvorbisenc:vorbisenc.obj
 0002:00103f58       _44u5__p9_1                000000018013bf58     libvorbisenc:vorbisenc.obj
 0002:00103f90       _vq_lengthlist__16c2_s_p7_1 000000018013bf90     libvorbisenc:vorbisenc.obj
 0002:00104178       _huff_book__16c0_s_single  000000018013c178     libvorbisenc:vorbisenc.obj
 0002:001041b0       _res_44u_0                 000000018013c1b0     libvorbisenc:vorbisenc.obj
 0002:00104220       _vq_lengthlist__8c0_s_p6_0 000000018013c220     libvorbisenc:vorbisenc.obj
 0002:001046a8       _huff_book_line_128x11_class1 000000018013c6a8     libvorbisenc:vorbisenc.obj
 0002:001046e0       ve_setup_16_stereo         000000018013c6e0     libvorbisenc:vorbisenc.obj
 0002:00104810       _vq_lengthlist__44c9_s_p5_1 000000018013c810     libvorbisenc:vorbisenc.obj
 0002:001049f8       _16c1_s_p5_0               000000018013c9f8     libvorbisenc:vorbisenc.obj
 0002:00104a30       _44u7__p1_0                000000018013ca30     libvorbisenc:vorbisenc.obj
 0002:00104a68       _16c2_s_p3_0               000000018013ca68     libvorbisenc:vorbisenc.obj
 0002:00104aa0       _vq_quantlist__44c9_s_p4_0 000000018013caa0     libvorbisenc:vorbisenc.obj
 0002:00104ae8       _vq_quantlist__44p9_l0_0   000000018013cae8     libvorbisenc:vorbisenc.obj
 0002:00104b20       _vq_lengthlist__44u5__p1_0 000000018013cb20     libvorbisenc:vorbisenc.obj
 0002:00104c68       _huff_book__44p6_lfe       000000018013cc68     libvorbisenc:vorbisenc.obj
 0002:00104ca0       _vq_lengthlist__8u0__p6_1  000000018013cca0     libvorbisenc:vorbisenc.obj
 0002:00104d08       _44p4_p4_1                 000000018013cd08     libvorbisenc:vorbisenc.obj
 0002:00104d40       _huff_lengthlist__44c1_s_short 000000018013cd40     libvorbisenc:vorbisenc.obj
 0002:00104e88       _vq_lengthlist__44p1_l1_0  000000018013ce88     libvorbisenc:vorbisenc.obj
 0002:00104eb0       _res_16u_1                 000000018013ceb0     libvorbisenc:vorbisenc.obj
 0002:00104f20       _vq_quantlist__44u5__p9_2  000000018013cf20     libvorbisenc:vorbisenc.obj
 0002:00104f68       _vq_quantlist__44p4_p6_0   000000018013cf68     libvorbisenc:vorbisenc.obj
 0002:00104f78       _huff_book_line_1024x27_4sub1 000000018013cf78     libvorbisenc:vorbisenc.obj
 0002:00104fb0       _vq_lengthlist__44cn1_sm_p8_1 000000018013cfb0     libvorbisenc:vorbisenc.obj
 0002:00105258       _vq_lengthlist__44p6_p5_1  000000018013d258     libvorbisenc:vorbisenc.obj
 0002:00105278       _44u3__p4_0                000000018013d278     libvorbisenc:vorbisenc.obj
 0002:001052b0       ve_setup_32_uncoupled      000000018013d2b0     libvorbisenc:vorbisenc.obj
 0002:001053e0       _vq_lengthlist__44c0_sm_p1_0 000000018013d3e0     libvorbisenc:vorbisenc.obj
 0002:0010ba68       _noise_part_8              0000000180143a68     libvorbisenc:vorbisenc.obj
 0002:0010ba70       _res_44p51_2               0000000180143a70     libvorbisenc:vorbisenc.obj
 0002:0010bb18       _44c1_sm_p8_2              0000000180143b18     libvorbisenc:vorbisenc.obj
 0002:0010bb50       _vq_lengthlist__44c4_s_p5_0 0000000180143b50     libvorbisenc:vorbisenc.obj
 0002:0010bc98       _huff_book_line_128x4_0sub0 0000000180143c98     libvorbisenc:vorbisenc.obj
 0002:0010bcd0       _vq_lengthlist__44u1__p7_1 0000000180143cd0     libvorbisenc:vorbisenc.obj
 0002:0010bf78       _huff_book_line_256x4_0sub3 0000000180143f78     libvorbisenc:vorbisenc.obj
 0002:0010bfb0       _vq_lengthlist__44u0__p6_0 0000000180143fb0     libvorbisenc:vorbisenc.obj
 0002:0010c258       _vq_quantlist__44c1_s_p7_0 0000000180144258     libvorbisenc:vorbisenc.obj
 0002:0010c290       _vq_lengthlist__44p8_p6_0  0000000180144290     libvorbisenc:vorbisenc.obj
 0002:0010c660       _44p1_p5_1                 0000000180144660     libvorbisenc:vorbisenc.obj
 0002:0010c698       _vq_quantlist__44c6_s_p5_0 0000000180144698     libvorbisenc:vorbisenc.obj
 0002:0010c6a8       _huff_book__44u4__long     00000001801446a8     libvorbisenc:vorbisenc.obj
 0002:0010c6e0       _vq_quantlist__44u3__p7_2  00000001801446e0     libvorbisenc:vorbisenc.obj
 0002:0010c728       _huff_book__44c5_s_short   0000000180144728     libvorbisenc:vorbisenc.obj
 0002:0010c760       _vq_quantlist__44c5_s_p2_0 0000000180144760     libvorbisenc:vorbisenc.obj
 0002:0010c778       _huff_book_line_128x17_2sub2 0000000180144778     libvorbisenc:vorbisenc.obj
 0002:0010c7b0       _huff_lengthlist_line_256x7_class0 00000001801447b0     libvorbisenc:vorbisenc.obj
 0002:0010c8b0       _vq_lengthlist__44cn1_sm_p7_1 00000001801448b0     libvorbisenc:vorbisenc.obj
 0002:0010c918       _vq_quantlist__44u1__p7_2  0000000180144918     libvorbisenc:vorbisenc.obj
 0002:0010c950       _noise_part_short_44       0000000180144950     libvorbisenc:vorbisenc.obj
 0002:0010c980       _huff_lengthlist_line_256x4_0sub0 0000000180144980     libvorbisenc:vorbisenc.obj
 0002:0010c990       _psy_ath_floater           0000000180144990     libvorbisenc:vorbisenc.obj
 0002:0010c9c0       _44u2__p2_0                00000001801449c0     libvorbisenc:vorbisenc.obj
 0002:0010c9f8       _8c1_s_p9_0                00000001801449f8     libvorbisenc:vorbisenc.obj
 0002:0010ca30       _resbook_44s_4             0000000180144a30     libvorbisenc:vorbisenc.obj
 0002:0010cbb0       _vq_quantlist__44u0__p1_0  0000000180144bb0     libvorbisenc:vorbisenc.obj
 0002:0010cbc0       _floor_2048x27_books       0000000180144bc0     libvorbisenc:vorbisenc.obj
 0002:0010cc38       _huff_book_line_128x7_1sub1 0000000180144c38     libvorbisenc:vorbisenc.obj
 0002:0010cc70       _vq_lengthlist__16u2_p1_0  0000000180144c70     libvorbisenc:vorbisenc.obj
 0002:0010cdb8       _noise_start_8             0000000180144db8     libvorbisenc:vorbisenc.obj
 0002:0010cdc0       _vq_lengthlist__44c0_sm_p5_0 0000000180144dc0     libvorbisenc:vorbisenc.obj
 0002:0010d248       _8u0__p4_0                 0000000180145248     libvorbisenc:vorbisenc.obj
 0002:0010d280       _vq_lengthlist__16u1__p4_0 0000000180145280     libvorbisenc:vorbisenc.obj
 0002:0010dc48       _44un1__p4_0               0000000180145c48     libvorbisenc:vorbisenc.obj
 0002:0010dc80       _vq_quantlist__44u9_p4_0   0000000180145c80     libvorbisenc:vorbisenc.obj
 0002:0010dcc8       _huff_book_line_128x11_2sub1 0000000180145cc8     libvorbisenc:vorbisenc.obj
 0002:0010dd00       _vq_lengthlist__44u6__p9_0 0000000180145d00     libvorbisenc:vorbisenc.obj
 0002:0010e088       _mapres_template_16_uncoupled 0000000180146088     libvorbisenc:vorbisenc.obj
 0002:0010e0b8       _vq_quantlist__44u0__p3_0  00000001801460b8     libvorbisenc:vorbisenc.obj
 0002:0010e0d0       _vq_lengthlist__44u0__p4_0 00000001801460d0     libvorbisenc:vorbisenc.obj
 0002:0010ea98       _44c2_s_p3_0               0000000180146a98     libvorbisenc:vorbisenc.obj
 0002:0010ead0       _huff_lengthlist__44p5_long 0000000180146ad0     libvorbisenc:vorbisenc.obj
 0002:0010ebd0       _res_44p51_6               0000000180146bd0     libvorbisenc:vorbisenc.obj
 0002:0010ec78       _16u1__p6_0                0000000180146c78     libvorbisenc:vorbisenc.obj
 0002:0010ecb0       _vq_lengthlist__44p4_p1_0  0000000180146cb0     libvorbisenc:vorbisenc.obj
 0002:0010f080       _vq_lengthlist__44c3_s_p4_0 0000000180147080     libvorbisenc:vorbisenc.obj
 0002:0010f1c8       _44c1_s_p1_0               00000001801471c8     libvorbisenc:vorbisenc.obj
 0002:0010f200       _vq_lengthlist__8u1__p6_0  0000000180147200     libvorbisenc:vorbisenc.obj
 0002:0010f348       _vq_quantlist__44c8_s_p5_1 0000000180147348     libvorbisenc:vorbisenc.obj
 0002:0010f378       _huff_lengthlist_line_256x4low_0sub0 0000000180147378     libvorbisenc:vorbisenc.obj
 0002:0010f388       _44p6_l0_1                 0000000180147388     libvorbisenc:vorbisenc.obj
 0002:0010f3c0       _huff_lengthlist_line_512x17_class3 00000001801473c0     libvorbisenc:vorbisenc.obj
 0002:0010f4c0       _vq_quantlist__8c0_s_p9_1  00000001801474c0     libvorbisenc:vorbisenc.obj
 0002:0010f500       _vq_lengthlist__16c0_s_p9_2 0000000180147500     libvorbisenc:vorbisenc.obj
 0002:0010fbe8       _huff_lengthlist_line_128x4_0sub0 0000000180147be8     libvorbisenc:vorbisenc.obj
 0002:0010fbf8       _44c4_s_p7_0               0000000180147bf8     libvorbisenc:vorbisenc.obj
 0002:0010fc30       _huff_lengthlist__44u6__long 0000000180147c30     libvorbisenc:vorbisenc.obj
 0002:0010fdc0       _resbook_44p_l1            0000000180147dc0     libvorbisenc:vorbisenc.obj
 0002:0010ff40       _vq_lengthlist__16c1_s_p9_2 0000000180147f40     libvorbisenc:vorbisenc.obj
 0002:00110628       _44p6_p5_1                 0000000180148628     libvorbisenc:vorbisenc.obj
 0002:00110660       _vq_lengthlist__44c9_s_p8_1 0000000180148660     libvorbisenc:vorbisenc.obj
 0002:00110d48       _44u9_p5_0                 0000000180148d48     libvorbisenc:vorbisenc.obj
 0002:00110d80       _res_44u_9                 0000000180148d80     libvorbisenc:vorbisenc.obj
 0002:00110df0       _vq_lengthlist__44p9_p3_1  0000000180148df0     libvorbisenc:vorbisenc.obj
 0002:001111c0       ve_setup_44_51             00000001801491c0     libvorbisenc:vorbisenc.obj
 0002:001112f0       _map_nominal_51u           00000001801492f0     libvorbisenc:vorbisenc.obj
 0002:00112c00       _vq_lengthlist__44pn1_p2_1 000000018014ac00     libvorbisenc:vorbisenc.obj
 0002:00112fd0       _vq_quantlist__44p9_p1_0   000000018014afd0     libvorbisenc:vorbisenc.obj
 0002:00112fe0       _vq_lengthlist__44p6_p6_1  000000018014afe0     libvorbisenc:vorbisenc.obj
 0002:001133b0       _vq_lengthlist__44p5_p5_1  000000018014b3b0     libvorbisenc:vorbisenc.obj
 0002:001133d0       _vq_lengthlist__44p6_p1_0  000000018014b3d0     libvorbisenc:vorbisenc.obj
 0002:001137a0       _vq_lengthlist__16u2_p9_1  000000018014b7a0     libvorbisenc:vorbisenc.obj
 0002:00113d48       _huff_book_line_2048x27_class3 000000018014bd48     libvorbisenc:vorbisenc.obj
 0002:00113d80       _44c7_s_p8_0               000000018014bd80     libvorbisenc:vorbisenc.obj
 0002:00113db8       _16u2_p6_1                 000000018014bdb8     libvorbisenc:vorbisenc.obj
 0002:00113df0       _vq_lengthlist__44p4_p3_0  000000018014bdf0     libvorbisenc:vorbisenc.obj
 0002:001141c0       _vq_lengthlist__44pn1_p5_0 000000018014c1c0     libvorbisenc:vorbisenc.obj
 0002:00114590       _vq_lengthlist__44p0_l0_1  000000018014c590     libvorbisenc:vorbisenc.obj
 0002:001145f8       _vq_quantlist__44u7__p5_0  000000018014c5f8     libvorbisenc:vorbisenc.obj
 0002:00114620       _vq_quantlist__16c2_s_p9_2 000000018014c620     libvorbisenc:vorbisenc.obj
 0002:001146e8       _44u9_p6_0                 000000018014c6e8     libvorbisenc:vorbisenc.obj
 0002:00114720       _vq_quantlist__44cn1_s_p5_0 000000018014c720     libvorbisenc:vorbisenc.obj
 0002:00114768       _vq_quantlist__44c2_s_p2_0 000000018014c768     libvorbisenc:vorbisenc.obj
 0002:00114780       _vq_lengthlist__44pn1_p5_1 000000018014c780     libvorbisenc:vorbisenc.obj
 0002:00114b50       _vq_lengthlist__8u1__p3_0  000000018014cb50     libvorbisenc:vorbisenc.obj
 0002:00115518       _16c2_s_p1_0               000000018014d518     libvorbisenc:vorbisenc.obj
 0002:00115550       _huff_lengthlist__16u1__short 000000018014d550     libvorbisenc:vorbisenc.obj
 0002:001156e0       _vq_lengthlist__44u2__p1_0 000000018014d6e0     libvorbisenc:vorbisenc.obj
 0002:00115828       _44cn1_sm_p6_0             000000018014d828     libvorbisenc:vorbisenc.obj
 0002:00115860       _huff_lengthlist__44p0_long 000000018014d860     libvorbisenc:vorbisenc.obj
 0002:00115928       _vq_quantlist__44u7__p3_0  000000018014d928     libvorbisenc:vorbisenc.obj
 0002:00115940       _huff_lengthlist__44u2__long 000000018014d940     libvorbisenc:vorbisenc.obj
 0002:00115a40       _res_44p51_n1              000000018014da40     libvorbisenc:vorbisenc.obj
 0002:00115ae8       _44u3__p5_0                000000018014dae8     libvorbisenc:vorbisenc.obj
 0002:00115b20       _resbook_44u_0             000000018014db20     libvorbisenc:vorbisenc.obj
 0002:00115ca0       _vq_lengthlist__44c8_s_p9_1 000000018014dca0     libvorbisenc:vorbisenc.obj
 0002:00116248       _vq_quantlist__8u0__p3_0   000000018014e248     libvorbisenc:vorbisenc.obj
 0002:00116260       _vq_lengthlist__44p0_p2_0  000000018014e260     libvorbisenc:vorbisenc.obj
 0002:00116630       _44p6_l0_0                 000000018014e630     libvorbisenc:vorbisenc.obj
 0002:00116668       _44u8_p6_1                 000000018014e668     libvorbisenc:vorbisenc.obj
 0002:001166a0       _huff_lengthlist_line_1024x27_class4 000000018014e6a0     libvorbisenc:vorbisenc.obj
 0002:001167a0       _psy_tone_masteratt_11     000000018014e7a0     libvorbisenc:vorbisenc.obj
 0002:001167e0       _vq_lengthlist__44p6_l0_1  000000018014e7e0     libvorbisenc:vorbisenc.obj
 0002:00116848       _44u8_p3_0                 000000018014e848     libvorbisenc:vorbisenc.obj
 0002:00116880       _vq_quantlist__44u4__p5_0  000000018014e880     libvorbisenc:vorbisenc.obj
 0002:001168a8       _44un1__p2_0               000000018014e8a8     libvorbisenc:vorbisenc.obj
 0002:001168e0       _vq_lengthlist__44c5_s_p8_1 000000018014e8e0     libvorbisenc:vorbisenc.obj
 0002:00116948       _huff_book__44c9_s_long    000000018014e948     libvorbisenc:vorbisenc.obj
 0002:00116980       _vq_lengthlist__44pn1_l0_1 000000018014e980     libvorbisenc:vorbisenc.obj
 0002:001169e8       _vq_quantlist__44p0_l0_0   000000018014e9e8     libvorbisenc:vorbisenc.obj
 0002:00116a20       _vq_lengthlist__44p9_p4_1  000000018014ea20     libvorbisenc:vorbisenc.obj
 0002:00119af8       _vq_quantlist__44pn1_p1_0  0000000180151af8     libvorbisenc:vorbisenc.obj
 0002:00119b08       _16u0__p6_0                0000000180151b08     libvorbisenc:vorbisenc.obj
 0002:00119b40       _vq_lengthlist__44u4__p6_0 0000000180151b40     libvorbisenc:vorbisenc.obj
 0002:00119de8       _vq_quantlist__44c0_sm_p8_0 0000000180151de8     libvorbisenc:vorbisenc.obj
 0002:00119e10       _vq_quantlist__44c6_s_p9_2 0000000180151e10     libvorbisenc:vorbisenc.obj
 0002:00119ed8       _vq_quantlist__44p3_p5_1   0000000180151ed8     libvorbisenc:vorbisenc.obj
 0002:00119ef8       _16u1__p7_1                0000000180151ef8     libvorbisenc:vorbisenc.obj
 0002:00119f30       _huff_lengthlist__44c9_s_short 0000000180151f30     libvorbisenc:vorbisenc.obj
 0002:0011a0c0       _vq_lengthlist__44p2_p3_1  00000001801520c0     libvorbisenc:vorbisenc.obj
 0002:0011a490       _vq_lengthlist__44p4_p6_0  0000000180152490     libvorbisenc:vorbisenc.obj
 0002:0011a860       _res_44s_0                 0000000180152860     libvorbisenc:vorbisenc.obj
 0002:0011a8d0       _vq_lengthlist__44p2_p4_0  00000001801528d0     libvorbisenc:vorbisenc.obj
 0002:0011aca0       _vq_lengthlist__44u9_p9_0  0000000180152ca0     libvorbisenc:vorbisenc.obj
 0002:0011b028       _vq_quantlist__44c3_s_p2_0 0000000180153028     libvorbisenc:vorbisenc.obj
 0002:0011b040       _huff_lengthlist__44c0_sm_short 0000000180153040     libvorbisenc:vorbisenc.obj
 0002:0011b188       _44p8_p3_1                 0000000180153188     libvorbisenc:vorbisenc.obj
 0002:0011b1c0       _vq_lengthlist__16u2_p7_1  00000001801531c0     libvorbisenc:vorbisenc.obj
 0002:0011b3a8       _16c0_s_p4_0               00000001801533a8     libvorbisenc:vorbisenc.obj
 0002:0011b3e0       ve_setup_XX_stereo         00000001801533e0     libvorbisenc:vorbisenc.obj
 0002:0011b510       _vq_lengthlist__44u7__p7_1 0000000180153510     libvorbisenc:vorbisenc.obj
 0002:0011b6f8       _vq_quantlist__44c0_sm_p4_0 00000001801536f8     libvorbisenc:vorbisenc.obj
 0002:0011b720       _resbook_44u_7             0000000180153720     libvorbisenc:vorbisenc.obj
 0002:0011b8a0       _vq_lengthlist__44p8_l0_0  00000001801538a0     libvorbisenc:vorbisenc.obj
 0002:0011bb48       _8u0__p7_0                 0000000180153b48     libvorbisenc:vorbisenc.obj
 0002:0011bb80       _huff_book__44cn1_s_short  0000000180153b80     libvorbisenc:vorbisenc.obj
 0002:0011bbb8       _16c1_s_p9_1               0000000180153bb8     libvorbisenc:vorbisenc.obj
 0002:0011bbf0       _vq_quantlist__44c3_s_p9_2 0000000180153bf0     libvorbisenc:vorbisenc.obj
 0002:0011bc38       _psy_tone_masteratt_8      0000000180153c38     libvorbisenc:vorbisenc.obj
 0002:0011bc78       _huff_book_line_512x17_class1 0000000180153c78     libvorbisenc:vorbisenc.obj
 0002:0011bcb0       _vq_lengthlist__8c1_s_p9_0 0000000180153cb0     libvorbisenc:vorbisenc.obj
 0002:0011bf58       _16u0__p7_0                0000000180153f58     libvorbisenc:vorbisenc.obj
 0002:0011bf90       _vq_lengthlist__44p0_p3_0  0000000180153f90     libvorbisenc:vorbisenc.obj
 0002:0011c360       _vq_lengthlist__44p3_l0_0  0000000180154360     libvorbisenc:vorbisenc.obj
 0002:0011c608       _vq_quantlist__44p1_p5_1   0000000180154608     libvorbisenc:vorbisenc.obj
 0002:0011c618       _8c1_s_p1_0                0000000180154618     libvorbisenc:vorbisenc.obj
 0002:0011c650       _vq_lengthlist__16u0__p7_2 0000000180154650     libvorbisenc:vorbisenc.obj
 0002:0011cd38       _44c1_s_p5_0               0000000180154d38     libvorbisenc:vorbisenc.obj
 0002:0011cd70       _vq_lengthlist__44u6__p1_0 0000000180154d70     libvorbisenc:vorbisenc.obj
 0002:0011ceb8       _44c8_s_p4_0               0000000180154eb8     libvorbisenc:vorbisenc.obj
 0002:0011cef0       _res_44p51_5               0000000180154ef0     libvorbisenc:vorbisenc.obj
 0002:0011cf98       _44p7_p7_1                 0000000180154f98     libvorbisenc:vorbisenc.obj
 0002:0011cfd0       _vq_lengthlist__44c6_s_p1_0 0000000180154fd0     libvorbisenc:vorbisenc.obj
 0002:0011d118       _44cn1_s_p6_0              0000000180155118     libvorbisenc:vorbisenc.obj
 0002:0011d150       _vq_lengthlist__8c1_s_p7_0 0000000180155150     libvorbisenc:vorbisenc.obj
 0002:0011d298       _vq_quantlist__44u7__p4_0  0000000180155298     libvorbisenc:vorbisenc.obj
 0002:0011d2b0       _vq_lengthlist__44c7_s_p6_0 00000001801552b0     libvorbisenc:vorbisenc.obj
 0002:0011d558       _vq_quantlist__8c1_s_p9_1  0000000180155558     libvorbisenc:vorbisenc.obj
 0002:0011d598       _vq_quantlist__44u1__p6_1  0000000180155598     libvorbisenc:vorbisenc.obj
 0002:0011d5b0       _vq_lengthlist__8c1_s_p8_0 00000001801555b0     libvorbisenc:vorbisenc.obj
 0002:0011d858       _vq_quantlist__16u2_p8_0   0000000180155858     libvorbisenc:vorbisenc.obj
 0002:0011d898       _16u2_p9_1                 0000000180155898     libvorbisenc:vorbisenc.obj
 0002:0011d8d0       _vq_lengthlist__44p0_p2_1  00000001801558d0     libvorbisenc:vorbisenc.obj
 0002:0011dca0       _16c2_s_p7_0               0000000180155ca0     libvorbisenc:vorbisenc.obj
 0002:0011dcd8       _vq_quantlist__16c0_s_p9_0 0000000180155cd8     libvorbisenc:vorbisenc.obj
 0002:0011dce8       _vq_quantlist__44p8_p4_0   0000000180155ce8     libvorbisenc:vorbisenc.obj
 0002:0011dcf8       _vq_quantlist__44p3_p7_1   0000000180155cf8     libvorbisenc:vorbisenc.obj
 0002:0011dd08       _huff_book_line_128x11_3sub1 0000000180155d08     libvorbisenc:vorbisenc.obj
 0002:0011dd40       _vq_lengthlist__44p9_p6_1  0000000180155d40     libvorbisenc:vorbisenc.obj
 0002:0011e110       _vq_lengthlist__44p6_p4_1  0000000180156110     libvorbisenc:vorbisenc.obj
 0002:001211e8       _vq_quantlist__44p1_p2_1   00000001801591e8     libvorbisenc:vorbisenc.obj
 0002:001211f8       _huff_book__44pn1_long     00000001801591f8     libvorbisenc:vorbisenc.obj
 0002:00121230       _vq_quantlist__16c1_s_p9_2 0000000180159230     libvorbisenc:vorbisenc.obj
 0002:00121288       _vq_quantlist__44p5_p6_1   0000000180159288     libvorbisenc:vorbisenc.obj
 0002:00121298       _8c1_s_p3_0                0000000180159298     libvorbisenc:vorbisenc.obj
 0002:001212d0       _resbook_44u_1             00000001801592d0     libvorbisenc:vorbisenc.obj
 0002:00121450       _vq_lengthlist__44c7_s_p3_0 0000000180159450     libvorbisenc:vorbisenc.obj
 0002:00121598       _44u6__p5_0                0000000180159598     libvorbisenc:vorbisenc.obj
 0002:001215d0       _vq_lengthlist__16c0_s_p8_0 00000001801595d0     libvorbisenc:vorbisenc.obj
 0002:00121878       _44un1__p7_2               0000000180159878     libvorbisenc:vorbisenc.obj
 0002:001218b0       _vq_lengthlist__44p5_p6_0  00000001801598b0     libvorbisenc:vorbisenc.obj
 0002:00121c80       _44cn1_sm_p6_1             0000000180159c80     libvorbisenc:vorbisenc.obj
 0002:00121cb8       _vq_quantlist__44p1_p3_1   0000000180159cb8     libvorbisenc:vorbisenc.obj
 0002:00121cd0       _vq_quantlist__44c5_s_p5_0 0000000180159cd0     libvorbisenc:vorbisenc.obj
 0002:00121cf8       _44u6__p4_0                0000000180159cf8     libvorbisenc:vorbisenc.obj
 0002:00121d30       _vq_lengthlist__44c9_s_p2_0 0000000180159d30     libvorbisenc:vorbisenc.obj
 0002:001226f8       _vq_quantlist__16c0_s_p9_1 000000018015a6f8     libvorbisenc:vorbisenc.obj
 0002:00122738       _vq_quantlist__44c9_s_p3_0 000000018015a738     libvorbisenc:vorbisenc.obj
 0002:00122760       _resbook_44p_0             000000018015a760     libvorbisenc:vorbisenc.obj
 0002:001228e0       _huff_book__44u0__short    000000018015a8e0     libvorbisenc:vorbisenc.obj
 0002:00122918       rate_mapping_8             000000018015a918     libvorbisenc:vorbisenc.obj
 0002:00122930       _vq_lengthlist__44c2_s_p5_0 000000018015a930     libvorbisenc:vorbisenc.obj
 0002:00122a78       _vq_quantlist__8u0__p7_0   000000018015aa78     libvorbisenc:vorbisenc.obj
 0002:00122a88       _44p8_l1_0                 000000018015aa88     libvorbisenc:vorbisenc.obj
 0002:00122ac0       _vq_lengthlist__8u1__p1_0  000000018015aac0     libvorbisenc:vorbisenc.obj
 0002:00122c08       _44p5_p2_0                 000000018015ac08     libvorbisenc:vorbisenc.obj
 0002:00122c40       _vq_lengthlist__44u7__p7_0 000000018015ac40     libvorbisenc:vorbisenc.obj
 0002:00122d88       _floor_128x4_books         000000018015ad88     libvorbisenc:vorbisenc.obj
 0002:00122db0       _44p4_l1_0                 000000018015adb0     libvorbisenc:vorbisenc.obj
 0002:00122de8       _44c1_s_p7_1               000000018015ade8     libvorbisenc:vorbisenc.obj
 0002:00122e20       _vq_quantlist__44u4__p1_0  000000018015ae20     libvorbisenc:vorbisenc.obj
 0002:00122e30       _44u0__p1_0                000000018015ae30     libvorbisenc:vorbisenc.obj
 0002:00122e68       _huff_book_line_512x17_3sub2 000000018015ae68     libvorbisenc:vorbisenc.obj
 0002:00122ea0       _vq_lengthlist__16c2_s_p6_1 000000018015aea0     libvorbisenc:vorbisenc.obj
 0002:00122f08       _44p7_p3_1                 000000018015af08     libvorbisenc:vorbisenc.obj
 0002:00122f40       _vq_quantlist__44u4__p4_0  000000018015af40     libvorbisenc:vorbisenc.obj
 0002:00122f58       _vq_quantlist__8c1_s_p8_0  000000018015af58     libvorbisenc:vorbisenc.obj
 0002:00122f90       _vq_lengthlist__44p7_p7_2  000000018015af90     libvorbisenc:vorbisenc.obj
 0002:00122ff8       _44p0_p4_0                 000000018015aff8     libvorbisenc:vorbisenc.obj
 0002:00123030       _vq_lengthlist__44p5_l1_0  000000018015b030     libvorbisenc:vorbisenc.obj
 0002:00123058       _vq_quantlist__44p0_l1_0   000000018015b058     libvorbisenc:vorbisenc.obj
 0002:00123068       _huff_book__16c2_s_long    000000018015b068     libvorbisenc:vorbisenc.obj
 0002:001230a0       _huff_book_line_512x17_class2 000000018015b0a0     libvorbisenc:vorbisenc.obj
 0002:001230d8       _44u7__p8_0                000000018015b0d8     libvorbisenc:vorbisenc.obj
 0002:00123110       _vq_lengthlist__16c2_s_p5_1 000000018015b110     libvorbisenc:vorbisenc.obj
 0002:001232f8       _44u7__p7_1                000000018015b2f8     libvorbisenc:vorbisenc.obj
 0002:00123330       _huff_lengthlist_line_2048x27_0sub0 000000018015b330     libvorbisenc:vorbisenc.obj
 0002:00123530       _vq_lengthlist__44u2__p3_0 000000018015b530     libvorbisenc:vorbisenc.obj
 0002:00123ef8       _vq_quantlist__16c0_s_p3_0 000000018015bef8     libvorbisenc:vorbisenc.obj
 0002:00123f10       _vq_lengthlist__44u3__p2_0 000000018015bf10     libvorbisenc:vorbisenc.obj
 0002:00124058       _44p3_p1_0                 000000018015c058     libvorbisenc:vorbisenc.obj
 0002:00124090       _huff_lengthlist_line_1024x27_1sub1 000000018015c090     libvorbisenc:vorbisenc.obj
 0002:00124290       _vq_lengthlist__44u6__p7_0 000000018015c290     libvorbisenc:vorbisenc.obj
 0002:001243d8       _16c0_s_p9_1               000000018015c3d8     libvorbisenc:vorbisenc.obj
 0002:00124410       _huff_lengthlist__44c6_s_short 000000018015c410     libvorbisenc:vorbisenc.obj
 0002:001245a0       _vq_lengthlist__44un1__p5_0 000000018015c5a0     libvorbisenc:vorbisenc.obj
 0002:001246e8       _vq_quantlist__44cn1_sm_p8_1 000000018015c6e8     libvorbisenc:vorbisenc.obj
 0002:00124720       _vq_lengthlist__44un1__p1_0 000000018015c720     libvorbisenc:vorbisenc.obj
 0002:00124868       _vq_quantlist__16u1__p5_0  000000018015c868     libvorbisenc:vorbisenc.obj
 0002:00124890       _resbook_44s_8             000000018015c890     libvorbisenc:vorbisenc.obj
 0002:00124a10       _vq_quantlist__8u0__p2_0   000000018015ca10     libvorbisenc:vorbisenc.obj
 0002:00124a20       _vq_lengthlist__44u8_p3_0  000000018015ca20     libvorbisenc:vorbisenc.obj
 0002:00124b68       _vq_quantlist__44p1_p3_0   000000018015cb68     libvorbisenc:vorbisenc.obj
 0002:00124b78       _vq_quantlist__16u2_p1_0   000000018015cb78     libvorbisenc:vorbisenc.obj
 0002:00124b88       _44p4_p5_0                 000000018015cb88     libvorbisenc:vorbisenc.obj
 0002:00124bc0       _vq_lengthlist__44p3_p2_0  000000018015cbc0     libvorbisenc:vorbisenc.obj
 0002:00127c98       _huff_book__44c6_s_short   000000018015fc98     libvorbisenc:vorbisenc.obj
 0002:00127cd0       _vq_quantlist__44u8_p9_1   000000018015fcd0     libvorbisenc:vorbisenc.obj
 0002:00127d20       _floor_mapping_44c         000000018015fd20     libvorbisenc:vorbisenc.obj
 0002:00127d50       _huff_book__44u2__short    000000018015fd50     libvorbisenc:vorbisenc.obj
 0002:00127d88       _vq_quantlist__8u1__p1_0   000000018015fd88     libvorbisenc:vorbisenc.obj
 0002:00127d98       _44c1_s_p3_0               000000018015fd98     libvorbisenc:vorbisenc.obj
 0002:00127dd0       _vq_lengthlist__44u9_p5_1  000000018015fdd0     libvorbisenc:vorbisenc.obj
 0002:00127fb8       _44c8_s_p8_0               000000018015ffb8     libvorbisenc:vorbisenc.obj
 0002:00127ff0       _huff_lengthlist_line_512x17_2sub3 000000018015fff0     libvorbisenc:vorbisenc.obj
 0002:001281f0       _noise_start_16            00000001801601f0     libvorbisenc:vorbisenc.obj
 0002:00128200       _mapres_template_44_stereo 0000000180160200     libvorbisenc:vorbisenc.obj
 0002:001282b0       _residue_44p               00000001801602b0     libvorbisenc:vorbisenc.obj
 0002:00128dc8       blocksize_16_short         0000000180160dc8     libvorbisenc:vorbisenc.obj
 0002:00128dd8       _44c0_sm_p2_0              0000000180160dd8     libvorbisenc:vorbisenc.obj
 0002:00128e10       _psy_global_44             0000000180160e10     libvorbisenc:vorbisenc.obj
 0002:001297b0       _vq_lengthlist__44c8_s_p6_1 00000001801617b0     libvorbisenc:vorbisenc.obj
 0002:00129818       _44p3_l0_1                 0000000180161818     libvorbisenc:vorbisenc.obj
 0002:00129850       _44cn1_sm_p7_1             0000000180161850     libvorbisenc:vorbisenc.obj
 0002:00129888       _44c6_s_p9_2               0000000180161888     libvorbisenc:vorbisenc.obj
 0002:001298c0       _vq_lengthlist__44u5__p7_1 00000001801618c0     libvorbisenc:vorbisenc.obj
 0002:00129aa8       _44p9_l1_0                 0000000180161aa8     libvorbisenc:vorbisenc.obj
 0002:00129ae0       _vq_lengthlist__16c2_s_p9_1 0000000180161ae0     libvorbisenc:vorbisenc.obj
 0002:0012a088       _44c8_s_p9_0               0000000180162088     libvorbisenc:vorbisenc.obj
 0002:0012a0c0       _vq_lengthlist__44c5_s_p6_0 00000001801620c0     libvorbisenc:vorbisenc.obj
 0002:0012a548       _16c2_s_p2_0               0000000180162548     libvorbisenc:vorbisenc.obj
 0002:0012a580       _vq_lengthlist__16c1_s_p4_0 0000000180162580     libvorbisenc:vorbisenc.obj
 0002:0012a6c8       _vq_quantlist__44p9_p6_0   00000001801626c8     libvorbisenc:vorbisenc.obj
 0002:0012a6d8       _vq_quantlist__44p6_p4_0   00000001801626d8     libvorbisenc:vorbisenc.obj
 0002:0012a6e8       _huff_book__44p3_short     00000001801626e8     libvorbisenc:vorbisenc.obj
 0002:0012a720       setup_list                 0000000180162720     libvorbisenc:vorbisenc.obj
 0002:0012a7b0       _vq_quantlist__16u1__p9_0  00000001801627b0     libvorbisenc:vorbisenc.obj
 0002:0012a7f0       _vq_quantlist__44p7_p7_3   00000001801627f0     libvorbisenc:vorbisenc.obj
 0002:0012a858       _vq_quantlist__44c5_s_p1_0 0000000180162858     libvorbisenc:vorbisenc.obj
 0002:0012a868       _44c8_s_p6_1               0000000180162868     libvorbisenc:vorbisenc.obj
 0002:0012a8a0       _vq_lengthlist__44p3_p7_0  00000001801628a0     libvorbisenc:vorbisenc.obj
 0002:0012ac70       _vq_quantlist__44p7_p7_1   0000000180162c70     libvorbisenc:vorbisenc.obj
 0002:0012ac80       _16c2_s_p4_0               0000000180162c80     libvorbisenc:vorbisenc.obj
 0002:0012acb8       _huff_book_line_128x7_class1 0000000180162cb8     libvorbisenc:vorbisenc.obj
 0002:0012acf0       _vq_quantlist__44c7_s_p4_0 0000000180162cf0     libvorbisenc:vorbisenc.obj
 0002:0012ad38       _44u2__p1_0                0000000180162d38     libvorbisenc:vorbisenc.obj
 0002:0012ad70       _huff_lengthlist__44c1_sm_long 0000000180162d70     libvorbisenc:vorbisenc.obj
 0002:0012aeb8       _44c0_sm_p8_0              0000000180162eb8     libvorbisenc:vorbisenc.obj
 0002:0012aef0       _vq_lengthlist__44p0_p5_0  0000000180162ef0     libvorbisenc:vorbisenc.obj
 0002:0012b2c0       _floor_512x17_books        00000001801632c0     libvorbisenc:vorbisenc.obj
 0002:0012b320       _huff_lengthlist_line_128x7_class1 0000000180163320     libvorbisenc:vorbisenc.obj
 0002:0012b720       _44p6_p6_1                 0000000180163720     libvorbisenc:vorbisenc.obj
 0002:0012b758       _huff_book__44p8_short     0000000180163758     libvorbisenc:vorbisenc.obj
 0002:0012b790       _huff_lengthlist_line_256x7_0sub2 0000000180163790     libvorbisenc:vorbisenc.obj
 0002:0012b7f8       _vq_quantlist__44p4_p4_1   00000001801637f8     libvorbisenc:vorbisenc.obj
 0002:0012b810       _vq_lengthlist__44p6_p7_1  0000000180163810     libvorbisenc:vorbisenc.obj
 0002:0012bbe0       _vq_lengthlist__44c5_s_p7_1 0000000180163be0     libvorbisenc:vorbisenc.obj
 0002:0012bdc8       _vq_quantlist__44c4_s_p4_0 0000000180163dc8     libvorbisenc:vorbisenc.obj
 0002:0012bdf0       _16u2_p9_0                 0000000180163df0     libvorbisenc:vorbisenc.obj
 0002:0012be28       _vq_quantlist__16c1_s_p7_1 0000000180163e28     libvorbisenc:vorbisenc.obj
 0002:0012be58       _44u7__p7_0                0000000180163e58     libvorbisenc:vorbisenc.obj
 0002:0012be90       _vq_lengthlist__44un1__p4_0 0000000180163e90     libvorbisenc:vorbisenc.obj
 0002:0012c858       _huff_book_line_128x7_0sub1 0000000180164858     libvorbisenc:vorbisenc.obj
 0002:0012c890       _vq_lengthlist__44c6_s_p5_1 0000000180164890     libvorbisenc:vorbisenc.obj
 0002:0012ca78       _16u2_p7_0                 0000000180164a78     libvorbisenc:vorbisenc.obj
 0002:0012cab0       _vq_quantlist__44c9_s_p9_0 0000000180164ab0     libvorbisenc:vorbisenc.obj
 0002:0012cb00       _44c6_s_p5_1               0000000180164b00     libvorbisenc:vorbisenc.obj
 0002:0012cb38       _huff_book__44p4_lfe       0000000180164b38     libvorbisenc:vorbisenc.obj
 0002:0012cb70       _vq_lengthlist__44p3_p1_0  0000000180164b70     libvorbisenc:vorbisenc.obj
 0002:0012cf40       _vq_quantlist__44u5__p4_0  0000000180164f40     libvorbisenc:vorbisenc.obj
 0002:0012cf58       _psy_compand_8_mapping     0000000180164f58     libvorbisenc:vorbisenc.obj
 0002:0012cf70       _huff_book__44p4_long      0000000180164f70     libvorbisenc:vorbisenc.obj
 0002:0012cfa8       _44u8_p7_1                 0000000180164fa8     libvorbisenc:vorbisenc.obj
 0002:0012cfe0       _vq_lengthlist__44c7_s_p9_0 0000000180164fe0     libvorbisenc:vorbisenc.obj
 0002:0012d288       _44c9_s_p9_1               0000000180165288     libvorbisenc:vorbisenc.obj
 0002:0012d2c0       _huff_lengthlist_line_2048x27_3sub3 00000001801652c0     libvorbisenc:vorbisenc.obj
 0002:0012d4c0       _vq_quantlist__44u0__p2_0  00000001801654c0     libvorbisenc:vorbisenc.obj
 0002:0012d4d0       _vq_quantlist__8u0__p7_2   00000001801654d0     libvorbisenc:vorbisenc.obj
 0002:0012d528       _44c4_s_p2_0               0000000180165528     libvorbisenc:vorbisenc.obj
 0002:0012d560       _vq_quantlist__16u0__p2_0  0000000180165560     libvorbisenc:vorbisenc.obj
 0002:0012d570       _vq_quantlist__44u3__p6_1  0000000180165570     libvorbisenc:vorbisenc.obj
 0002:0012d588       _huff_book__44p8_long      0000000180165588     libvorbisenc:vorbisenc.obj
 0002:0012d5c0       _vq_lengthlist__16c1_s_p9_0 00000001801655c0     libvorbisenc:vorbisenc.obj
 0002:0012d868       _huff_book__8u1__single    0000000180165868     libvorbisenc:vorbisenc.obj
 0002:0012d8a0       _huff_lengthlist_line_1024x27_class3 00000001801658a0     libvorbisenc:vorbisenc.obj
 0002:0012dca0       _vq_lengthlist__44c1_sm_p7_1 0000000180165ca0     libvorbisenc:vorbisenc.obj
 0002:0012dd08       _44c2_s_p8_1               0000000180165d08     libvorbisenc:vorbisenc.obj
 0002:0012dd40       _vq_lengthlist__44u0__p6_1 0000000180165d40     libvorbisenc:vorbisenc.obj
 0002:0012dda8       _huff_book_line_512x17_2sub1 0000000180165da8     libvorbisenc:vorbisenc.obj
 0002:0012dde0       _vq_quantlist__16u2_p8_1   0000000180165de0     libvorbisenc:vorbisenc.obj
 0002:0012de38       _vq_quantlist__44u5__p2_0  0000000180165e38     libvorbisenc:vorbisenc.obj
 0002:0012de48       _vq_quantlist__16c2_s_p6_0 0000000180165e48     libvorbisenc:vorbisenc.obj
 0002:0012de80       _44p8_p5_0                 0000000180165e80     libvorbisenc:vorbisenc.obj
 0002:0012deb8       _vq_quantlist__44p8_p3_0   0000000180165eb8     libvorbisenc:vorbisenc.obj
 0002:0012dec8       _vq_quantlist__44u2__p6_0  0000000180165ec8     libvorbisenc:vorbisenc.obj
 0002:0012df00       _mapres_template_44_uncoupled 0000000180165f00     libvorbisenc:vorbisenc.obj
 0002:0012dfb0       _resbook_44p_5             0000000180165fb0     libvorbisenc:vorbisenc.obj
 0002:0012e130       _huff_lengthlist_line_128x11_2sub3 0000000180166130     libvorbisenc:vorbisenc.obj
 0002:0012e330       _vq_lengthlist__16u0__p7_1 0000000180166330     libvorbisenc:vorbisenc.obj
 0002:0012e6b8       _44p9_p2_0                 00000001801666b8     libvorbisenc:vorbisenc.obj
 0002:0012e6f0       _resbook_44s_9             00000001801666f0     libvorbisenc:vorbisenc.obj
 0002:0012e870       _44p9_l0_0                 0000000180166870     libvorbisenc:vorbisenc.obj
 0002:0012e8a8       _44c0_sm_p8_1              00000001801668a8     libvorbisenc:vorbisenc.obj
 0002:0012e8e0       _vq_lengthlist__44p3_p4_1  00000001801668e0     libvorbisenc:vorbisenc.obj
 0002:001319b8       _vq_quantlist__44u7__p2_0  00000001801699b8     libvorbisenc:vorbisenc.obj
 0002:001319c8       _44p0_p2_0                 00000001801699c8     libvorbisenc:vorbisenc.obj
 0002:00131a00       _vq_lengthlist__44u8_p9_0  0000000180169a00     libvorbisenc:vorbisenc.obj
 0002:00131b48       _44p8_p4_0                 0000000180169b48     libvorbisenc:vorbisenc.obj
 0002:00131b80       _vq_lengthlist__44c4_s_p9_0 0000000180169b80     libvorbisenc:vorbisenc.obj
 0002:00131e28       _44c4_s_p9_1               0000000180169e28     libvorbisenc:vorbisenc.obj
 0002:00131e60       _vq_quantlist__44p5_p7_2   0000000180169e60     libvorbisenc:vorbisenc.obj
 0002:00131ec8       _44cn1_sm_p3_0             0000000180169ec8     libvorbisenc:vorbisenc.obj
 0002:00131f00       _vq_lengthlist__44u3__p6_0 0000000180169f00     libvorbisenc:vorbisenc.obj
 0002:001321a8       _vq_quantlist__8u0__p6_1   000000018016a1a8     libvorbisenc:vorbisenc.obj
 0002:001321c0       _8c0_s_p9_1                000000018016a1c0     libvorbisenc:vorbisenc.obj
 0002:001321f8       _44c2_s_p9_2               000000018016a1f8     libvorbisenc:vorbisenc.obj
 0002:00132230       _16u2_p8_0                 000000018016a230     libvorbisenc:vorbisenc.obj
 0002:00132268       _44p1_p3_0                 000000018016a268     libvorbisenc:vorbisenc.obj
 0002:001322a0       _44u1__p4_0                000000018016a2a0     libvorbisenc:vorbisenc.obj
 0002:001322d8       _huff_book__44u4__short    000000018016a2d8     libvorbisenc:vorbisenc.obj
 0002:00132310       _vq_lengthlist__44p2_p7_2  000000018016a310     libvorbisenc:vorbisenc.obj
 0002:00132378       _vq_quantlist__44pn1_l0_1  000000018016a378     libvorbisenc:vorbisenc.obj
 0002:00132390       _vq_lengthlist__44p3_p7_1  000000018016a390     libvorbisenc:vorbisenc.obj
 0002:00132760       _res_44s_2                 000000018016a760     libvorbisenc:vorbisenc.obj
 0002:001327d0       _vq_quantlist__44c2_s_p3_0 000000018016a7d0     libvorbisenc:vorbisenc.obj
 0002:001327e8       _vq_quantlist__44p6_p6_1   000000018016a7e8     libvorbisenc:vorbisenc.obj
 0002:001327f8       _huff_book__44p1_short     000000018016a7f8     libvorbisenc:vorbisenc.obj
 0002:00132830       _vq_lengthlist__44u3__p7_0 000000018016a830     libvorbisenc:vorbisenc.obj
 0002:00132978       _44c9_s_p5_1               000000018016a978     libvorbisenc:vorbisenc.obj
 0002:001329b0       _vq_lengthlist__44c5_s_p7_0 000000018016a9b0     libvorbisenc:vorbisenc.obj
 0002:00132af8       _44p2_p7_1                 000000018016aaf8     libvorbisenc:vorbisenc.obj
 0002:00132b30       _vq_lengthlist__44c1_sm_p8_1 000000018016ab30     libvorbisenc:vorbisenc.obj
 0002:00132dd8       _vq_quantlist__44u0__p7_0  000000018016add8     libvorbisenc:vorbisenc.obj
 0002:00132df0       _vq_lengthlist__44c8_s_p5_1 000000018016adf0     libvorbisenc:vorbisenc.obj
 0002:00132fd8       _huff_lengthlist__44p4_lfe 000000018016afd8     libvorbisenc:vorbisenc.obj
 0002:00132fe8       _44c2_s_p9_1               000000018016afe8     libvorbisenc:vorbisenc.obj
 0002:00133020       _vq_lengthlist__44p0_p6_2  000000018016b020     libvorbisenc:vorbisenc.obj
 0002:00133088       _huff_book__44c4_s_short   000000018016b088     libvorbisenc:vorbisenc.obj
 0002:001330c0       _vq_lengthlist__44cn1_sm_p3_0 000000018016b0c0     libvorbisenc:vorbisenc.obj
 0002:00133208       _44c5_s_p1_0               000000018016b208     libvorbisenc:vorbisenc.obj
 0002:00133240       _vq_lengthlist__44cn1_s_p2_0 000000018016b240     libvorbisenc:vorbisenc.obj
 0002:00133c08       _huff_book__16u2__short    000000018016bc08     libvorbisenc:vorbisenc.obj
 0002:00133c40       _huff_lengthlist_line_1024x27_0sub0 000000018016bc40     libvorbisenc:vorbisenc.obj
 0002:00133e40       _vq_lengthlist__44c0_s_p8_1 000000018016be40     libvorbisenc:vorbisenc.obj
 0002:001340e8       _vq_quantlist__16u1__p7_0  000000018016c0e8     libvorbisenc:vorbisenc.obj
 0002:001340f8       _44p0_p4_1                 000000018016c0f8     libvorbisenc:vorbisenc.obj
 0002:00134130       _vq_lengthlist__44un1__p7_0 000000018016c130     libvorbisenc:vorbisenc.obj
 0002:00134af8       _huff_book__44c0_sm_short  000000018016caf8     libvorbisenc:vorbisenc.obj
 0002:00134b30       _vq_lengthlist__44c9_s_p7_0 000000018016cb30     libvorbisenc:vorbisenc.obj
 0002:00134dd8       _psy_lowpass_22            000000018016cdd8     libvorbisenc:vorbisenc.obj
 0002:00134df8       _44c7_s_p8_1               000000018016cdf8     libvorbisenc:vorbisenc.obj
 0002:00134e30       _resbook_44p_ln1           000000018016ce30     libvorbisenc:vorbisenc.obj
 0002:00134fb0       _vq_lengthlist__16u1__p2_0 000000018016cfb0     libvorbisenc:vorbisenc.obj
 0002:001350f8       _44p3_p7_2                 000000018016d0f8     libvorbisenc:vorbisenc.obj
 0002:00135130       _vq_lengthlist__44c0_s_p6_0 000000018016d130     libvorbisenc:vorbisenc.obj
 0002:00135278       rate_mapping_22_uncoupled  000000018016d278     libvorbisenc:vorbisenc.obj
 0002:00135298       _res_8u_1                  000000018016d298     libvorbisenc:vorbisenc.obj
 0002:001352d0       _vq_lengthlist__44cn1_sm_p2_0 000000018016d2d0     libvorbisenc:vorbisenc.obj
 0002:00135c98       _huff_book_line_512x17_2sub3 000000018016dc98     libvorbisenc:vorbisenc.obj
 0002:00135cd0       _vq_lengthlist__44c3_s_p5_0 000000018016dcd0     libvorbisenc:vorbisenc.obj
 0002:00135e18       _44u1__p7_1                000000018016de18     libvorbisenc:vorbisenc.obj
 0002:00135e50       _vq_lengthlist__44u1__p7_0 000000018016de50     libvorbisenc:vorbisenc.obj
 0002:00135f18       _44p6_p2_0                 000000018016df18     libvorbisenc:vorbisenc.obj
 0002:00135f50       rate_mapping_32            000000018016df50     libvorbisenc:vorbisenc.obj
 0002:00135fb0       _huff_lengthlist__44u4__long 000000018016dfb0     libvorbisenc:vorbisenc.obj
 0002:001360b0       _vq_quantlist__8u1__p2_0   000000018016e0b0     libvorbisenc:vorbisenc.obj
 0002:001360c0       _huff_lengthlist__16u2__short 000000018016e0c0     libvorbisenc:vorbisenc.obj
 0002:00136250       _vq_lengthlist__44u9_p9_1  000000018016e250     libvorbisenc:vorbisenc.obj
 0002:001367f8       _vq_quantlist__44u6__p8_1  000000018016e7f8     libvorbisenc:vorbisenc.obj
 0002:00136828       _8u1__p3_0                 000000018016e828     libvorbisenc:vorbisenc.obj
 0002:00136860       _vq_lengthlist__44u8_p2_0  000000018016e860     libvorbisenc:vorbisenc.obj
 0002:00137228       _vq_quantlist__16u0__p3_0  000000018016f228     libvorbisenc:vorbisenc.obj
 0002:00137240       _vq_lengthlist__44p9_l1_0  000000018016f240     libvorbisenc:vorbisenc.obj
 0002:001372a8       _44u9_p1_0                 000000018016f2a8     libvorbisenc:vorbisenc.obj
 0002:001372e0       _vq_lengthlist__44p1_p5_0  000000018016f2e0     libvorbisenc:vorbisenc.obj
 0002:001376b0       _vq_quantlist__8u1__p9_1   000000018016f6b0     libvorbisenc:vorbisenc.obj
 0002:001376f0       _vq_quantlist__16c0_s_p1_0 000000018016f6f0     libvorbisenc:vorbisenc.obj
 0002:00137700       _huff_lengthlist_line_2048x27_class4 000000018016f700     libvorbisenc:vorbisenc.obj
 0002:00137800       _vq_lengthlist__8u0__p6_0  000000018016f800     libvorbisenc:vorbisenc.obj
 0002:00137aa8       _huff_book__44c6_s_long    000000018016faa8     libvorbisenc:vorbisenc.obj
 0002:00137ae0       _vq_lengthlist__44c6_s_p9_1 000000018016fae0     libvorbisenc:vorbisenc.obj
 0002:00137d88       _vq_quantlist__44cn1_s_p8_0 000000018016fd88     libvorbisenc:vorbisenc.obj
 0002:00137da0       _vq_lengthlist__44p3_p6_1  000000018016fda0     libvorbisenc:vorbisenc.obj
 0002:00138170       _vq_lengthlist__44u8_p9_2  0000000180170170     libvorbisenc:vorbisenc.obj
 0002:00138238       _vq_quantlist__8c0_s_p3_0  0000000180170238     libvorbisenc:vorbisenc.obj
 0002:00138250       _huff_lengthlist__44cn1_s_long 0000000180170250     libvorbisenc:vorbisenc.obj
 0002:00138398       _44c9_s_p7_0               0000000180170398     libvorbisenc:vorbisenc.obj
 0002:001383d0       _huff_lengthlist_line_128x11_0sub0 00000001801703d0     libvorbisenc:vorbisenc.obj
 0002:001385d0       _vq_lengthlist__44c0_s_p3_0 00000001801705d0     libvorbisenc:vorbisenc.obj
 0002:00138718       _vq_quantlist__8u1__p9_0   0000000180170718     libvorbisenc:vorbisenc.obj
 0002:00138758       _8u1__p6_0                 0000000180170758     libvorbisenc:vorbisenc.obj
 0002:00138790       _vq_lengthlist__8u1__p9_0  0000000180170790     libvorbisenc:vorbisenc.obj
 0002:00138b18       _44p9_p4_1                 0000000180170b18     libvorbisenc:vorbisenc.obj
 0002:00138b50       _vq_lengthlist__8u0__p7_1  0000000180170b50     libvorbisenc:vorbisenc.obj
 0002:00138ed8       _vq_quantlist__8c1_s_p8_1  0000000180170ed8     libvorbisenc:vorbisenc.obj
 0002:00138ef0       _vq_quantlist__44p5_p6_0   0000000180170ef0     libvorbisenc:vorbisenc.obj
 0002:00138f00       _vq_quantlist__44c0_sm_p7_0 0000000180170f00     libvorbisenc:vorbisenc.obj
 0002:00138f38       _vq_quantlist__44p5_l0_0   0000000180170f38     libvorbisenc:vorbisenc.obj
 0002:00138f70       _huff_lengthlist_line_2048x27_4sub3 0000000180170f70     libvorbisenc:vorbisenc.obj
 0002:00139170       _8u1__p7_0                 0000000180171170     libvorbisenc:vorbisenc.obj
 0002:001391a8       _vq_quantlist__44p6_p1_0   00000001801711a8     libvorbisenc:vorbisenc.obj
 0002:001391b8       _vq_quantlist__44u9_p6_1   00000001801711b8     libvorbisenc:vorbisenc.obj
 0002:001391d0       _44c0_sm_p4_0              00000001801711d0     libvorbisenc:vorbisenc.obj
 0002:00139208       _44p5_p6_1                 0000000180171208     libvorbisenc:vorbisenc.obj
 0002:00139240       _vq_lengthlist__44u2__p6_1 0000000180171240     libvorbisenc:vorbisenc.obj
 0002:001392a8       _44c3_s_p1_0               00000001801712a8     libvorbisenc:vorbisenc.obj
 0002:001392e0       _vq_lengthlist__44p3_p3_0  00000001801712e0     libvorbisenc:vorbisenc.obj
 0002:001396b0       _vq_lengthlist__44p4_p5_0  00000001801716b0     libvorbisenc:vorbisenc.obj
 0002:0013c788       _huff_book_line_128x11_3sub2 0000000180174788     libvorbisenc:vorbisenc.obj
 0002:0013c7c0       _vq_lengthlist__44u3__p1_0 00000001801747c0     libvorbisenc:vorbisenc.obj
 0002:0013c908       _44u9_p8_0                 0000000180174908     libvorbisenc:vorbisenc.obj
 0002:0013c940       _vq_lengthlist__44c7_s_p9_2 0000000180174940     libvorbisenc:vorbisenc.obj
 0002:0013ca08       _vq_quantlist__44p4_l1_0   0000000180174a08     libvorbisenc:vorbisenc.obj
 0002:0013ca18       _vq_quantlist__44c1_sm_p6_1 0000000180174a18     libvorbisenc:vorbisenc.obj
 0002:0013ca48       _16c0_s_p1_0               0000000180174a48     libvorbisenc:vorbisenc.obj
 0002:0013ca80       _vq_quantlist__44c1_s_p5_0 0000000180174a80     libvorbisenc:vorbisenc.obj
 0002:0013cac8       _huff_book_line_1024x27_3sub2 0000000180174ac8     libvorbisenc:vorbisenc.obj
 0002:0013cb00       _vq_lengthlist__44u9_p6_1  0000000180174b00     libvorbisenc:vorbisenc.obj
 0002:0013cb68       _44u1__p6_0                0000000180174b68     libvorbisenc:vorbisenc.obj
 0002:0013cba0       _vq_lengthlist__44c1_sm_p2_0 0000000180174ba0     libvorbisenc:vorbisenc.obj
 0002:0013d568       _vq_quantlist__44p8_p6_1   0000000180175568     libvorbisenc:vorbisenc.obj
 0002:0013d578       _vq_quantlist__44p6_p3_0   0000000180175578     libvorbisenc:vorbisenc.obj
 0002:0013d588       _16c2_s_p9_0               0000000180175588     libvorbisenc:vorbisenc.obj
 0002:0013d5c0       _resbook_44p_l3            00000001801755c0     libvorbisenc:vorbisenc.obj
 0002:0013d740       _vq_quantlist__44cn1_s_p8_2 0000000180175740     libvorbisenc:vorbisenc.obj
 0002:0013d788       _44c7_s_p7_0               0000000180175788     libvorbisenc:vorbisenc.obj
 0002:0013d7c0       _huff_lengthlist__44c0_s_long 00000001801757c0     libvorbisenc:vorbisenc.obj
 0002:0013d908       _44u2__p5_0                0000000180175908     libvorbisenc:vorbisenc.obj
 0002:0013d940       _res_44u_6                 0000000180175940     libvorbisenc:vorbisenc.obj
 0002:0013d9b0       _vq_lengthlist__8u0__p7_0  00000001801759b0     libvorbisenc:vorbisenc.obj
 0002:0013daf8       _vq_quantlist__44u0__p7_1  0000000180175af8     libvorbisenc:vorbisenc.obj
 0002:0013db30       _vq_lengthlist__16u0__p1_0 0000000180175b30     libvorbisenc:vorbisenc.obj
 0002:0013dc78       _44p8_p6_1                 0000000180175c78     libvorbisenc:vorbisenc.obj
 0002:0013dcb0       _44u5__p3_0                0000000180175cb0     libvorbisenc:vorbisenc.obj
 0002:0013dce8       _8c1_s_p8_0                0000000180175ce8     libvorbisenc:vorbisenc.obj
 0002:0013dd20       _psy_noisebias_impulse     0000000180175d20     libvorbisenc:vorbisenc.obj
 0002:0013e6b0       _vq_lengthlist__8c1_s_p6_0 00000001801766b0     libvorbisenc:vorbisenc.obj
 0002:0013eb38       _huff_book_line_512x17_class3 0000000180176b38     libvorbisenc:vorbisenc.obj
 0002:0013eb70       _huff_lengthlist_line_2048x27_4sub2 0000000180176b70     libvorbisenc:vorbisenc.obj
 0002:0013ec38       _vq_quantlist__44p7_p2_0   0000000180176c38     libvorbisenc:vorbisenc.obj
 0002:0013ec50       _vq_lengthlist__44c0_sm_p3_0 0000000180176c50     libvorbisenc:vorbisenc.obj
 0002:0013ed98       _44u5__p1_0                0000000180176d98     libvorbisenc:vorbisenc.obj
 0002:0013edd0       _residue_44_low            0000000180176dd0     libvorbisenc:vorbisenc.obj
 0002:0013f8e8       _vq_quantlist__44p8_p3_1   00000001801778e8     libvorbisenc:vorbisenc.obj
 0002:0013f8f8       _44c7_s_p5_1               00000001801778f8     libvorbisenc:vorbisenc.obj
 0002:0013f930       _vq_quantlist__44p3_p7_2   0000000180177930     libvorbisenc:vorbisenc.obj
 0002:0013f998       _vq_quantlist__44u6__p2_0  0000000180177998     libvorbisenc:vorbisenc.obj
 0002:0013f9a8       _44c6_s_p4_0               00000001801779a8     libvorbisenc:vorbisenc.obj
 0002:0013f9e0       _vp_tonemask_adj_16        00000001801779e0     libvorbisenc:vorbisenc.obj
 0002:0013faf0       _44p9_p6_0                 0000000180177af0     libvorbisenc:vorbisenc.obj
 0002:0013fb28       _44p8_p7_1                 0000000180177b28     libvorbisenc:vorbisenc.obj
 0002:0013fb60       _44pn1_p3_0                0000000180177b60     libvorbisenc:vorbisenc.obj
 0002:0013fb98       _vq_quantlist__44u7__p9_1  0000000180177b98     libvorbisenc:vorbisenc.obj
 0002:0013fbd0       _16c2_s_p5_1               0000000180177bd0     libvorbisenc:vorbisenc.obj
 0002:0013fc08       _44u4__p1_0                0000000180177c08     libvorbisenc:vorbisenc.obj
 0002:0013fc40       _res_44s_9                 0000000180177c40     libvorbisenc:vorbisenc.obj
 0002:0013fcb0       _vq_lengthlist__44c2_s_p8_0 0000000180177cb0     libvorbisenc:vorbisenc.obj
 0002:0013ff58       _16c1_s_p3_0               0000000180177f58     libvorbisenc:vorbisenc.obj
 0002:0013ff90       _vq_lengthlist__44u9_p2_0  0000000180177f90     libvorbisenc:vorbisenc.obj
 0002:00140958       _44c6_s_p5_0               0000000180178958     libvorbisenc:vorbisenc.obj
 0002:00140990       _huff_lengthlist_line_128x17_class2 0000000180178990     libvorbisenc:vorbisenc.obj
 0002:00140a90       _vq_lengthlist__44c8_s_p8_1 0000000180178a90     libvorbisenc:vorbisenc.obj
 0002:00141178       _huff_book__44u5__short    0000000180179178     libvorbisenc:vorbisenc.obj
 0002:001411b0       _psy_stereo_modes_16       00000001801791b0     libvorbisenc:vorbisenc.obj
 0002:00141570       _vq_lengthlist__16u2_p8_1  0000000180179570     libvorbisenc:vorbisenc.obj
 0002:00141c58       _huff_book__44c3_s_short   0000000180179c58     libvorbisenc:vorbisenc.obj
 0002:00141c90       _vq_quantlist__44c6_s_p8_1 0000000180179c90     libvorbisenc:vorbisenc.obj
 0002:00141ce8       _huff_book_line_1024x27_2sub0 0000000180179ce8     libvorbisenc:vorbisenc.obj
 0002:00141d20       _vq_lengthlist__44p9_p7_0  0000000180179d20     libvorbisenc:vorbisenc.obj
 0002:00144df8       _huff_book__44c0_s_long    000000018017cdf8     libvorbisenc:vorbisenc.obj
 0002:00144e30       _vq_lengthlist__44p9_p7_1  000000018017ce30     libvorbisenc:vorbisenc.obj
 0002:00147f08       _44p5_p7_2                 000000018017ff08     libvorbisenc:vorbisenc.obj
 0002:00147f40       _44p0_l1_0                 000000018017ff40     libvorbisenc:vorbisenc.obj
 0002:00147f78       _vq_quantlist__44p9_p6_1   000000018017ff78     libvorbisenc:vorbisenc.obj
 0002:00147f88       _vq_quantlist__44c0_s_p7_1 000000018017ff88     libvorbisenc:vorbisenc.obj
 0002:00147fa0       _vq_quantlist__44p2_p4_0   000000018017ffa0     libvorbisenc:vorbisenc.obj
 0002:00147fb0       _vq_lengthlist__44p1_p6_1  000000018017ffb0     libvorbisenc:vorbisenc.obj
 0002:00148018       _8u0__p5_0                 0000000180180018     libvorbisenc:vorbisenc.obj
 0002:00148050       _vq_quantlist__44pn1_p6_2  0000000180180050     libvorbisenc:vorbisenc.obj
 0002:001480b8       _44p6_p6_0                 00000001801800b8     libvorbisenc:vorbisenc.obj
 0002:001480f0       _vq_lengthlist__44c4_s_p7_1 00000001801800f0     libvorbisenc:vorbisenc.obj
 0002:001482d8       _vq_quantlist__44p9_p2_0   00000001801802d8     libvorbisenc:vorbisenc.obj
 0002:001482f0       _vq_lengthlist__44u0__p2_0 00000001801802f0     libvorbisenc:vorbisenc.obj
 0002:00148438       _44cn1_sm_p8_1             0000000180180438     libvorbisenc:vorbisenc.obj
 0002:00148470       _vq_lengthlist__8u0__p2_0  0000000180180470     libvorbisenc:vorbisenc.obj
 0002:001485b8       _vq_quantlist__44u5__p5_0  00000001801805b8     libvorbisenc:vorbisenc.obj
 0002:001485e0       _vq_lengthlist__8u1__p7_1  00000001801805e0     libvorbisenc:vorbisenc.obj
 0002:001487c8       _huff_book__44c0_sm_long   00000001801807c8     libvorbisenc:vorbisenc.obj
 0002:00148800       _huff_lengthlist_line_2048x27_3sub1 0000000180180800     libvorbisenc:vorbisenc.obj
 0002:00148848       _8c0_s_p1_0                0000000180180848     libvorbisenc:vorbisenc.obj
 0002:00148880       _vq_lengthlist__16c1_s_p7_0 0000000180180880     libvorbisenc:vorbisenc.obj
 0002:001489c8       _vq_quantlist__16c2_s_p5_1 00000001801809c8     libvorbisenc:vorbisenc.obj
 0002:001489f8       _huff_book__44p2_long      00000001801809f8     libvorbisenc:vorbisenc.obj
 0002:00148a30       _vq_lengthlist__44u6__p9_1 0000000180180a30     libvorbisenc:vorbisenc.obj
 0002:00148db8       _vq_quantlist__44p2_l1_0   0000000180180db8     libvorbisenc:vorbisenc.obj
 0002:00148dc8       _8c0_s_p3_0                0000000180180dc8     libvorbisenc:vorbisenc.obj
 0002:00148e00       _vq_lengthlist__44u9_p8_0  0000000180180e00     libvorbisenc:vorbisenc.obj
 0002:00149188       _vq_quantlist__44c1_sm_p8_0 0000000180181188     libvorbisenc:vorbisenc.obj
 0002:001491c0       _vq_lengthlist__44p9_l0_0  00000001801811c0     libvorbisenc:vorbisenc.obj
 0002:00149468       _res_8s_0                  0000000180181468     libvorbisenc:vorbisenc.obj
 0002:001494a0       _map_nominal_u             00000001801814a0     libvorbisenc:vorbisenc.obj
 0002:0014adb0       _vq_lengthlist__16c2_s_p7_0 0000000180182db0     libvorbisenc:vorbisenc.obj
 0002:0014b058       _vq_quantlist__44u6__p3_0  0000000180183058     libvorbisenc:vorbisenc.obj
 0002:0014b070       _vq_lengthlist__44p0_p4_1  0000000180183070     libvorbisenc:vorbisenc.obj
 0002:0014b090       _huff_lengthlist__44c5_s_short 0000000180183090     libvorbisenc:vorbisenc.obj
 0002:0014b220       _vq_quantlist__44p1_p1_0   0000000180183220     libvorbisenc:vorbisenc.obj
 0002:0014b230       _44cn1_s_p8_1              0000000180183230     libvorbisenc:vorbisenc.obj
 0002:0014b268       _vq_quantlist__44p7_p7_0   0000000180183268     libvorbisenc:vorbisenc.obj
 0002:0014b278       _huff_book_line_256x4_0sub2 0000000180183278     libvorbisenc:vorbisenc.obj
 0002:0014b2b0       _vq_quantlist__8c1_s_p9_2  00000001801832b0     libvorbisenc:vorbisenc.obj
 0002:0014b308       _44p1_p2_1                 0000000180183308     libvorbisenc:vorbisenc.obj
 0002:0014b340       _vq_quantlist__44c1_sm_p3_0 0000000180183340     libvorbisenc:vorbisenc.obj
 0002:0014b368       _vq_quantlist__44c2_s_p9_0 0000000180183368     libvorbisenc:vorbisenc.obj
 0002:0014b3a0       _vq_lengthlist__44u9_p6_0  00000001801833a0     libvorbisenc:vorbisenc.obj
 0002:0014b648       _huff_book_line_128x17_class3 0000000180183648     libvorbisenc:vorbisenc.obj
 0002:0014b680       _resbook_44u_8             0000000180183680     libvorbisenc:vorbisenc.obj
 0002:0014b800       _resbook_44p_7             0000000180183800     libvorbisenc:vorbisenc.obj
 0002:0014b980       _huff_book__44pn1_lfe      0000000180183980     libvorbisenc:vorbisenc.obj
 0002:0014b9b8       _vq_quantlist__44u8_p2_0   00000001801839b8     libvorbisenc:vorbisenc.obj
 0002:0014b9d0       _vq_lengthlist__44u9_p8_1  00000001801839d0     libvorbisenc:vorbisenc.obj
 0002:0014c0b8       _psy_lowpass_11            00000001801840b8     libvorbisenc:vorbisenc.obj
 0002:0014c0d0       _huff_lengthlist_line_1024x27_1sub0 00000001801840d0     libvorbisenc:vorbisenc.obj
 0002:0014c150       _vq_quantlist__44p0_p5_0   0000000180184150     libvorbisenc:vorbisenc.obj
 0002:0014c160       _huff_lengthlist_line_128x17_3sub3 0000000180184160     libvorbisenc:vorbisenc.obj
 0002:0014c360       _44p8_l0_0                 0000000180184360     libvorbisenc:vorbisenc.obj
 0002:0014c398       _44c9_s_p6_0               0000000180184398     libvorbisenc:vorbisenc.obj
 0002:0014c3d0       _huff_book_line_2048x27_3sub3 00000001801843d0     libvorbisenc:vorbisenc.obj
 0002:0014c408       _vq_quantlist__44p0_p2_1   0000000180184408     libvorbisenc:vorbisenc.obj
 0002:0014c418       _44c5_s_p5_0               0000000180184418     libvorbisenc:vorbisenc.obj
 0002:0014c450       _vq_lengthlist__44un1__p3_0 0000000180184450     libvorbisenc:vorbisenc.obj
 0002:0014ce18       _huff_book_line_1024x27_class2 0000000180184e18     libvorbisenc:vorbisenc.obj
 0002:0014ce50       _resbook_44s_n1            0000000180184e50     libvorbisenc:vorbisenc.obj
 0002:0014cfd0       _huff_lengthlist_line_256x4low_0sub3 0000000180184fd0     libvorbisenc:vorbisenc.obj
 0002:0014d0d0       _vq_lengthlist__44c0_sm_p8_2 00000001801850d0     libvorbisenc:vorbisenc.obj
 0002:0014d558       _44u3__p7_0                0000000180185558     libvorbisenc:vorbisenc.obj
 0002:0014d590       _resbook_44u_3             0000000180185590     libvorbisenc:vorbisenc.obj
 0002:0014d710       _resbook_8s_1              0000000180185710     libvorbisenc:vorbisenc.obj
 0002:0014d890       _44u6__p7_1                0000000180185890     libvorbisenc:vorbisenc.obj
 0002:0014d8c8       _44p3_p7_0                 00000001801858c8     libvorbisenc:vorbisenc.obj
 0002:0014d900       _vq_quantlist__44u7__p8_1  0000000180185900     libvorbisenc:vorbisenc.obj
 0002:0014d930       _44c5_s_p4_0               0000000180185930     libvorbisenc:vorbisenc.obj
 0002:0014d968       _vq_quantlist__16u1__p2_0  0000000180185968     libvorbisenc:vorbisenc.obj
 0002:0014d978       _44c0_s_p5_0               0000000180185978     libvorbisenc:vorbisenc.obj
 0002:0014d9b0       _vq_lengthlist__44p9_p3_0  00000001801859b0     libvorbisenc:vorbisenc.obj
 0002:0014dd80       _vq_lengthlist__44p9_p6_0  0000000180185d80     libvorbisenc:vorbisenc.obj
 0002:0014e150       _vq_quantlist__16u1__p1_0  0000000180186150     libvorbisenc:vorbisenc.obj
 0002:0014e160       _vq_lengthlist__44c4_s_p6_0 0000000180186160     libvorbisenc:vorbisenc.obj
 0002:0014e5e8       _vq_quantlist__44u6__p4_0  00000001801865e8     libvorbisenc:vorbisenc.obj
 0002:0014e600       _vq_quantlist__44c8_s_p9_2 0000000180186600     libvorbisenc:vorbisenc.obj
 0002:0014e6c8       _44c4_s_p9_0               00000001801866c8     libvorbisenc:vorbisenc.obj
 0002:0014e700       _vq_quantlist__8u1__p9_2   0000000180186700     libvorbisenc:vorbisenc.obj
 0002:0014e748       _44u5__p4_0                0000000180186748     libvorbisenc:vorbisenc.obj
 0002:0014e780       _psy_noisebias_11          0000000180186780     libvorbisenc:vorbisenc.obj
 0002:0014e9e8       _huff_book__44p3_long      00000001801869e8     libvorbisenc:vorbisenc.obj
 0002:0014ea20       _vq_lengthlist__44c4_s_p9_1 0000000180186a20     libvorbisenc:vorbisenc.obj
 0002:0014eda8       _vq_quantlist__8c1_s_p4_0  0000000180186da8     libvorbisenc:vorbisenc.obj
 0002:0014edd0       _vq_lengthlist__44p5_p7_1  0000000180186dd0     libvorbisenc:vorbisenc.obj
 0002:0014f1a0       _vq_lengthlist__44p7_l0_1  00000001801871a0     libvorbisenc:vorbisenc.obj
 0002:0014f208       _44c1_sm_p3_0              0000000180187208     libvorbisenc:vorbisenc.obj
 0002:0014f240       _res_44s_7                 0000000180187240     libvorbisenc:vorbisenc.obj
 0002:0014f2b0       _vq_lengthlist__44c1_s_p7_0 00000001801872b0     libvorbisenc:vorbisenc.obj
 0002:0014f558       _vq_quantlist__44c1_s_p2_0 0000000180187558     libvorbisenc:vorbisenc.obj
 0002:0014f570       _vq_lengthlist__44p5_p2_0  0000000180187570     libvorbisenc:vorbisenc.obj
 0002:00152648       _vq_quantlist__44c4_s_p9_0 000000018018a648     libvorbisenc:vorbisenc.obj
 0002:00152680       _vq_quantlist__44p0_p6_1   000000018018a680     libvorbisenc:vorbisenc.obj
 0002:001526e8       _huff_book__44c1_sm_short  000000018018a6e8     libvorbisenc:vorbisenc.obj
 0002:00152720       _huff_lengthlist__44u0__long 000000018018a720     libvorbisenc:vorbisenc.obj
 0002:00152820       _vq_lengthlist__44p2_p6_0  000000018018a820     libvorbisenc:vorbisenc.obj
 0002:00152bf0       _huff_lengthlist_line_256x4_0sub2 000000018018abf0     libvorbisenc:vorbisenc.obj
 0002:00152c58       _huff_book__44c7_s_long    000000018018ac58     libvorbisenc:vorbisenc.obj
 0002:00152c90       _vq_lengthlist__44c3_s_p7_0 000000018018ac90     libvorbisenc:vorbisenc.obj
 0002:00152dd8       _vq_quantlist__16c1_s_p5_0 000000018018add8     libvorbisenc:vorbisenc.obj
 0002:00152e00       _vq_quantlist__44c4_s_p6_0 000000018018ae00     libvorbisenc:vorbisenc.obj
 0002:00152e48       _huff_book__16u2__long     000000018018ae48     libvorbisenc:vorbisenc.obj
 0002:00152e80       _vq_lengthlist__44p5_p5_0  000000018018ae80     libvorbisenc:vorbisenc.obj
 0002:00155f58       _huff_lengthlist__44p7_lfe 000000018018df58     libvorbisenc:vorbisenc.obj
 0002:00155f68       _16c2_s_p8_1               000000018018df68     libvorbisenc:vorbisenc.obj
 0002:00155fa0       _vq_quantlist__44p2_p7_2   000000018018dfa0     libvorbisenc:vorbisenc.obj
 0002:00156008       _psy_noiseguards_16        000000018018e008     libvorbisenc:vorbisenc.obj
 0002:00156038       _huff_book_line_2048x27_4sub1 000000018018e038     libvorbisenc:vorbisenc.obj
 0002:00156070       _global_mapping_44         000000018018e070     libvorbisenc:vorbisenc.obj
 0002:001560d0       _vq_lengthlist__44u8_p6_0  000000018018e0d0     libvorbisenc:vorbisenc.obj
 0002:00156378       _vq_quantlist__44u7__p9_0  000000018018e378     libvorbisenc:vorbisenc.obj
 0002:001563a8       _44p4_p7_3                 000000018018e3a8     libvorbisenc:vorbisenc.obj
 0002:001563e0       _vq_lengthlist__44u0__p7_1 000000018018e3e0     libvorbisenc:vorbisenc.obj
 0002:00156688       _44c9_s_p4_0               000000018018e688     libvorbisenc:vorbisenc.obj
 0002:001566c0       _vq_quantlist__44un1__p7_1 000000018018e6c0     libvorbisenc:vorbisenc.obj
 0002:001566f8       _44u9_p3_0                 000000018018e6f8     libvorbisenc:vorbisenc.obj
 0002:00156730       _8u1__p2_0                 000000018018e730     libvorbisenc:vorbisenc.obj
 0002:00156768       _vq_quantlist__44p6_p4_1   000000018018e768     libvorbisenc:vorbisenc.obj
 0002:00156780       _huff_lengthlist__44cn1_sm_long 000000018018e780     libvorbisenc:vorbisenc.obj
 0002:001568c8       _vq_lengthlist__44pn1_l1_0 000000018018e8c8     libvorbisenc:vorbisenc.obj
 0002:001568f0       _vq_lengthlist__44p7_p7_0  000000018018e8f0     libvorbisenc:vorbisenc.obj
 0002:00156cc0       _vq_quantlist__16u2_p3_0   000000018018ecc0     libvorbisenc:vorbisenc.obj
 0002:00156ce8       _44p0_p2_1                 000000018018ece8     libvorbisenc:vorbisenc.obj
 0002:00156d20       _vq_lengthlist__16u1__p9_2 000000018018ed20     libvorbisenc:vorbisenc.obj
 0002:001571a8       _vq_quantlist__44u6__p7_0  000000018018f1a8     libvorbisenc:vorbisenc.obj
 0002:001571b8       _vq_quantlist__8u0__p5_0   000000018018f1b8     libvorbisenc:vorbisenc.obj
 0002:001571e0       _44cn1_sm_p8_2             000000018018f1e0     libvorbisenc:vorbisenc.obj
 0002:00157218       _44pn1_p4_0                000000018018f218     libvorbisenc:vorbisenc.obj
 0002:00157250       _vq_quantlist__44pn1_p6_1  000000018018f250     libvorbisenc:vorbisenc.obj
 0002:001572b8       _vq_quantlist__44c5_s_p8_1 000000018018f2b8     libvorbisenc:vorbisenc.obj
 0002:001572d0       _vq_quantlist__8c1_s_p9_0  000000018018f2d0     libvorbisenc:vorbisenc.obj
 0002:00157308       _44p1_p5_0                 000000018018f308     libvorbisenc:vorbisenc.obj
 0002:00157340       _vq_lengthlist__44c6_s_p4_0 000000018018f340     libvorbisenc:vorbisenc.obj
 0002:001577c8       _huff_book_line_256x7_1sub2 000000018018f7c8     libvorbisenc:vorbisenc.obj
 0002:00157800       _44un1__p1_0               000000018018f800     libvorbisenc:vorbisenc.obj
 0002:00157838       _44p7_p5_0                 000000018018f838     libvorbisenc:vorbisenc.obj
 0002:00157870       _vq_quantlist__16u2_p9_1   000000018018f870     libvorbisenc:vorbisenc.obj
 0002:001578c0       _vq_lengthlist__44cn1_s_p8_2 000000018018f8c0     libvorbisenc:vorbisenc.obj
 0002:00157d48       _44p1_p6_0                 000000018018fd48     libvorbisenc:vorbisenc.obj
 0002:00157d80       _vq_lengthlist__44c7_s_p6_1 000000018018fd80     libvorbisenc:vorbisenc.obj
 0002:00157de8       _huff_book__8c1_s_single   000000018018fde8     libvorbisenc:vorbisenc.obj
 0002:00157e20       _huff_book__44c0_s_short   000000018018fe20     libvorbisenc:vorbisenc.obj
 0002:00157e58       _huff_book_line_256x4low_class0 000000018018fe58     libvorbisenc:vorbisenc.obj
 0002:00157e90       _vq_lengthlist__44p0_p6_1  000000018018fe90     libvorbisenc:vorbisenc.obj
 0002:00157ef8       _huff_book__44c2_s_long    000000018018fef8     libvorbisenc:vorbisenc.obj
 0002:00157f30       _vq_lengthlist__44u9_p5_0  000000018018ff30     libvorbisenc:vorbisenc.obj
 0002:00158078       _44c6_s_p7_0               0000000180190078     libvorbisenc:vorbisenc.obj
 0002:001580b0       _huff_lengthlist_line_512x17_3sub3 00000001801900b0     libvorbisenc:vorbisenc.obj
 0002:001582b0       _vq_lengthlist__44c7_s_p9_1 00000001801902b0     libvorbisenc:vorbisenc.obj
 0002:00158558       _44c4_s_p1_0               0000000180190558     libvorbisenc:vorbisenc.obj
 0002:00158590       _huff_lengthlist_line_128x17_2sub2 0000000180190590     libvorbisenc:vorbisenc.obj
 0002:00158658       _8c1_s_p8_1                0000000180190658     libvorbisenc:vorbisenc.obj
 0002:00158690       _vq_lengthlist__44c4_s_p1_0 0000000180190690     libvorbisenc:vorbisenc.obj
 0002:0015ed18       _huff_book_line_128x7_1sub2 0000000180196d18     libvorbisenc:vorbisenc.obj
 0002:0015ed50       _huff_lengthlist_line_128x4_0sub2 0000000180196d50     libvorbisenc:vorbisenc.obj
 0002:0015edb8       _44c1_sm_p5_0              0000000180196db8     libvorbisenc:vorbisenc.obj
 0002:0015edf0       _resbook_8s_0              0000000180196df0     libvorbisenc:vorbisenc.obj
 0002:0015ef70       _vq_quantlist__44p4_p7_0   0000000180196f70     libvorbisenc:vorbisenc.obj
 0002:0015ef80       _vq_lengthlist__44c9_s_p9_0 0000000180196f80     libvorbisenc:vorbisenc.obj
 0002:0015f528       _res_8s_1                  0000000180197528     libvorbisenc:vorbisenc.obj
 0002:0015f560       _vq_lengthlist__44c7_s_p4_0 0000000180197560     libvorbisenc:vorbisenc.obj
 0002:0015f9e8       _44c8_s_p2_0               00000001801979e8     libvorbisenc:vorbisenc.obj
 0002:0015fa20       _vq_lengthlist__44p1_p3_0  0000000180197a20     libvorbisenc:vorbisenc.obj
 0002:0015fdf0       _huff_lengthlist__8u1__single 0000000180197df0     libvorbisenc:vorbisenc.obj
 0002:0015ff80       _vq_quantlist__44c0_s_p4_0 0000000180197f80     libvorbisenc:vorbisenc.obj
 0002:0015ffa8       _vq_quantlist__44u1__p5_0  0000000180197fa8     libvorbisenc:vorbisenc.obj
 0002:0015ffd0       _vq_lengthlist__44cn1_s_p7_1 0000000180197fd0     libvorbisenc:vorbisenc.obj
 0002:00160038       _huff_lengthlist_line_256x7_0sub1 0000000180198038     libvorbisenc:vorbisenc.obj
 0002:00160060       _vq_quantlist__44u5__p8_1  0000000180198060     libvorbisenc:vorbisenc.obj
 0002:00160090       _44p2_p3_0                 0000000180198090     libvorbisenc:vorbisenc.obj
 0002:001600c8       _vq_quantlist__44un1__p3_0 00000001801980c8     libvorbisenc:vorbisenc.obj
 0002:001600e0       _vq_lengthlist__16c2_s_p1_0 00000001801980e0     libvorbisenc:vorbisenc.obj
 0002:00160228       _huff_book_line_128x7_0sub2 0000000180198228     libvorbisenc:vorbisenc.obj
 0002:00160260       _vq_lengthlist__44p4_p6_1  0000000180198260     libvorbisenc:vorbisenc.obj
 0002:00160630       _vq_quantlist__44p0_l0_1   0000000180198630     libvorbisenc:vorbisenc.obj
 0002:00160648       _vq_quantlist__44u0__p7_2  0000000180198648     libvorbisenc:vorbisenc.obj
 0002:00160680       _vq_lengthlist__44c8_s_p7_0 0000000180198680     libvorbisenc:vorbisenc.obj
 0002:00160928       _vq_quantlist__44c0_sm_p3_0 0000000180198928     libvorbisenc:vorbisenc.obj
 0002:00160950       _44u3__p7_2                0000000180198950     libvorbisenc:vorbisenc.obj
 0002:00160988       _44c1_s_p6_1               0000000180198988     libvorbisenc:vorbisenc.obj
 0002:001609c0       _vq_lengthlist__44c1_s_p1_0 00000001801989c0     libvorbisenc:vorbisenc.obj
 0002:00167048       _44p1_p1_0                 000000018019f048     libvorbisenc:vorbisenc.obj
 0002:00167080       _vq_lengthlist__8u1__p4_0  000000018019f080     libvorbisenc:vorbisenc.obj
 0002:00167a48       _vq_quantlist__44c1_s_p8_0 000000018019fa48     libvorbisenc:vorbisenc.obj
 0002:00167a80       _vq_lengthlist__44p1_p5_1  000000018019fa80     libvorbisenc:vorbisenc.obj
 0002:00167e50       _vq_quantlist__44u6__p9_2  000000018019fe50     libvorbisenc:vorbisenc.obj
 0002:00167e98       _vq_quantlist__44p6_p3_1   000000018019fe98     libvorbisenc:vorbisenc.obj
 0002:00167ea8       _44p2_p6_0                 000000018019fea8     libvorbisenc:vorbisenc.obj
 0002:00167ee0       _vq_lengthlist__44u3__p7_2 000000018019fee0     libvorbisenc:vorbisenc.obj
 0002:00168368       _huff_book__44cn1_sm_short 00000001801a0368     libvorbisenc:vorbisenc.obj
 0002:001683a0       _huff_lengthlist_line_512x17_1sub1 00000001801a03a0     libvorbisenc:vorbisenc.obj
 0002:001685a0       _vq_quantlist__44p8_p7_3   00000001801a05a0     libvorbisenc:vorbisenc.obj
 0002:00168608       _huff_book_line_128x17_2sub3 00000001801a0608     libvorbisenc:vorbisenc.obj
 0002:00168640       _vq_lengthlist__44c1_sm_p8_2 00000001801a0640     libvorbisenc:vorbisenc.obj
 0002:00168ac8       _vq_quantlist__8u0__p7_1   00000001801a0ac8     libvorbisenc:vorbisenc.obj
 0002:00168b08       _vq_quantlist__44cn1_sm_p6_1 00000001801a0b08     libvorbisenc:vorbisenc.obj
 0002:00168b38       _vq_quantlist__44c1_s_p6_0 00000001801a0b38     libvorbisenc:vorbisenc.obj
 0002:00168b48       _vq_quantlist__44un1__p2_0 00000001801a0b48     libvorbisenc:vorbisenc.obj
 0002:00168b58       _huff_book_line_256x4_class0 00000001801a0b58     libvorbisenc:vorbisenc.obj
 0002:00168b90       _44p2_p6_1                 00000001801a0b90     libvorbisenc:vorbisenc.obj
 0002:00168bc8       _vq_quantlist__44u8_p5_0   00000001801a0bc8     libvorbisenc:vorbisenc.obj
 0002:00168bd8       _44c6_s_p2_0               00000001801a0bd8     libvorbisenc:vorbisenc.obj
 0002:00168c10       _vq_lengthlist__8u0__p4_0  00000001801a0c10     libvorbisenc:vorbisenc.obj
 0002:001695d8       _psy_ath_abs_8             00000001801a15d8     libvorbisenc:vorbisenc.obj
 0002:001695e8       _44c1_s_p6_0               00000001801a15e8     libvorbisenc:vorbisenc.obj
 0002:00169620       _vq_lengthlist__44u0__p5_0 00000001801a1620     libvorbisenc:vorbisenc.obj
 0002:00169768       _8c0_s_p5_0                00000001801a1768     libvorbisenc:vorbisenc.obj
 0002:001697a0       _res_44u_8                 00000001801a17a0     libvorbisenc:vorbisenc.obj
 0002:00169810       _vq_quantlist__44u8_p7_1   00000001801a1810     libvorbisenc:vorbisenc.obj
 0002:00169840       _huff_lengthlist_line_512x17_3sub1 00000001801a1840     libvorbisenc:vorbisenc.obj
 0002:00169888       _16c2_s_p9_2               00000001801a1888     libvorbisenc:vorbisenc.obj
 0002:001698c0       _huff_lengthlist_line_128x7_class0 00000001801a18c0     libvorbisenc:vorbisenc.obj
 0002:001699c0       _psy_info_template         00000001801a19c0     libvorbisenc:vorbisenc.obj
 0002:00169bc8       _huff_book__8u0__single    00000001801a1bc8     libvorbisenc:vorbisenc.obj
 0002:00169c00       _44u1__p7_0                00000001801a1c00     libvorbisenc:vorbisenc.obj
 0002:00169c38       _vq_quantlist__16u2_p7_0   00000001801a1c38     libvorbisenc:vorbisenc.obj
 0002:00169c70       _vq_quantlist__44u9_p7_0   00000001801a1c70     libvorbisenc:vorbisenc.obj
 0002:00169ca8       _16u2_p1_0                 00000001801a1ca8     libvorbisenc:vorbisenc.obj
 0002:00169ce0       _44p6_p5_0                 00000001801a1ce0     libvorbisenc:vorbisenc.obj
 0002:00169d18       _floor_mapping_11a         00000001801a1d18     libvorbisenc:vorbisenc.obj
 0002:00169d20       _vq_quantlist__44p5_l0_1   00000001801a1d20     libvorbisenc:vorbisenc.obj
 0002:00169d38       _44un1__p6_0               00000001801a1d38     libvorbisenc:vorbisenc.obj
 0002:00169d70       _huff_lengthlist__44c3_s_long 00000001801a1d70     libvorbisenc:vorbisenc.obj
 0002:00169f00       _vq_quantlist__44pn1_l1_0  00000001801a1f00     libvorbisenc:vorbisenc.obj
 0002:00169f10       _44u3__p3_0                00000001801a1f10     libvorbisenc:vorbisenc.obj
 0002:00169f48       _vq_quantlist__44p6_l1_0   00000001801a1f48     libvorbisenc:vorbisenc.obj
 0002:00169f58       _44pn1_l1_0                00000001801a1f58     libvorbisenc:vorbisenc.obj
 0002:00169f90       _vq_quantlist__44p3_p5_0   00000001801a1f90     libvorbisenc:vorbisenc.obj
 0002:00169fa8       _44u5__p2_0                00000001801a1fa8     libvorbisenc:vorbisenc.obj
 0002:00169fe0       _res_16s_1                 00000001801a1fe0     libvorbisenc:vorbisenc.obj
 0002:0016a050       _vq_lengthlist__16u0__p5_0 00000001801a2050     libvorbisenc:vorbisenc.obj
 0002:0016a198       _16u0__p7_2                00000001801a2198     libvorbisenc:vorbisenc.obj
 0002:0016a1d0       _huff_lengthlist_line_128x17_1sub1 00000001801a21d0     libvorbisenc:vorbisenc.obj
 0002:0016a3d0       _huff_book__44u7__short    00000001801a23d0     libvorbisenc:vorbisenc.obj
 0002:0016a408       _44cn1_sm_p8_0             00000001801a2408     libvorbisenc:vorbisenc.obj
 0002:0016a440       _vq_lengthlist__44u7__p6_0 00000001801a2440     libvorbisenc:vorbisenc.obj
 0002:0016a588       _vq_quantlist__44p3_p2_0   00000001801a2588     libvorbisenc:vorbisenc.obj
 0002:0016a5a0       ve_setup_X_uncoupled       00000001801a25a0     libvorbisenc:vorbisenc.obj
 0002:0016a6d0       _44pn1_p3_1                00000001801a26d0     libvorbisenc:vorbisenc.obj
 0002:0016a708       _huff_book_line_128x11_0sub0 00000001801a2708     libvorbisenc:vorbisenc.obj
 0002:0016a740       _vq_lengthlist__44c2_s_p8_1 00000001801a2740     libvorbisenc:vorbisenc.obj
 0002:0016a7a8       _8u1__p8_1                 00000001801a27a8     libvorbisenc:vorbisenc.obj
 0002:0016a7e0       _map_nominal_51            00000001801a27e0     libvorbisenc:vorbisenc.obj
 0002:0016c0f0       _huff_lengthlist__44un1__short 00000001801a40f0     libvorbisenc:vorbisenc.obj
 0002:0016c1f0       _vq_quantlist__16c1_s_p7_0 00000001801a41f0     libvorbisenc:vorbisenc.obj
 0002:0016c200       _44c2_s_p8_0               00000001801a4200     libvorbisenc:vorbisenc.obj
 0002:0016c238       _44pn1_l0_0                00000001801a4238     libvorbisenc:vorbisenc.obj
 0002:0016c270       _vq_lengthlist__44p8_l0_1  00000001801a4270     libvorbisenc:vorbisenc.obj
 0002:0016c2d8       _vq_quantlist__8c0_s_p5_0  00000001801a42d8     libvorbisenc:vorbisenc.obj
 0002:0016c300       _residue_44_low_un         00000001801a4300     libvorbisenc:vorbisenc.obj
 0002:0016ce18       _vq_quantlist__8c1_s_p1_0  00000001801a4e18     libvorbisenc:vorbisenc.obj
 0002:0016ce28       _44p4_p1_0                 00000001801a4e28     libvorbisenc:vorbisenc.obj
 0002:0016ce60       _16u2_p6_0                 00000001801a4e60     libvorbisenc:vorbisenc.obj
 0002:0016ce98       _vq_quantlist__44u6__p9_0  00000001801a4e98     libvorbisenc:vorbisenc.obj
 0002:0016ced8       _44p8_p7_0                 00000001801a4ed8     libvorbisenc:vorbisenc.obj
 0002:0016cf10       _44c5_s_p9_0               00000001801a4f10     libvorbisenc:vorbisenc.obj
 0002:0016cf48       _44c7_s_p9_0               00000001801a4f48     libvorbisenc:vorbisenc.obj
 0002:0016cf80       _vq_lengthlist__44c2_s_p4_0 00000001801a4f80     libvorbisenc:vorbisenc.obj
 0002:0016d0c8       _44c1_s_p7_0               00000001801a50c8     libvorbisenc:vorbisenc.obj
 0002:0016d100       _vq_lengthlist__44u3__p3_0 00000001801a5100     libvorbisenc:vorbisenc.obj
 0002:0016dac8       _vq_quantlist__44p9_l1_0   00000001801a5ac8     libvorbisenc:vorbisenc.obj
 0002:0016dae0       _vq_quantlist__8c0_s_p9_2  00000001801a5ae0     libvorbisenc:vorbisenc.obj
 0002:0016db38       _huff_book_line_128x7_1sub3 00000001801a5b38     libvorbisenc:vorbisenc.obj
 0002:0016db70       _vq_lengthlist__44c0_sm_p6_1 00000001801a5b70     libvorbisenc:vorbisenc.obj
 0002:0016dd58       _44p9_p7_1                 00000001801a5d58     libvorbisenc:vorbisenc.obj
 0002:0016dd90       _vq_lengthlist__44p2_p1_0  00000001801a5d90     libvorbisenc:vorbisenc.obj
 0002:0016e160       _vq_lengthlist__8c1_s_p3_0 00000001801a6160     libvorbisenc:vorbisenc.obj
 0002:0016eb28       _vq_lengthlist__44p4_p5_1  00000001801a6b28     libvorbisenc:vorbisenc.obj
 0002:0016eb48       _44u9_p7_0                 00000001801a6b48     libvorbisenc:vorbisenc.obj
 0002:0016eb80       _vq_lengthlist__44c0_s_p2_0 00000001801a6b80     libvorbisenc:vorbisenc.obj
 0002:0016f548       _44p2_l0_1                 00000001801a7548     libvorbisenc:vorbisenc.obj
 0002:0016f580       ve_setup_11_stereo         00000001801a7580     libvorbisenc:vorbisenc.obj
 0002:0016f6b0       _resbook_44u_4             00000001801a76b0     libvorbisenc:vorbisenc.obj
 0002:0016f830       _44p3_p5_0                 00000001801a7830     libvorbisenc:vorbisenc.obj
 0002:0016f868       _vq_quantlist__44c8_s_p2_0 00000001801a7868     libvorbisenc:vorbisenc.obj
 0002:0016f880       _vq_lengthlist__8c0_s_p9_1 00000001801a7880     libvorbisenc:vorbisenc.obj
 0002:0016fc08       _44p9_p3_1                 00000001801a7c08     libvorbisenc:vorbisenc.obj
 0002:0016fc40       _huff_lengthlist__44c8_s_long 00000001801a7c40     libvorbisenc:vorbisenc.obj
 0002:0016fdd0       rate_mapping_44p51         00000001801a7dd0     libvorbisenc:vorbisenc.obj
 0002:0016fe30       _vq_quantlist__44c1_s_p7_1 00000001801a7e30     libvorbisenc:vorbisenc.obj
 0002:0016fe48       _44c1_s_p2_0               00000001801a7e48     libvorbisenc:vorbisenc.obj
 0002:0016fe80       _vq_lengthlist__44p2_p7_3  00000001801a7e80     libvorbisenc:vorbisenc.obj
 0002:0016fee8       _44p1_p6_2                 00000001801a7ee8     libvorbisenc:vorbisenc.obj
 0002:0016ff20       _vq_lengthlist__8u1__p8_0  00000001801a7f20     libvorbisenc:vorbisenc.obj
 0002:00170108       _44c5_s_p7_1               00000001801a8108     libvorbisenc:vorbisenc.obj
 0002:00170140       _vq_lengthlist__16u1__p5_0 00000001801a8140     libvorbisenc:vorbisenc.obj
 0002:00170288       _huff_book_line_2048x27_2sub1 00000001801a8288     libvorbisenc:vorbisenc.obj
 0002:001702c0       _huff_lengthlist__44p3_short 00000001801a82c0     libvorbisenc:vorbisenc.obj
 0002:001703c0       _vq_lengthlist__44p8_p3_1  00000001801a83c0     libvorbisenc:vorbisenc.obj
 0002:00170790       _vq_quantlist__44p7_p6_0   00000001801a8790     libvorbisenc:vorbisenc.obj
 0002:001707a0       _vq_quantlist__44p4_p1_0   00000001801a87a0     libvorbisenc:vorbisenc.obj
 0002:001707b0       _44p3_p7_1                 00000001801a87b0     libvorbisenc:vorbisenc.obj
 0002:001707e8       _8u0__p7_2                 00000001801a87e8     libvorbisenc:vorbisenc.obj
 0002:00170820       _vq_quantlist__44c7_s_p9_2 00000001801a8820     libvorbisenc:vorbisenc.obj
 0002:001708e8       _vq_quantlist__44u2__p7_0  00000001801a88e8     libvorbisenc:vorbisenc.obj
 0002:00170910       _vq_lengthlist__44p6_p4_0  00000001801a8910     libvorbisenc:vorbisenc.obj
 0002:00170ce0       _vq_lengthlist__44p7_p6_1  00000001801a8ce0     libvorbisenc:vorbisenc.obj
 0002:001710b0       _huff_lengthlist_line_512x17_1sub0 00000001801a90b0     libvorbisenc:vorbisenc.obj
 0002:00171130       _vq_quantlist__16c2_s_p3_0 00000001801a9130     libvorbisenc:vorbisenc.obj
 0002:00171158       _44u7__p9_1                00000001801a9158     libvorbisenc:vorbisenc.obj
 0002:00171190       _huff_lengthlist__44u2__short 00000001801a9190     libvorbisenc:vorbisenc.obj
 0002:00171290       _44c8_s_p7_0               00000001801a9290     libvorbisenc:vorbisenc.obj
 0002:001712c8       _vq_quantlist__44u5__p9_0  00000001801a92c8     libvorbisenc:vorbisenc.obj
 0002:00171300       _vq_lengthlist__44c4_s_p7_0 00000001801a9300     libvorbisenc:vorbisenc.obj
 0002:00171448       quality_mapping_11         00000001801a9448     libvorbisenc:vorbisenc.obj
 0002:00171460       _vq_lengthlist__44p6_p5_0  00000001801a9460     libvorbisenc:vorbisenc.obj
 0002:00174538       _44u2__p7_0                00000001801ac538     libvorbisenc:vorbisenc.obj
 0002:00174570       _vq_lengthlist__16u2_p9_0  00000001801ac570     libvorbisenc:vorbisenc.obj
 0002:001748f8       _vq_quantlist__16u2_p2_0   00000001801ac8f8     libvorbisenc:vorbisenc.obj
 0002:00174910       _vq_lengthlist__44c4_s_p8_0 00000001801ac910     libvorbisenc:vorbisenc.obj
 0002:00174bb8       _huff_book_line_128x17_class1 00000001801acbb8     libvorbisenc:vorbisenc.obj
 0002:00174bf0       _vq_lengthlist__44p1_p3_1  00000001801acbf0     libvorbisenc:vorbisenc.obj
 0002:00177cc8       _44p1_p3_1                 00000001801afcc8     libvorbisenc:vorbisenc.obj
 0002:00177d00       _vq_lengthlist__16c0_s_p9_0 00000001801afd00     libvorbisenc:vorbisenc.obj
 0002:00177e48       _44u6__p9_2                00000001801afe48     libvorbisenc:vorbisenc.obj
 0002:00177e80       _vq_quantlist__44p9_p7_2   00000001801afe80     libvorbisenc:vorbisenc.obj
 0002:00177ee8       _44p9_p1_0                 00000001801afee8     libvorbisenc:vorbisenc.obj
 0002:00177f20       _huff_lengthlist__44c8_s_short 00000001801aff20     libvorbisenc:vorbisenc.obj
 0002:001780b0       _resbook_16s_1             00000001801b00b0     libvorbisenc:vorbisenc.obj
 0002:00178230       _vq_lengthlist__44c9_s_p5_0 00000001801b0230     libvorbisenc:vorbisenc.obj
 0002:00178378       _vq_quantlist__44c3_s_p7_0 00000001801b0378     libvorbisenc:vorbisenc.obj
 0002:00178388       _16u1__p7_0                00000001801b0388     libvorbisenc:vorbisenc.obj
 0002:001783c0       _vq_quantlist__44c1_sm_p1_0 00000001801b03c0     libvorbisenc:vorbisenc.obj
 0002:001783d0       _vq_lengthlist__44c9_s_p4_0 00000001801b03d0     libvorbisenc:vorbisenc.obj
 0002:00178858       _vq_quantlist__44u5__p7_0  00000001801b0858     libvorbisenc:vorbisenc.obj
 0002:00178868       _vq_quantlist__44p1_l0_0   00000001801b0868     libvorbisenc:vorbisenc.obj
 0002:001788a0       _vq_lengthlist__44c1_sm_p6_1 00000001801b08a0     libvorbisenc:vorbisenc.obj
 0002:00178a88       _vq_quantlist__44p4_p6_1   00000001801b0a88     libvorbisenc:vorbisenc.obj
 0002:00178a98       rate_mapping_16_uncoupled  00000001801b0a98     libvorbisenc:vorbisenc.obj
 0002:00178ab8       _vq_quantlist__16u1__p6_0  00000001801b0ab8     libvorbisenc:vorbisenc.obj
 0002:00178ae0       _huff_lengthlist__44u3__short 00000001801b0ae0     libvorbisenc:vorbisenc.obj
 0002:00178be0       _huff_lengthlist__44p4_short 00000001801b0be0     libvorbisenc:vorbisenc.obj
 0002:00178ce0       _vq_lengthlist__44u4__p2_0 00000001801b0ce0     libvorbisenc:vorbisenc.obj
 0002:00178e28       _44p0_p5_1                 00000001801b0e28     libvorbisenc:vorbisenc.obj
 0002:00178e60       _vq_quantlist__44u8_p4_0   00000001801b0e60     libvorbisenc:vorbisenc.obj
 0002:00178ea8       _vq_quantlist__44p0_p4_0   00000001801b0ea8     libvorbisenc:vorbisenc.obj
 0002:00178ec0       _vq_lengthlist__44p2_p5_0  00000001801b0ec0     libvorbisenc:vorbisenc.obj
 0002:0017bf98       _16u0__p7_1                00000001801b3f98     libvorbisenc:vorbisenc.obj
 0002:0017bfd0       _vq_lengthlist__44p2_p4_1  00000001801b3fd0     libvorbisenc:vorbisenc.obj
 0002:0017f0a8       _huff_lengthlist__44p5_lfe 00000001801b70a8     libvorbisenc:vorbisenc.obj
 0002:0017f0b8       _44u9_p7_1                 00000001801b70b8     libvorbisenc:vorbisenc.obj
 0002:0017f0f0       _vq_lengthlist__44c7_s_p7_1 00000001801b70f0     libvorbisenc:vorbisenc.obj
 0002:0017f2d8       _8c1_s_p9_1                00000001801b72d8     libvorbisenc:vorbisenc.obj
 0002:0017f310       _vq_lengthlist__44cn1_sm_p8_0 00000001801b7310     libvorbisenc:vorbisenc.obj
 0002:0017f458       _huff_book_line_1024x27_class1 00000001801b7458     libvorbisenc:vorbisenc.obj
 0002:0017f490       _res_44u_7                 00000001801b7490     libvorbisenc:vorbisenc.obj
 0002:0017f500       _vq_quantlist__44c0_sm_p8_2 00000001801b7500     libvorbisenc:vorbisenc.obj
 0002:0017f548       _psy_noiseguards_44        00000001801b7548     libvorbisenc:vorbisenc.obj
 0002:0017f578       _44c7_s_p2_0               00000001801b7578     libvorbisenc:vorbisenc.obj
 0002:0017f5b0       _res_44p51_7               00000001801b75b0     libvorbisenc:vorbisenc.obj
 0002:0017f658       _vq_quantlist__44p9_p3_1   00000001801b7658     libvorbisenc:vorbisenc.obj
 0002:0017f668       _44u8_p9_2                 00000001801b7668     libvorbisenc:vorbisenc.obj
 0002:0017f6a0       _vq_lengthlist__8c1_s_p9_1 00000001801b76a0     libvorbisenc:vorbisenc.obj
 0002:0017fa28       _mapres_template_8_uncoupled 00000001801b7a28     libvorbisenc:vorbisenc.obj
 0002:0017fa48       _vq_quantlist__16u2_p6_1   00000001801b7a48     libvorbisenc:vorbisenc.obj
 0002:0017fa60       _vq_lengthlist__16c2_s_p9_0 00000001801b7a60     libvorbisenc:vorbisenc.obj
 0002:0017fee8       _mode_template             00000001801b7ee8     libvorbisenc:vorbisenc.obj
 0002:0017ff08       _44pn1_p5_1                00000001801b7f08     libvorbisenc:vorbisenc.obj
 0002:0017ff40       _vq_lengthlist__44c6_s_p9_0 00000001801b7f40     libvorbisenc:vorbisenc.obj
 0002:001801e8       _vq_quantlist__8c1_s_p3_0  00000001801b81e8     libvorbisenc:vorbisenc.obj
 0002:00180200       _vq_quantlist__16c2_s_p9_1 00000001801b8200     libvorbisenc:vorbisenc.obj
 0002:00180250       _vq_quantlist__44p9_p5_1   00000001801b8250     libvorbisenc:vorbisenc.obj
 0002:00180270       _resbook_44u_n1            00000001801b8270     libvorbisenc:vorbisenc.obj
 0002:001803f0       _44c7_s_p4_0               00000001801b83f0     libvorbisenc:vorbisenc.obj
 0002:00180428       _vq_quantlist__44c6_s_p9_1 00000001801b8428     libvorbisenc:vorbisenc.obj
 0002:00180460       ve_setup_22_uncoupled      00000001801b8460     libvorbisenc:vorbisenc.obj
 0002:00180590       _vq_lengthlist__44p7_p4_0  00000001801b8590     libvorbisenc:vorbisenc.obj
 0002:00180960       _vq_quantlist__44c6_s_p1_0 00000001801b8960     libvorbisenc:vorbisenc.obj
 0002:00180970       _vq_quantlist__44p4_p3_1   00000001801b8970     libvorbisenc:vorbisenc.obj
 0002:00180980       _vq_quantlist__44u3__p7_1  00000001801b8980     libvorbisenc:vorbisenc.obj
 0002:001809c0       _vq_lengthlist__44c1_sm_p5_0 00000001801b89c0     libvorbisenc:vorbisenc.obj
 0002:00180e48       _vq_quantlist__44c0_s_p7_0 00000001801b8e48     libvorbisenc:vorbisenc.obj
 0002:00180e80       _vq_quantlist__44u9_p8_1   00000001801b8e80     libvorbisenc:vorbisenc.obj
 0002:00180ed8       _44un1__p6_1               00000001801b8ed8     libvorbisenc:vorbisenc.obj
 0002:00180f10       _huff_lengthlist__44p4_long 00000001801b8f10     libvorbisenc:vorbisenc.obj
 0002:00181010       _vq_quantlist__8c0_s_p9_0  00000001801b9010     libvorbisenc:vorbisenc.obj
 0002:00181020       _vq_quantlist__16c2_s_p2_0 00000001801b9020     libvorbisenc:vorbisenc.obj
 0002:00181038       _vq_quantlist__44c2_s_p1_0 00000001801b9038     libvorbisenc:vorbisenc.obj
 0002:00181048       _44c9_s_p3_0               00000001801b9048     libvorbisenc:vorbisenc.obj
 0002:00181080       _huff_lengthlist_line_2048x27_class2 00000001801b9080     libvorbisenc:vorbisenc.obj
 0002:001810a0       _vp_tonemask_adj_8         00000001801b90a0     libvorbisenc:vorbisenc.obj
 0002:00181170       _vq_lengthlist__44c4_s_p3_0 00000001801b9170     libvorbisenc:vorbisenc.obj
 0002:00181b38       _res_16u_0                 00000001801b9b38     libvorbisenc:vorbisenc.obj
 0002:00181b70       _res_44s_4                 00000001801b9b70     libvorbisenc:vorbisenc.obj
 0002:00181be0       _resbook_44s_6             00000001801b9be0     libvorbisenc:vorbisenc.obj
 0002:00181d60       _residue_44p_hi            00000001801b9d60     libvorbisenc:vorbisenc.obj
 0002:00182880       _huff_lengthlist_line_1024x27_4sub3 00000001801ba880     libvorbisenc:vorbisenc.obj
 0002:00182a80       _floor_128x7_books         00000001801baa80     libvorbisenc:vorbisenc.obj
 0002:00182ac0       _huff_lengthlist_line_256x7_1sub2 00000001801baac0     libvorbisenc:vorbisenc.obj
 0002:00182ee0       L_real_piby2_1             00000001801baee0     libucrt:cos.obj
 0002:00182ef0       L_real_piby2_1tail         00000001801baef0     libucrt:cos.obj
 0002:00182f00       L_real_piby2_2             00000001801baf00     libucrt:cos.obj
 0002:00182f10       L_real_piby2_2tail         00000001801baf10     libucrt:cos.obj
 0002:00182f20       L_one                      00000001801baf20     libucrt:cos.obj
 0002:00182f30       L_signbit                  00000001801baf30     libucrt:cos.obj
 0002:00182f40       L_int_one                  00000001801baf40     libucrt:cos.obj
 0002:00182f50       L_int_two                  00000001801baf50     libucrt:cos.obj
 0002:00182f60       L_2_by_pi                  00000001801baf60     libucrt:cos.obj
 0002:00182f68       L_one_half                 00000001801baf68     libucrt:cos.obj
 0002:00182f70       L_neg_one_half             00000001801baf70     libucrt:cos.obj
 0002:00182f78       L_two_to_neg_27            00000001801baf78     libucrt:cos.obj
 0002:00182f80       L_two_to_neg_13            00000001801baf80     libucrt:cos.obj
 0002:00182f88       L_piby4                    00000001801baf88     libucrt:cos.obj
 0002:00182f90       L_small_arg_cw             00000001801baf90     libucrt:cos.obj
 0002:00182f98       L_small_arg_bdl            00000001801baf98     libucrt:cos.obj
 0002:00182fa0       L_sign_mask                00000001801bafa0     libucrt:cos.obj
 0002:00182fa8       L__inf_mask_64             00000001801bafa8     libucrt:cos.obj
 0002:00182fb0       L_2_to_32                  00000001801bafb0     libucrt:cos.obj
 0002:00182fc0       __flag_x_nan               00000001801bafc0     libucrt:exp.obj
 0002:00182fc4       __flag_y_zero              00000001801bafc4     libucrt:exp.obj
 0002:00182fc8       __flag_y_inf               00000001801bafc8     libucrt:exp.obj
 0002:00182fd0       L__real_1_by_720           00000001801bafd0     libucrt:exp.obj
 0002:00182fe0       L__real_1_by_120           00000001801bafe0     libucrt:exp.obj
 0002:00182ff0       L__real_1_by_6             00000001801baff0     libucrt:exp.obj
 0002:00183000       L__real_1_by_2             00000001801bb000     libucrt:exp.obj
 0002:00183010       L__real_1_by_24            00000001801bb010     libucrt:exp.obj
 0002:00183020       L__log2_by_64_mtail_mhead  00000001801bb020     libucrt:exp.obj
 0002:00183030       L__ln_of_smallest_normal   00000001801bb030     libucrt:exp.obj
 0002:00183038       L__zero                    00000001801bb038     libucrt:exp.obj
 0002:00183040       L__max_exp_arg             00000001801bb040     libucrt:exp.obj
 0002:00183048       L__denormal_tiny_threshold 00000001801bb048     libucrt:exp.obj
 0002:00183050       L__min_exp_arg             00000001801bb050     libucrt:exp.obj
 0002:00183058       L__real_64_by_log2         00000001801bb058     libucrt:exp.obj
 0002:00183060       L__positive_infinity       00000001801bb060     libucrt:exp.obj
 0002:00183068       L__negative_infinity       00000001801bb068     libucrt:exp.obj
 0002:00183070       L__real_qnanbit            00000001801bb070     libucrt:exp.obj
 0002:00183078       L__real_x_near0_threshold  00000001801bb078     libucrt:exp.obj
 0002:00183080       L__log2_by_64_mhead        00000001801bb080     libucrt:exp.obj
 0002:00183088       L__log2_by_64_mtail        00000001801bb088     libucrt:exp.obj
 0002:00183090       L__real_smallest_denormal  00000001801bb090     libucrt:exp.obj
 0002:00183098       L__real_one                00000001801bb098     libucrt:exp.obj
 0002:001830a0       L__2_to_neg_26             00000001801bb0a0     libucrt:exp.obj
 0002:001830a8       L__2_to_32                 00000001801bb0a8     libucrt:exp.obj
 0002:001830b0       L__min_normal              00000001801bb0b0     libucrt:exp.obj
 0002:001830b8       L__2_to_neg_63             00000001801bb0b8     libucrt:exp.obj
 0002:001830c0       __real_ninf                00000001801bb0c0     libucrt:log.obj
 0002:001830d0       __real_inf                 00000001801bb0d0     libucrt:log.obj
 0002:001830e0       __real_neg_qnan            00000001801bb0e0     libucrt:log.obj
 0002:001830f0       __real_qnanbit             00000001801bb0f0     libucrt:log.obj
 0002:00183100       __real_min_norm            00000001801bb100     libucrt:log.obj
 0002:00183110       __real_mant                00000001801bb110     libucrt:log.obj
 0002:00183120       __mask_1023                00000001801bb120     libucrt:log.obj
 0002:00183130       __mask_001                 00000001801bb130     libucrt:log.obj
 0002:00183140       __mask_mant_all8           00000001801bb140     libucrt:log.obj
 0002:00183150       __mask_mant9               00000001801bb150     libucrt:log.obj
 0002:00183160       __real_two                 00000001801bb160     libucrt:log.obj
 0002:00183170       __real_one                 00000001801bb170     libucrt:log.obj
 0002:00183180       __real_near_one_lt         00000001801bb180     libucrt:log.obj
 0002:00183190       __real_near_one_gt         00000001801bb190     libucrt:log.obj
 0002:001831a0       __real_half                00000001801bb1a0     libucrt:log.obj
 0002:001831b0       __mask_100                 00000001801bb1b0     libucrt:log.obj
 0002:001831c0       __real_1_over_512          00000001801bb1c0     libucrt:log.obj
 0002:001831d0       __real_1_over_2            00000001801bb1d0     libucrt:log.obj
 0002:001831e0       __real_1_over_3            00000001801bb1e0     libucrt:log.obj
 0002:001831f0       __real_1_over_4            00000001801bb1f0     libucrt:log.obj
 0002:00183200       __real_1_over_5            00000001801bb200     libucrt:log.obj
 0002:00183210       __real_1_over_6            00000001801bb210     libucrt:log.obj
 0002:00183220       __mask_1023_f              00000001801bb220     libucrt:log.obj
 0002:00183230       __mask_2045                00000001801bb230     libucrt:log.obj
 0002:00183240       __real_threshold           00000001801bb240     libucrt:log.obj
 0002:00183250       __real_notsign             00000001801bb250     libucrt:log.obj
 0002:00183260       __real_ca1                 00000001801bb260     libucrt:log.obj
 0002:00183270       __real_ca2                 00000001801bb270     libucrt:log.obj
 0002:00183280       __real_ca3                 00000001801bb280     libucrt:log.obj
 0002:00183290       __real_ca4                 00000001801bb290     libucrt:log.obj
 0002:001832a0       __real_log2_lead           00000001801bb2a0     libucrt:log.obj
 0002:001832b0       __real_log2_tail           00000001801bb2b0     libucrt:log.obj
 0002:001832c0       __flag_x_zero              00000001801bb2c0     libucrt:log.obj
 0002:001832c4       __flag_x_neg               00000001801bb2c4     libucrt:log.obj
 0002:001832c8       __flag_x_nan               00000001801bb2c8     libucrt:log.obj
 0002:001832d0       __flag_x_one_y_snan        00000001801bb2d0     libucrt:pow.obj
 0002:001832d4       __flag_x_zero_z_inf        00000001801bb2d4     libucrt:pow.obj
 0002:001832d8       __flag_x_nan               00000001801bb2d8     libucrt:pow.obj
 0002:001832dc       __flag_y_nan               00000001801bb2dc     libucrt:pow.obj
 0002:001832e0       __flag_x_nan_y_nan         00000001801bb2e0     libucrt:pow.obj
 0002:001832e4       __flag_x_neg_y_notint      00000001801bb2e4     libucrt:pow.obj
 0002:001832e8       __flag_z_zero              00000001801bb2e8     libucrt:pow.obj
 0002:001832ec       __flag_z_denormal          00000001801bb2ec     libucrt:pow.obj
 0002:001832f0       __flag_z_inf               00000001801bb2f0     libucrt:pow.obj
 0002:00183300       __ay_max_bound             00000001801bb300     libucrt:pow.obj
 0002:00183308       __ay_min_bound             00000001801bb308     libucrt:pow.obj
 0002:00183310       __sign_mask                00000001801bb310     libucrt:pow.obj
 0002:00183318       __sign_and_exp_mask        00000001801bb318     libucrt:pow.obj
 0002:00183320       __exp_mask                 00000001801bb320     libucrt:pow.obj
 0002:00183328       __neg_inf                  00000001801bb328     libucrt:pow.obj
 0002:00183330       __pos_inf                  00000001801bb330     libucrt:pow.obj
 0002:00183338       __pos_one                  00000001801bb338     libucrt:pow.obj
 0002:00183340       __pos_zero                 00000001801bb340     libucrt:pow.obj
 0002:00183348       __exp_mant_mask            00000001801bb348     libucrt:pow.obj
 0002:00183350       __mant_mask                00000001801bb350     libucrt:pow.obj
 0002:00183358       __ind_pattern              00000001801bb358     libucrt:pow.obj
 0002:00183360       __neg_qnan                 00000001801bb360     libucrt:pow.obj
 0002:00183368       __qnan                     00000001801bb368     libucrt:pow.obj
 0002:00183370       __qnan_set                 00000001801bb370     libucrt:pow.obj
 0002:00183378       __neg_one                  00000001801bb378     libucrt:pow.obj
 0002:00183380       __neg_zero                 00000001801bb380     libucrt:pow.obj
 0002:00183388       __exp_shift                00000001801bb388     libucrt:pow.obj
 0002:00183390       __exp_bias                 00000001801bb390     libucrt:pow.obj
 0002:00183398       __exp_bias_m1              00000001801bb398     libucrt:pow.obj
 0002:001833a0       __yexp_53                  00000001801bb3a0     libucrt:pow.obj
 0002:001833a8       __mant_full                00000001801bb3a8     libucrt:pow.obj
 0002:001833b0       __1_before_mant            00000001801bb3b0     libucrt:pow.obj
 0002:001833b8       __mask_mant_all8           00000001801bb3b8     libucrt:pow.obj
 0002:001833c0       __mask_mant9               00000001801bb3c0     libucrt:pow.obj
 0002:001833d0       __real_fffffffff8000000    00000001801bb3d0     libucrt:pow.obj
 0002:001833e0       __mask_8000000000000000    00000001801bb3e0     libucrt:pow.obj
 0002:001833f0       __real_4090040000000000    00000001801bb3f0     libucrt:pow.obj
 0002:00183400       __real_C090C80000000000    00000001801bb400     libucrt:pow.obj
 0002:00183410       __real_ninf                00000001801bb410     libucrt:pow.obj
 0002:00183420       __real_inf                 00000001801bb420     libucrt:pow.obj
 0002:00183430       __real_nan                 00000001801bb430     libucrt:pow.obj
 0002:00183440       __real_mant                00000001801bb440     libucrt:pow.obj
 0002:00183450       __mask_1023                00000001801bb450     libucrt:pow.obj
 0002:00183460       __mask_001                 00000001801bb460     libucrt:pow.obj
 0002:00183470       __real_log2_lead           00000001801bb470     libucrt:pow.obj
 0002:00183480       __real_log2_tail           00000001801bb480     libucrt:pow.obj
 0002:00183490       __real_two                 00000001801bb490     libucrt:pow.obj
 0002:001834a0       __real_one                 00000001801bb4a0     libucrt:pow.obj
 0002:001834b0       __real_half                00000001801bb4b0     libucrt:pow.obj
 0002:001834c0       __mask_100                 00000001801bb4c0     libucrt:pow.obj
 0002:001834d0       __real_1_over_2            00000001801bb4d0     libucrt:pow.obj
 0002:001834e0       __real_1_over_3            00000001801bb4e0     libucrt:pow.obj
 0002:001834f0       __real_1_over_4            00000001801bb4f0     libucrt:pow.obj
 0002:00183500       __real_1_over_5            00000001801bb500     libucrt:pow.obj
 0002:00183510       __real_1_over_6            00000001801bb510     libucrt:pow.obj
 0002:00183520       __real_1_over_7            00000001801bb520     libucrt:pow.obj
 0002:00183530       __mask_1023_f              00000001801bb530     libucrt:pow.obj
 0002:00183540       __mask_2045                00000001801bb540     libucrt:pow.obj
 0002:00183550       __real_threshold           00000001801bb550     libucrt:pow.obj
 0002:00183560       __real_notsign             00000001801bb560     libucrt:pow.obj
 0002:00183570       __log_F_inv_head           00000001801bb570     libucrt:pow.obj
 0002:00183d80       __log_F_inv_tail           00000001801bbd80     libucrt:pow.obj
 0002:00184590       __denormal_threshold       00000001801bc590     libucrt:pow.obj
 0002:001845a0       __enable_almost_inf        00000001801bc5a0     libucrt:pow.obj
 0002:001845b0       __real_zero                00000001801bc5b0     libucrt:pow.obj
 0002:001845c0       __real_smallest_denormal   00000001801bc5c0     libucrt:pow.obj
 0002:001845d0       __denormal_tiny_threshold  00000001801bc5d0     libucrt:pow.obj
 0002:001845e0       __real_p65536              00000001801bc5e0     libucrt:pow.obj
 0002:001845f0       __real_m68800              00000001801bc5f0     libucrt:pow.obj
 0002:00184600       __real_64_by_log2          00000001801bc600     libucrt:pow.obj
 0002:00184610       __real_log2_by_64_head     00000001801bc610     libucrt:pow.obj
 0002:00184620       __real_log2_by_64_tail     00000001801bc620     libucrt:pow.obj
 0002:00184630       __real_1_by_720            00000001801bc630     libucrt:pow.obj
 0002:00184640       __real_1_by_120            00000001801bc640     libucrt:pow.obj
 0002:00184650       __real_1_by_24             00000001801bc650     libucrt:pow.obj
 0002:00184660       __real_1_by_6              00000001801bc660     libucrt:pow.obj
 0002:00184670       __real_1_by_2              00000001801bc670     libucrt:pow.obj
 0002:00184680       L_real_piby2_1             00000001801bc680     libucrt:sin.obj
 0002:00184690       L_real_piby2_1tail         00000001801bc690     libucrt:sin.obj
 0002:001846a0       L_real_piby2_2             00000001801bc6a0     libucrt:sin.obj
 0002:001846b0       L_real_piby2_2tail         00000001801bc6b0     libucrt:sin.obj
 0002:001846c0       L_one                      00000001801bc6c0     libucrt:sin.obj
 0002:001846d0       L_signbit                  00000001801bc6d0     libucrt:sin.obj
 0002:001846e0       L_int_one                  00000001801bc6e0     libucrt:sin.obj
 0002:001846f0       L_int_two                  00000001801bc6f0     libucrt:sin.obj
 0002:00184700       L_int_three                00000001801bc700     libucrt:sin.obj
 0002:00184710       L_2_by_pi                  00000001801bc710     libucrt:sin.obj
 0002:00184718       L_one_half                 00000001801bc718     libucrt:sin.obj
 0002:00184720       L_one_sixth                00000001801bc720     libucrt:sin.obj
 0002:00184728       L_two_to_neg_27            00000001801bc728     libucrt:sin.obj
 0002:00184730       L_two_to_neg_13            00000001801bc730     libucrt:sin.obj
 0002:00184738       L_piby4                    00000001801bc738     libucrt:sin.obj
 0002:00184740       L_small_arg_cw             00000001801bc740     libucrt:sin.obj
 0002:00184748       L_small_arg_bdl            00000001801bc748     libucrt:sin.obj
 0002:00184750       L__inf_mask_64             00000001801bc750     libucrt:sin.obj
 0002:00184758       L_near_one                 00000001801bc758     libucrt:sin.obj
 0002:00184820       L__piby2_part3_piby2_lead  00000001801bc820     libucrt:remainder_piby2_forasm.obj
 0002:00184830       L__piby2_part1             00000001801bc830     libucrt:remainder_piby2_forasm.obj
 0002:00184840       L__piby2_part2             00000001801bc840     libucrt:remainder_piby2_forasm.obj
 0002:00184850       L_piby2_1                  00000001801bc850     libucrt:remainder_piby2_forasm.obj
 0002:00184860       L_piby2_2                  00000001801bc860     libucrt:remainder_piby2_forasm.obj
 0002:00184870       L_piby2_3                  00000001801bc870     libucrt:remainder_piby2_forasm.obj
 0002:00184880       L_piby2_1tail              00000001801bc880     libucrt:remainder_piby2_forasm.obj
 0002:00184890       L_piby2_2tail              00000001801bc890     libucrt:remainder_piby2_forasm.obj
 0002:001848a0       L_piby2_3tail              00000001801bc8a0     libucrt:remainder_piby2_forasm.obj
 0002:001848b0       L_twobypi                  00000001801bc8b0     libucrt:remainder_piby2_forasm.obj
 0002:001848c0       L_point_five               00000001801bc8c0     libucrt:remainder_piby2_forasm.obj
 0002:001848d0       L_int_three                00000001801bc8d0     libucrt:remainder_piby2_forasm.obj
 0002:001848e0       L_inf_mask_64              00000001801bc8e0     libucrt:remainder_piby2_forasm.obj
 0002:001848f0       L_signbit                  00000001801bc8f0     libucrt:remainder_piby2_forasm.obj
 0002:00184900       L_int_1                    00000001801bc900     libucrt:remainder_piby2_forasm.obj
 0002:00184910       L_int_15                   00000001801bc910     libucrt:remainder_piby2_forasm.obj
 0002:00184918       L_int_48                   00000001801bc918     libucrt:remainder_piby2_forasm.obj
 0002:00184920       L_3pio4                    00000001801bc920     libucrt:remainder_piby2_forasm.obj
 0002:00184928       L_5pio4                    00000001801bc928     libucrt:remainder_piby2_forasm.obj
 0002:00184930       L_7pio4                    00000001801bc930     libucrt:remainder_piby2_forasm.obj
 0002:00184938       L_9pio4                    00000001801bc938     libucrt:remainder_piby2_forasm.obj
 0002:00184940       L__2_by_pi_bits            00000001801bc940     libucrt:remainder_piby2_forasm.obj
 0002:001849e0       L_piby2_lead               00000001801bc9e0     libucrt:remainder_piby2_forfma3.obj
 0002:001849f0       L_fff800                   00000001801bc9f0     libucrt:remainder_piby2_forfma3.obj
 0002:00184a00       L_piby2_part1              00000001801bca00     libucrt:remainder_piby2_forfma3.obj
 0002:00184a10       L_piby2_part2              00000001801bca10     libucrt:remainder_piby2_forfma3.obj
 0002:00184a20       L_piby2_part3              00000001801bca20     libucrt:remainder_piby2_forfma3.obj
 0002:00184a30       L_piby2_1                  00000001801bca30     libucrt:remainder_piby2_forfma3.obj
 0002:00184a40       L_piby2_2                  00000001801bca40     libucrt:remainder_piby2_forfma3.obj
 0002:00184a50       L_piby2_3                  00000001801bca50     libucrt:remainder_piby2_forfma3.obj
 0002:00184a60       L_piby2_1tail              00000001801bca60     libucrt:remainder_piby2_forfma3.obj
 0002:00184a70       L_piby2_2tail              00000001801bca70     libucrt:remainder_piby2_forfma3.obj
 0002:00184a80       L_piby2_3tail              00000001801bca80     libucrt:remainder_piby2_forfma3.obj
 0002:00184a90       L_sign_mask                00000001801bca90     libucrt:remainder_piby2_forfma3.obj
 0002:00184aa0       L_twobypi                  00000001801bcaa0     libucrt:remainder_piby2_forfma3.obj
 0002:00184ab0       L_point_five               00000001801bcab0     libucrt:remainder_piby2_forfma3.obj
 0002:00184ac0       L_int_three                00000001801bcac0     libucrt:remainder_piby2_forfma3.obj
 0002:00184ad0       L_inf_mask_64              00000001801bcad0     libucrt:remainder_piby2_forfma3.obj
 0002:00184ae0       L_signbit                  00000001801bcae0     libucrt:remainder_piby2_forfma3.obj
 0002:00184af0       L_r                        00000001801bcaf0     libucrt:remainder_piby2_forfma3.obj
 0002:00184b00       L_xc1                      00000001801bcb00     libucrt:remainder_piby2_forfma3.obj
 0002:00184b10       L_xc2                      00000001801bcb10     libucrt:remainder_piby2_forfma3.obj
 0002:00184b20       L_xc3                      00000001801bcb20     libucrt:remainder_piby2_forfma3.obj
 0002:00184b30       L_sigma                    00000001801bcb30     libucrt:remainder_piby2_forfma3.obj
 0002:00186840       $unwind$?FunctionCallbackWrapper@imp@Nan@@YAXAEBV?$FunctionCallbackInfo@VValue@v8@@@v8@@@Z 00000001801be840     binding.obj
 0002:00186854       $unwind$?Call@Callback@Nan@@QEBA?AV?$MaybeLocal@VValue@v8@@@v8@@HQEAV?$Local@VValue@v8@@@4@PEAVAsyncResource@2@@Z 00000001801be854     binding.obj
 0002:00186868       $unwind$??0AsyncWorker@Nan@@QEAA@PEAVCallback@1@PEBD@Z 00000001801be868     binding.obj
 0002:00186878       $unwind$??1AsyncWorker@Nan@@UEAA@XZ 00000001801be878     binding.obj
 0002:00186884       $unwind$isdigit            00000001801be884     libucrt:_ctype.obj
 0002:00186884       $unwind$_mbsdec_l          00000001801be884     libucrt:mbsdec.obj
 0002:00186884       $unwind$?WorkComplete@AsyncWorker@Nan@@UEAAXXZ 00000001801be884     binding.obj
 0002:00186890       $unwind$?HandleOKCallback@AsyncWorker@Nan@@MEAAXXZ 00000001801be890     binding.obj
 0002:00186898       $unwind$?HandleErrorCallback@AsyncWorker@Nan@@MEAAXXZ 00000001801be898     binding.obj
 0002:001868a4       $unwind$__acrt_can_show_message_box 00000001801be8a4     libucrt:winapi_thunks.obj
 0002:001868a4       $unwind$_realloc_base      00000001801be8a4     libucrt:realloc_base.obj
 0002:001868a4       $unwind$__acrt_LocaleNameToLCID 00000001801be8a4     libucrt:winapi_thunks.obj
 0002:001868a4       $unwind$__acrt_FlsSetValue 00000001801be8a4     libucrt:winapi_thunks.obj
 0002:001868a4       $unwind$__acrt_uninitialize_lowio 00000001801be8a4     libucrt:ioinit.obj
 0002:001868a4       $unwind$__acrt_execute_uninitializers 00000001801be8a4     libucrt:shared_initialization.obj
 0002:001868a4       $unwind$__vcrt_FlsSetValue 00000001801be8a4     libvcruntime:winapi_downlevel.obj
 0002:001868a4       $unwind$__acrt_stdio_begin_temporary_buffering_nolock 00000001801be8a4     libucrt:_sftbuf.obj
 0002:001868a4       $unwind$??_GSynthesisIdheaderWorker@nodevorbis@@UEAAPEAXI@Z 00000001801be8a4     binding.obj
 0002:001868a4       $unwind$floor0_look        00000001801be8a4     libvorbis:floor0.obj
 0002:001868a4       $unwind$?replace_current_thread_locale_nolock@@YAXQEAU__acrt_ptd@@QEAU__crt_locale_data@@@Z 00000001801be8a4     libucrt:per_thread_data.obj
 0002:001868a4       $unwind$?DloadGetSRWLockFunctionPointers@@YAEXZ 00000001801be8a4     DelayImp:delayhlp.obj
 0002:001868a4       $unwind$_close_nolock      00000001801be8a4     libucrt:close.obj
 0002:001868a4       $unwind$__acrt_stdio_allocate_buffer_nolock 00000001801be8a4     libucrt:_getbuf.obj
 0002:001868a4       $unwind$_fclose_nolock     00000001801be8a4     libucrt:fclose.obj
 0002:001868a4       $unwind$_updatetlocinfoEx_nolock 00000001801be8a4     libucrt:locale_refcounting.obj
 0002:001868a4       $unwind$__acrt_fp_strflt_to_string 00000001801be8a4     libucrt:_fptostr.obj
 0002:001868a4       $unwind$_RTC_Terminate     00000001801be8a4     LIBCMT:initsect.obj
 0002:001868a4       $unwind$_RTC_Initialize    00000001801be8a4     LIBCMT:initsect.obj
 0002:001868a4       $unwind$strncpy_s          00000001801be8a4     libucrt:strncpy_s.obj
 0002:001868a4       $unwind$??_Gbad_array_new_length@std@@UEAAPEAXI@Z 00000001801be8a4     LIBCMT:throw_bad_alloc.obj
 0002:001868a4       $unwind$??_Gbad_alloc@std@@UEAAPEAXI@Z 00000001801be8a4     LIBCMT:throw_bad_alloc.obj
 0002:001868a4       $unwind$??_Gexception@std@@UEAAPEAXI@Z 00000001801be8a4     LIBCMT:throw_bad_alloc.obj
 0002:001868a4       $unwind$?Execute@AnalysisWriteWorker@nodevorbis@@UEAAXXZ 00000001801be8a4     binding.obj
 0002:001868a4       $unwind$??_GAnalysisWriteWorker@nodevorbis@@UEAAPEAXI@Z 00000001801be8a4     binding.obj
 0002:001868a4       $unwind$wcsncat_s          00000001801be8a4     libucrt:wcsncat_s.obj
 0002:001868a4       $unwind$__acrt_errno_map_os_error 00000001801be8a4     libucrt:errno.obj
 0002:001868a4       $unwind$??_GAnalysisBlockoutWorker@nodevorbis@@UEAAPEAXI@Z 00000001801be8a4     binding.obj
 0002:001868a4       $unwind$?force_decimal_point@__crt_stdio_output@@YAXPEADQEAU__crt_locale_pointers@@@Z 00000001801be8a4     libucrt:output.obj
 0002:001868a4       $unwind$??_GBitrateFlushpacketWorker@nodevorbis@@UEAAPEAXI@Z 00000001801be8a4     binding.obj
 0002:001868a4       $unwind$??$common_initialize_environment_nolock@D@@YAHXZ 00000001801be8a4     libucrt:environment_initialization.obj
 0002:001868a4       $unwind$_initterm_e        00000001801be8a4     libucrt:initterm.obj
 0002:001868a4       $unwind$_book_maptype1_quantvals 00000001801be8a4     libvorbis:sharedbook.obj
 0002:001868a4       $unwind$??_GAsyncWorker@Nan@@UEAAPEAXI@Z 00000001801be8a4     binding.obj
 0002:001868a4       $unwind$??_GSynthesisHeaderinWorker@nodevorbis@@UEAAPEAXI@Z 00000001801be8a4     binding.obj
 0002:001868b0       $unwind$_clrfp             00000001801be8b0     libucrt:fpctrl.obj
 0002:001868b0       $unwind$_set_statfp        00000001801be8b0     libucrt:fpctrl.obj
 0002:001868b0       $unwind$__acrt_initialize_locks 00000001801be8b0     libucrt:locks.obj
 0002:001868b0       $unwind$__acrt_uninitialize_locks 00000001801be8b0     libucrt:locks.obj
 0002:001868b0       $unwind$__acrt_get_process_end_policy 00000001801be8b0     libucrt:win_policies.obj
 0002:001868b0       $unwind$__acrt_get_developer_information_policy 00000001801be8b0     libucrt:win_policies.obj
 0002:001868b0       $unwind$__acrt_get_windowing_model_policy 00000001801be8b0     libucrt:win_policies.obj
 0002:001868b0       $unwind$?Execute@AnalysisBlockoutWorker@nodevorbis@@UEAAXXZ 00000001801be8b0     binding.obj
 0002:001868b0       $unwind$__scrt_initialize_onexit_tables 00000001801be8b0     LIBCMT:utility.obj
 0002:001868b0       $unwind$__scrt_uninitialize_crt 00000001801be8b0     LIBCMT:utility.obj
 0002:001868b0       $unwind$__scrt_initialize_crt 00000001801be8b0     LIBCMT:utility.obj
 0002:001868b0       $unwind$fegetenv           00000001801be8b0     libucrt:fegetenv.obj
 0002:001868b0       $unwind$?try_cor_exit_process@@YAXI@Z 00000001801be8b0     libucrt:exit.obj
 0002:001868b0       $unwind$__acrt_uninitialize_winapi_thunks 00000001801be8b0     libucrt:winapi_thunks.obj
 0002:001868b0       $unwind$__acrt_FlsAlloc    00000001801be8b0     libucrt:winapi_thunks.obj
 0002:001868b0       $unwind$__acrt_FlsFree     00000001801be8b0     libucrt:winapi_thunks.obj
 0002:001868b0       $unwind$__acrt_FlsGetValue 00000001801be8b0     libucrt:winapi_thunks.obj
 0002:001868b0       $unwind$__acrt_AppPolicyGetProcessTerminationMethodInternal 00000001801be8b0     libucrt:winapi_thunks.obj
 0002:001868b0       $unwind$__acrt_allocate_buffer_for_argv 00000001801be8b0     libucrt:argv_parsing.obj
 0002:001868b0       $unwind$__acrt_AppPolicyGetWindowingModelInternal 00000001801be8b0     libucrt:winapi_thunks.obj
 0002:001868b0       $unwind$_calloc_base       00000001801be8b0     libucrt:calloc_base.obj
 0002:001868b0       $unwind$__acrt_get_parent_window 00000001801be8b0     libucrt:winapi_thunks.obj
 0002:001868b0       $unwind$__scrt_release_startup_lock 00000001801be8b0     LIBCMT:utility.obj
 0002:001868b0       $unwind$?exit_or_terminate_process@@YAXI@Z 00000001801be8b0     libucrt:exit.obj
 0002:001868b0       $unwind$__acrt_update_multibyte_info 00000001801be8b0     libucrt:locale_update.obj
 0002:001868b0       $unwind$??0bad_array_new_length@std@@QEAA@AEBV01@@Z 00000001801be8b0     LIBCMT:throw_bad_alloc.obj
 0002:001868b0       $unwind$__acrt_update_locale_info 00000001801be8b0     libucrt:locale_update.obj
 0002:001868b0       $unwind$??0bad_alloc@std@@QEAA@AEBV01@@Z 00000001801be8b0     LIBCMT:throw_bad_alloc.obj
 0002:001868b0       $unwind$feholdexcept       00000001801be8b0     libucrt:feholdexcept.obj
 0002:001868b0       $unwind$??0exception@std@@QEAA@AEBV01@@Z 00000001801be8b0     LIBCMT:throw_bad_alloc.obj
 0002:001868b0       $unwind$__raise_securityfailure 00000001801be8b0     LIBCMT:gs_report.obj
 0002:001868b0       $unwind$strcpy_s           00000001801be8b0     libucrt:strcpy_s.obj
 0002:001868b0       $unwind$?AsyncExecuteComplete@Nan@@YAXPEAUuv_work_s@@@Z 00000001801be8b0     binding.obj
 0002:001868b0       $unwind$?internal_isupper_l@@YA_NHQEAU__crt_locale_pointers@@@Z 00000001801be8b0     libucrt:tolower_toupper.obj
 0002:001868b0       $unwind$uninitialize_allocated_memory 00000001801be8b0     libucrt:initialization.obj
 0002:001868b0       $unwind$initialize_pointers 00000001801be8b0     libucrt:initialization.obj
 0002:001868b0       $unwind$__vcrt_FlsAlloc    00000001801be8b0     libvcruntime:winapi_downlevel.obj
 0002:001868b0       $unwind$?stream_is_at_end_of_file_nolock@@YA_NV__crt_stdio_stream@@@Z 00000001801be8b0     libucrt:_flsbuf.obj
 0002:001868b0       $unwind$__acrt_freeptd     00000001801be8b0     libucrt:per_thread_data.obj
 0002:001868b0       $unwind$__acrt_getptd_head 00000001801be8b0     libucrt:per_thread_data.obj
 0002:001868b0       $unwind$_malloc_base       00000001801be8b0     libucrt:malloc_base.obj
 0002:001868b0       $unwind$fesetenv           00000001801be8b0     libucrt:fesetenv.obj
 0002:001868b0       $unwind$?DloadAcquireSectionWriteAccess@@YAXXZ 00000001801be8b0     DelayImp:delayhlp.obj
 0002:001868b0       $unwind$??2@YAPEAX_K@Z     00000001801be8b0     LIBCMT:new_scalar.obj
 0002:001868b0       $unwind$_fflush_nolock     00000001801be8b0     libucrt:fflush.obj
 0002:001868b0       $unwind$?Execute@SynthesisHeaderinWorker@nodevorbis@@UEAAXXZ 00000001801be8b0     binding.obj
 0002:001868b0       $unwind$__vcrt_FlsGetValue 00000001801be8b0     libvcruntime:winapi_downlevel.obj
 0002:001868b0       $unwind$__vcrt_FlsFree     00000001801be8b0     libvcruntime:winapi_downlevel.obj
 0002:001868b0       $unwind$_callnewh          00000001801be8b0     libucrt:new_handler.obj
 0002:001868b0       $unwind$__vcrt_uninitialize_locks 00000001801be8b0     libvcruntime:locks.obj
 0002:001868b0       $unwind$__vcrt_initialize_locks 00000001801be8b0     libvcruntime:locks.obj
 0002:001868b0       $unwind$__vcrt_freeptd     00000001801be8b0     libvcruntime:per_thread_data.obj
 0002:001868b0       $unwind$_clearfp           00000001801be8b0     libucrt:ieee.obj
 0002:001868b0       $unwind$__acrt_stdio_free_buffer_nolock 00000001801be8b0     libucrt:_freebuf.obj
 0002:001868b0       $unwind$__acrt_AppPolicyGetShowDeveloperDiagnosticInternal 00000001801be8b0     libucrt:winapi_thunks.obj
 0002:001868b0       $unwind$__acrt_uninitialize_stdio 00000001801be8b0     libucrt:_file.obj
 0002:001868b0       $unwind$__std_type_info_destroy_list 00000001801be8b0     libvcruntime:std_type_info.obj
 0002:001868b0       $unwind$wcscpy_s           00000001801be8b0     libucrt:wcscpy_s.obj
 0002:001868b0       $unwind$__std_exception_destroy 00000001801be8b0     libvcruntime:std_exception.obj
 0002:001868b0       $unwind$wcscat_s           00000001801be8b0     libucrt:wcscat_s.obj
 0002:001868b0       $unwind$??_Gtype_info@@UEAAPEAXI@Z 00000001801be8b0     LIBCMT:std_type_info_static.obj
 0002:001868b8       $unwind$?getSystemCP@@YAHH@Z 00000001801be8b8     libucrt:mbctype.obj
 0002:001868b8       $unwind$?node_vorbis_comment_init@nodevorbis@@YAXAEBV?$FunctionCallbackInfo@VValue@v8@@@Nan@@@Z 00000001801be8b8     binding.obj
 0002:001868b8       $unwind$?node_vorbis_info_init@nodevorbis@@YAXAEBV?$FunctionCallbackInfo@VValue@v8@@@Nan@@@Z 00000001801be8b8     binding.obj
 0002:001868b8       $unwind$_isleadbyte_l      00000001801be8b8     libucrt:_wctype.obj
 0002:001868b8       $unwind$__dcrt_lowio_ensure_console_output_initialized 00000001801be8b8     libucrt:initcon.obj
 0002:001868c0       $unwind$?node_vorbis_block_init@nodevorbis@@YAXAEBV?$FunctionCallbackInfo@VValue@v8@@@Nan@@@Z 00000001801be8c0     binding.obj
 0002:001868c0       $unwind$?node_vorbis_synthesis_init@nodevorbis@@YAXAEBV?$FunctionCallbackInfo@VValue@v8@@@Nan@@@Z 00000001801be8c0     binding.obj
 0002:001868d0       $unwind$?node_vorbis_analysis_init@nodevorbis@@YAXAEBV?$FunctionCallbackInfo@VValue@v8@@@Nan@@@Z 00000001801be8d0     binding.obj
 0002:001868dc       $chain$3$?node_vorbis_analysis_init@nodevorbis@@YAXAEBV?$FunctionCallbackInfo@VValue@v8@@@Nan@@@Z 00000001801be8dc     binding.obj
 0002:001868fc       $chain$4$?node_vorbis_analysis_init@nodevorbis@@YAXAEBV?$FunctionCallbackInfo@VValue@v8@@@Nan@@@Z 00000001801be8fc     binding.obj
 0002:00186910       $chain$6$?node_vorbis_analysis_init@nodevorbis@@YAXAEBV?$FunctionCallbackInfo@VValue@v8@@@Nan@@@Z 00000001801be910     binding.obj
 0002:00186928       $chain$7$?node_vorbis_analysis_init@nodevorbis@@YAXAEBV?$FunctionCallbackInfo@VValue@v8@@@Nan@@@Z 00000001801be928     binding.obj
 0002:00186938       $chain$8$?node_vorbis_analysis_init@nodevorbis@@YAXAEBV?$FunctionCallbackInfo@VValue@v8@@@Nan@@@Z 00000001801be938     binding.obj
 0002:00186948       $chain$9$?node_vorbis_analysis_init@nodevorbis@@YAXAEBV?$FunctionCallbackInfo@VValue@v8@@@Nan@@@Z 00000001801be948     binding.obj
 0002:0018695c       $chain$10$?node_vorbis_analysis_init@nodevorbis@@YAXAEBV?$FunctionCallbackInfo@VValue@v8@@@Nan@@@Z 00000001801be95c     binding.obj
 0002:0018696c       $unwind$?node_vorbis_encode_init_vbr@nodevorbis@@YAXAEBV?$FunctionCallbackInfo@VValue@v8@@@Nan@@@Z 00000001801be96c     binding.obj
 0002:0018697c       $unwind$?node_comment_array@nodevorbis@@YAXAEBV?$FunctionCallbackInfo@VValue@v8@@@Nan@@@Z 00000001801be97c     binding.obj
 0002:00186988       $chain$4$?node_comment_array@nodevorbis@@YAXAEBV?$FunctionCallbackInfo@VValue@v8@@@Nan@@@Z 00000001801be988     binding.obj
 0002:001869ac       $chain$5$?node_comment_array@nodevorbis@@YAXAEBV?$FunctionCallbackInfo@VValue@v8@@@Nan@@@Z 00000001801be9ac     binding.obj
 0002:001869c0       $chain$6$?node_comment_array@nodevorbis@@YAXAEBV?$FunctionCallbackInfo@VValue@v8@@@Nan@@@Z 00000001801be9c0     binding.obj
 0002:001869d4       $chain$7$?node_comment_array@nodevorbis@@YAXAEBV?$FunctionCallbackInfo@VValue@v8@@@Nan@@@Z 00000001801be9d4     binding.obj
 0002:001869e4       $chain$8$?node_comment_array@nodevorbis@@YAXAEBV?$FunctionCallbackInfo@VValue@v8@@@Nan@@@Z 00000001801be9e4     binding.obj
 0002:001869f4       $chain$9$?node_comment_array@nodevorbis@@YAXAEBV?$FunctionCallbackInfo@VValue@v8@@@Nan@@@Z 00000001801be9f4     binding.obj
 0002:00186a04       $unwind$?node_get_format@nodevorbis@@YAXAEBV?$FunctionCallbackInfo@VValue@v8@@@Nan@@@Z 00000001801bea04     binding.obj
 0002:00186a20       $unwind$?node_vorbis_analysis_headerout@nodevorbis@@YAXAEBV?$FunctionCallbackInfo@VValue@v8@@@Nan@@@Z 00000001801bea20     binding.obj
 0002:00186a34       $unwind$?HandleOKCallback@AnalysisBlockoutWorker@nodevorbis@@UEAAXXZ 00000001801bea34     binding.obj
 0002:00186a34       $unwind$?HandleOKCallback@AnalysisWriteWorker@nodevorbis@@UEAAXXZ 00000001801bea34     binding.obj
 0002:00186a34       $unwind$?HandleOKCallback@BitrateFlushpacketWorker@nodevorbis@@UEAAXXZ 00000001801bea34     binding.obj
 0002:00186a34       $unwind$?HandleOKCallback@SynthesisHeaderinWorker@nodevorbis@@UEAAXXZ 00000001801bea34     binding.obj
 0002:00186a40       $unwind$?node_vorbis_analysis_write@nodevorbis@@YAXAEBV?$FunctionCallbackInfo@VValue@v8@@@Nan@@@Z 00000001801bea40     binding.obj
 0002:00186a5c       $unwind$?node_vorbis_analysis_blockout@nodevorbis@@YAXAEBV?$FunctionCallbackInfo@VValue@v8@@@Nan@@@Z 00000001801bea5c     binding.obj
 0002:00186a5c       $unwind$?node_vorbis_bitrate_flushpacket@nodevorbis@@YAXAEBV?$FunctionCallbackInfo@VValue@v8@@@Nan@@@Z 00000001801bea5c     binding.obj
 0002:00186a74       $unwind$?node_vorbis_analysis_eos@nodevorbis@@YAXAEBV?$FunctionCallbackInfo@VValue@v8@@@Nan@@@Z 00000001801bea74     binding.obj
 0002:00186a74       $unwind$?node_vorbis_bitrate_addblock@nodevorbis@@YAXAEBV?$FunctionCallbackInfo@VValue@v8@@@Nan@@@Z 00000001801bea74     binding.obj
 0002:00186a80       $unwind$?node_vorbis_analysis@nodevorbis@@YAXAEBV?$FunctionCallbackInfo@VValue@v8@@@Nan@@@Z 00000001801bea80     binding.obj
 0002:00186a88       $chain$0$?node_vorbis_analysis@nodevorbis@@YAXAEBV?$FunctionCallbackInfo@VValue@v8@@@Nan@@@Z 00000001801bea88     binding.obj
 0002:00186a9c       $chain$4$?node_vorbis_analysis@nodevorbis@@YAXAEBV?$FunctionCallbackInfo@VValue@v8@@@Nan@@@Z 00000001801bea9c     binding.obj
 0002:00186abc       $chain$5$?node_vorbis_analysis@nodevorbis@@YAXAEBV?$FunctionCallbackInfo@VValue@v8@@@Nan@@@Z 00000001801beabc     binding.obj
 0002:00186ad8       $chain$6$?node_vorbis_analysis@nodevorbis@@YAXAEBV?$FunctionCallbackInfo@VValue@v8@@@Nan@@@Z 00000001801bead8     binding.obj
 0002:00186aec       $chain$7$?node_vorbis_analysis@nodevorbis@@YAXAEBV?$FunctionCallbackInfo@VValue@v8@@@Nan@@@Z 00000001801beaec     binding.obj
 0002:00186afc       $unwind$?Execute@BitrateFlushpacketWorker@nodevorbis@@UEAAXXZ 00000001801beafc     binding.obj
 0002:00186b10       $chain$1$?Execute@BitrateFlushpacketWorker@nodevorbis@@UEAAXXZ 00000001801beb10     binding.obj
 0002:00186b24       $chain$2$?Execute@BitrateFlushpacketWorker@nodevorbis@@UEAAXXZ 00000001801beb24     binding.obj
 0002:00186b34       $unwind$?Execute@SynthesisIdheaderWorker@nodevorbis@@UEAAXXZ 00000001801beb34     binding.obj
 0002:00186b48       $chain$0$?Execute@SynthesisIdheaderWorker@nodevorbis@@UEAAXXZ 00000001801beb48     binding.obj
 0002:00186b5c       $chain$1$?Execute@SynthesisIdheaderWorker@nodevorbis@@UEAAXXZ 00000001801beb5c     binding.obj
 0002:00186b6c       $unwind$?HandleOKCallback@SynthesisIdheaderWorker@nodevorbis@@UEAAXXZ 00000001801beb6c     binding.obj
 0002:00186b78       $unwind$?node_vorbis_synthesis_idheader@nodevorbis@@YAXAEBV?$FunctionCallbackInfo@VValue@v8@@@Nan@@@Z 00000001801beb78     binding.obj
 0002:00186b8c       $unwind$?node_vorbis_synthesis_headerin@nodevorbis@@YAXAEBV?$FunctionCallbackInfo@VValue@v8@@@Nan@@@Z 00000001801beb8c     binding.obj
 0002:00186ba4       $unwind$?node_vorbis_synthesis_blockin@nodevorbis@@YAXAEBV?$FunctionCallbackInfo@VValue@v8@@@Nan@@@Z 00000001801beba4     binding.obj
 0002:00186ba4       $unwind$?node_vorbis_synthesis@nodevorbis@@YAXAEBV?$FunctionCallbackInfo@VValue@v8@@@Nan@@@Z 00000001801beba4     binding.obj
 0002:00186bb4       $unwind$?node_vorbis_synthesis_pcmout@nodevorbis@@YAXAEBV?$FunctionCallbackInfo@VValue@v8@@@Nan@@@Z 00000001801bebb4     binding.obj
 0002:00186bc0       $chain$4$?node_vorbis_synthesis_pcmout@nodevorbis@@YAXAEBV?$FunctionCallbackInfo@VValue@v8@@@Nan@@@Z 00000001801bebc0     binding.obj
 0002:00186be4       $chain$5$?node_vorbis_synthesis_pcmout@nodevorbis@@YAXAEBV?$FunctionCallbackInfo@VValue@v8@@@Nan@@@Z 00000001801bebe4     binding.obj
 0002:00186bf8       $chain$6$?node_vorbis_synthesis_pcmout@nodevorbis@@YAXAEBV?$FunctionCallbackInfo@VValue@v8@@@Nan@@@Z 00000001801bebf8     binding.obj
 0002:00186c0c       $chain$7$?node_vorbis_synthesis_pcmout@nodevorbis@@YAXAEBV?$FunctionCallbackInfo@VValue@v8@@@Nan@@@Z 00000001801bec0c     binding.obj
 0002:00186c1c       $chain$8$?node_vorbis_synthesis_pcmout@nodevorbis@@YAXAEBV?$FunctionCallbackInfo@VValue@v8@@@Nan@@@Z 00000001801bec1c     binding.obj
 0002:00186c2c       $chain$9$?node_vorbis_synthesis_pcmout@nodevorbis@@YAXAEBV?$FunctionCallbackInfo@VValue@v8@@@Nan@@@Z 00000001801bec2c     binding.obj
 0002:00186c3c       $unwind$?Initialize@nodevorbis@@YAXV?$Local@VObject@v8@@@v8@@@Z 00000001801bec3c     binding.obj
 0002:00186c50       $unwind$??$SetMethod@VObject@v8@@VLocal@2@@Nan@@YAXV?$Local@VObject@v8@@@v8@@PEBDP6AXAEBV?$FunctionCallbackInfo@VValue@v8@@@0@@Z@Z 00000001801bec50     binding.obj
 0002:00186c5c       $chain$3$??$SetMethod@VObject@v8@@VLocal@2@@Nan@@YAXV?$Local@VObject@v8@@@v8@@PEBDP6AXAEBV?$FunctionCallbackInfo@VValue@v8@@@0@@Z@Z 00000001801bec5c     binding.obj
 0002:00186c7c       $chain$4$??$SetMethod@VObject@v8@@VLocal@2@@Nan@@YAXV?$Local@VObject@v8@@@v8@@PEBDP6AXAEBV?$FunctionCallbackInfo@VValue@v8@@@0@@Z@Z 00000001801bec7c     binding.obj
 0002:00186c90       $chain$5$??$SetMethod@VObject@v8@@VLocal@2@@Nan@@YAXV?$Local@VObject@v8@@@v8@@PEBDP6AXAEBV?$FunctionCallbackInfo@VValue@v8@@@0@@Z@Z 00000001801bec90     binding.obj
 0002:00186ca0       $chain$6$??$SetMethod@VObject@v8@@VLocal@2@@Nan@@YAXV?$Local@VObject@v8@@@v8@@PEBDP6AXAEBV?$FunctionCallbackInfo@VValue@v8@@@0@@Z@Z 00000001801beca0     binding.obj
 0002:00186cb0       $unwind$??$SetMethodAux@V?$Local@VObject@v8@@@v8@@@imp@Nan@@YAXV?$Local@VObject@v8@@@v8@@V?$Local@VString@v8@@@3@V?$Local@VFunctionTemplate@v8@@@3@ZZ 00000001801becb0     binding.obj
 0002:00186cc0       $unwind$__report_rangecheckfailure 00000001801becc0     LIBCMT:gs_report.obj
 0002:00186cc0       $unwind$??$uninitialize_environment_internal@_W@@YAXAEAPEAPEA_W@Z 00000001801becc0     libucrt:environment_initialization.obj
 0002:00186cc0       $unwind$__scrt_initialize_default_local_stdio_options 00000001801becc0     LIBCMT:default_local_stdio_options.obj
 0002:00186cc0       $unwind$__vcrt_freefls     00000001801becc0     libvcruntime:per_thread_data.obj
 0002:00186cc0       $unwind$__scrt_acquire_startup_lock 00000001801becc0     LIBCMT:utility.obj
 0002:00186cc0       $unwind$_stricmp           00000001801becc0     libucrt:stricmp.obj
 0002:00186cc0       $unwind$__scrt_dllmain_before_initialize_c 00000001801becc0     LIBCMT:utility.obj
 0002:00186cc0       $unwind$__scrt_dllmain_after_initialize_c 00000001801becc0     LIBCMT:utility.obj
 0002:00186cc0       $unwind$__scrt_dllmain_uninitialize_c 00000001801becc0     LIBCMT:utility.obj
 0002:00186cc0       $unwind$__scrt_dllmain_uninitialize_critical 00000001801becc0     LIBCMT:utility.obj
 0002:00186cc0       $unwind$__scrt_dllmain_crt_thread_attach 00000001801becc0     LIBCMT:utility.obj
 0002:00186cc0       $unwind$__scrt_dllmain_crt_thread_detach 00000001801becc0     LIBCMT:utility.obj
 0002:00186cc0       $unwind$__acrt_AreFileApisANSI 00000001801becc0     libucrt:winapi_thunks.obj
 0002:00186cc0       $unwind$_purecall          00000001801becc0     libvcruntime:purevirt.obj
 0002:00186cc0       $unwind$__vcrt_initialize  00000001801becc0     libvcruntime:initialization.obj
 0002:00186cc0       $unwind$tolower            00000001801becc0     libucrt:tolower_toupper.obj
 0002:00186cc0       $unwind$__vcrt_uninitialize 00000001801becc0     libvcruntime:initialization.obj
 0002:00186cc0       $unwind$__vcrt_uninitialize_critical 00000001801becc0     libvcruntime:initialization.obj
 0002:00186cc0       $unwind$__vcrt_thread_attach 00000001801becc0     libvcruntime:initialization.obj
 0002:00186cc0       $unwind$__vcrt_thread_detach 00000001801becc0     libvcruntime:initialization.obj
 0002:00186cc0       $unwind$__vcrt_initialize_ptd 00000001801becc0     libvcruntime:per_thread_data.obj
 0002:00186cc0       $unwind$__vcrt_uninitialize_ptd 00000001801becc0     libvcruntime:per_thread_data.obj
 0002:00186cc0       $unwind$_statfp            00000001801becc0     libucrt:fpctrl.obj
 0002:00186cc0       $unwind$_set_errno_from_matherr 00000001801becc0     libucrt:fpexcept.obj
 0002:00186cc0       $unwind$__pctype_func      00000001801becc0     libucrt:ctype.obj
 0002:00186cc0       $unwind$__acrt_update_thread_multibyte_data 00000001801becc0     libucrt:mbctype.obj
 0002:00186cc0       $unwind$__acrt_initialize_multibyte 00000001801becc0     libucrt:mbctype.obj
 0002:00186cc0       $unwind$__acrt_initialize_command_line 00000001801becc0     libucrt:argv_data.obj
 0002:00186cc0       $unwind$__acrt_uninitialize 00000001801becc0     libucrt:initialization.obj
 0002:00186cc0       $unwind$__acrt_uninitialize_ptd 00000001801becc0     libucrt:per_thread_data.obj
 0002:00186cc0       $unwind$__acrt_uninitialize_critical 00000001801becc0     libucrt:initialization.obj
 0002:00186cc0       $unwind$__acrt_initialize_ptd 00000001801becc0     libucrt:per_thread_data.obj
 0002:00186cc0       $unwind$__GSHandlerCheck   00000001801becc0     LIBCMT:gshandler.obj
 0002:00186cc0       $unwind$?state_case_size@?$output_processor@_WV?$string_output_adapter@_W@__crt_stdio_output@@V?$standard_base@_WV?$string_output_adapter@_W@__crt_stdio_output@@@2@@__crt_stdio_output@@AEAA_NXZ 00000001801becc0     libucrt:output.obj
 0002:00186cc0       $unwind$__dcrt_uninitialize_environments_nolock 00000001801becc0     libucrt:environment_initialization.obj
 0002:00186cc0       $unwind$__dcrt_terminate_console_output 00000001801becc0     libucrt:initcon.obj
 0002:00186cc0       $unwind$?state_case_size@?$output_processor@_WV?$stream_output_adapter@_W@__crt_stdio_output@@V?$standard_base@_WV?$stream_output_adapter@_W@__crt_stdio_output@@@2@@__crt_stdio_output@@AEAA_NXZ 00000001801becc0     libucrt:output.obj
 0002:00186cc0       $unwind$__acrt_thread_attach 00000001801becc0     libucrt:initialization.obj
 0002:00186cc0       $unwind$?__c32rtomb_utf8@__crt_mbstring@@YA_KPEAD_UPEAU_Mbstatet@@@Z 00000001801becc0     libucrt:c32rtomb.obj
 0002:00186cc0       $unwind$__acrt_thread_detach 00000001801becc0     libucrt:initialization.obj
 0002:00186cc0       $unwind$_isatty            00000001801becc0     libucrt:isatty.obj
 0002:00186cc0       $unwind$initialize_c       00000001801becc0     libucrt:initialization.obj
 0002:00186cc0       $unwind$uninitialize_environment 00000001801becc0     libucrt:initialization.obj
 0002:00186cc0       $unwind$?load_exe_hook@@YAP6A_JXZIPEAUDelayLoadInfo@@@Z 00000001801becc0     win_delay_load_hook.obj
 0002:00186cc0       $unwind$__acrt_initialize_heap 00000001801becc0     libucrt:heap_handle.obj
 0002:00186cc0       $unwind$?DloadReleaseSectionWriteAccess@@YAXXZ 00000001801becc0     DelayImp:delayhlp.obj
 0002:00186cc0       $unwind$uninitialize_allocated_io_buffers 00000001801becc0     libucrt:initialization.obj
 0002:00186cc0       $unwind$_get_osfhandle     00000001801becc0     libucrt:osfinfo.obj
 0002:00186cc0       $unwind$_fileno            00000001801becc0     libucrt:fileno.obj
 0002:00186cc0       $unwind$__doserrno         00000001801becc0     libucrt:errno.obj
 0002:00186cc0       $unwind$_errno             00000001801becc0     libucrt:errno.obj
 0002:00186cc0       $unwind$__acrt_DownlevelLocaleNameToLCID 00000001801becc0     libucrt:lcidtoname_downlevel.obj
 0002:00186cc0       $unwind$abort              00000001801becc0     libucrt:abort.obj
 0002:00186cc0       $unwind$_invoke_watson     00000001801becc0     libucrt:invalid_parameter.obj
 0002:00186cc0       $unwind$__acrt_release_locale_ref 00000001801becc0     libucrt:locale_refcounting.obj
 0002:00186cc0       $unwind$?initialize_multibyte@@YAHXZ 00000001801becc0     libucrt:multibyte_initializer.obj
 0002:00186cc0       $unwind$_msize_base        00000001801becc0     libucrt:msize.obj
 0002:00186cc0       $unwind$_set_error_mode    00000001801becc0     libucrt:set_error_mode.obj
 0002:00186cc0       $unwind$?dllmain_crt_dispatch@@YAHQEAUHINSTANCE__@@KQEAX@Z 00000001801becc0     LIBCMT:dll_dllmain.obj
 0002:00186cc0       $unwind$??$uninitialize_environment_internal@D@@YAXAEAPEAPEAD@Z 00000001801becc0     libucrt:environment_initialization.obj
 0002:00186cc8       $unwind$_vorbis_block_ripcord 00000001801becc8     libvorbis:block.obj
 0002:00186cd0       $chain$0$_vorbis_block_ripcord 00000001801becd0     libvorbis:block.obj
 0002:00186ce4       $chain$1$_vorbis_block_ripcord 00000001801bece4     libvorbis:block.obj
 0002:00186cf8       $chain$2$_vorbis_block_ripcord 00000001801becf8     libvorbis:block.obj
 0002:00186d08       $chain$3$_vorbis_block_ripcord 00000001801bed08     libvorbis:block.obj
 0002:00186d18       $unwind$_vds_shared_init   00000001801bed18     libvorbis:block.obj
 0002:00186d28       $chain$2$_vds_shared_init  00000001801bed28     libvorbis:block.obj
 0002:00186d44       $chain$3$_vds_shared_init  00000001801bed44     libvorbis:block.obj
 0002:00186d58       $chain$5$_vds_shared_init  00000001801bed58     libvorbis:block.obj
 0002:00186d70       $chain$6$_vds_shared_init  00000001801bed70     libvorbis:block.obj
 0002:00186d80       $chain$8$_vds_shared_init  00000001801bed80     libvorbis:block.obj
 0002:00186da0       $unwind$vorbis_dsp_clear   00000001801beda0     libvorbis:block.obj
 0002:00186da8       $chain$1$vorbis_dsp_clear  00000001801beda8     libvorbis:block.obj
 0002:00186dc0       $chain$4$vorbis_dsp_clear  00000001801bedc0     libvorbis:block.obj
 0002:00186ddc       $chain$6$vorbis_dsp_clear  00000001801beddc     libvorbis:block.obj
 0002:00186df4       $chain$7$vorbis_dsp_clear  00000001801bedf4     libvorbis:block.obj
 0002:00186e04       $chain$8$vorbis_dsp_clear  00000001801bee04     libvorbis:block.obj
 0002:00186e1c       $chain$9$vorbis_dsp_clear  00000001801bee1c     libvorbis:block.obj
 0002:00186e30       $chain$10$vorbis_dsp_clear 00000001801bee30     libvorbis:block.obj
 0002:00186e40       $unwind$floor0_unpack      00000001801bee40     libvorbis:floor0.obj
 0002:00186e40       $unwind$vorbis_analysis_buffer 00000001801bee40     libvorbis:block.obj
 0002:00186e58       $unwind$_preextrapolate_helper 00000001801bee58     libvorbis:block.obj
 0002:00186e7c       $unwind$vorbis_analysis_wrote 00000001801bee7c     libvorbis:block.obj
 0002:00186e7c       $unwind$_vp_noisemask      00000001801bee7c     libvorbis:psy.obj
 0002:00186ea4       $unwind$vorbis_analysis_blockout 00000001801beea4     libvorbis:block.obj
 0002:00186ebc       $unwind$vorbis_synthesis_blockin 00000001801beebc     libvorbis:block.obj
 0002:00186ec8       $chain$0$vorbis_synthesis_blockin 00000001801beec8     libvorbis:block.obj
 0002:00186edc       $chain$1$vorbis_synthesis_blockin 00000001801beedc     libvorbis:block.obj
 0002:00186ef0       $chain$5$vorbis_synthesis_blockin 00000001801beef0     libvorbis:block.obj
 0002:00186f10       $chain$8$vorbis_synthesis_blockin 00000001801bef10     libvorbis:block.obj
 0002:00186f10       $chain$6$vorbis_synthesis_blockin 00000001801bef10     libvorbis:block.obj
 0002:00186f20       $chain$7$vorbis_synthesis_blockin 00000001801bef20     libvorbis:block.obj
 0002:00186f40       $chain$9$vorbis_synthesis_blockin 00000001801bef40     libvorbis:block.obj
 0002:00186f50       $chain$10$vorbis_synthesis_blockin 00000001801bef50     libvorbis:block.obj
 0002:00186f60       $unwind$vorbis_info_clear  00000001801bef60     libvorbis:info.obj
 0002:00186f6c       $chain$2$vorbis_info_clear 00000001801bef6c     libvorbis:info.obj
 0002:00186f88       $chain$4$vorbis_info_clear 00000001801bef88     libvorbis:info.obj
 0002:00186fa0       $chain$5$vorbis_info_clear 00000001801befa0     libvorbis:info.obj
 0002:00186fb0       $chain$6$vorbis_info_clear 00000001801befb0     libvorbis:info.obj
 0002:00186fc0       $unwind$?try_get_function@@YAPEAXW4function_id@?A0x391cf84c@@QEBDQEBW4module_id@2@2@Z 00000001801befc0     libucrt:winapi_thunks.obj
 0002:00186fc0       $unwind$_vorbis_unpack_comment 00000001801befc0     libvorbis:info.obj
 0002:00186fc0       $unwind$mapping0_unpack    00000001801befc0     libvorbis:mapping0.obj
 0002:00186fc0       $unwind$vorbis_staticbook_unpack 00000001801befc0     libvorbis:codebook.obj
 0002:00186fc0       $unwind$?try_get_function@@YAPEAXW4function_id@?A0x983e3f5c@@QEBDQEBW4module_id@2@2@Z 00000001801befc0     libvcruntime:winapi_downlevel.obj
 0002:00186fdc       $unwind$_vorbis_unpack_books 00000001801befdc     libvorbis:info.obj
 0002:00186ffc       $unwind$vorbis_synthesis_headerin 00000001801beffc     libvorbis:info.obj
 0002:00187014       $chain$0$vorbis_synthesis_headerin 00000001801bf014     libvorbis:info.obj
 0002:00187028       $chain$1$vorbis_synthesis_headerin 00000001801bf028     libvorbis:info.obj
 0002:00187038       $unwind$_vorbis_pack_comment 00000001801bf038     libvorbis:info.obj
 0002:00187048       $chain$0$_vorbis_pack_comment 00000001801bf048     libvorbis:info.obj
 0002:0018705c       $chain$2$_vorbis_pack_comment 00000001801bf05c     libvorbis:info.obj
 0002:00187074       $chain$3$_vorbis_pack_comment 00000001801bf074     libvorbis:info.obj
 0002:00187084       $chain$4$_vorbis_pack_comment 00000001801bf084     libvorbis:info.obj
 0002:00187094       $unwind$_vorbis_pack_books 00000001801bf094     libvorbis:info.obj
 0002:001870a0       $chain$4$_vorbis_pack_books 00000001801bf0a0     libvorbis:info.obj
 0002:001870c4       $chain$6$_vorbis_pack_books 00000001801bf0c4     libvorbis:info.obj
 0002:001870e8       $unwind$vorbis_analysis_headerout 00000001801bf0e8     libvorbis:info.obj
 0002:00187104       $unwind$vorbis_bitrate_addblock 00000001801bf104     libvorbis:bitrate.obj
 0002:0018711c       $chain$3$vorbis_bitrate_addblock 00000001801bf11c     libvorbis:bitrate.obj
 0002:0018713c       $chain$4$vorbis_bitrate_addblock 00000001801bf13c     libvorbis:bitrate.obj
 0002:0018714c       $unwind$vorbis_synthesis   00000001801bf14c     libvorbis:synthesis.obj
 0002:00187168       $unwind$vorbis_lpc_from_data 00000001801bf168     libvorbis:lpc.obj
 0002:00187198       $unwind$vorbis_book_decodevs_add 00000001801bf198     libvorbis:codebook.obj
 0002:00187198       $unwind$vorbis_lpc_predict 00000001801bf198     libvorbis:lpc.obj
 0002:001871c0       $unwind$_make_words        00000001801bf1c0     libvorbis:sharedbook.obj
 0002:001871dc       $unwind$_book_unquantize   00000001801bf1dc     libvorbis:sharedbook.obj
 0002:001871f4       $chain$3$_book_unquantize  00000001801bf1f4     libvorbis:sharedbook.obj
 0002:0018720c       $chain$4$_book_unquantize  00000001801bf20c     libvorbis:sharedbook.obj
 0002:00187220       $chain$5$_book_unquantize  00000001801bf220     libvorbis:sharedbook.obj
 0002:00187230       $chain$6$_book_unquantize  00000001801bf230     libvorbis:sharedbook.obj
 0002:00187240       $unwind$vorbis_book_init_decode 00000001801bf240     libvorbis:sharedbook.obj
 0002:00187268       $unwind$_ve_envelope_init  00000001801bf268     libvorbis:envelope.obj
 0002:00187294       $unwind$_ve_amp            00000001801bf294     libvorbis:envelope.obj
 0002:001872cc       $unwind$_ve_envelope_search 00000001801bf2cc     libvorbis:envelope.obj
 0002:001872d8       $chain$3$_ve_envelope_search 00000001801bf2d8     libvorbis:envelope.obj
 0002:001872f8       $chain$5$_ve_envelope_search 00000001801bf2f8     libvorbis:envelope.obj
 0002:00187310       $chain$6$_ve_envelope_search 00000001801bf310     libvorbis:envelope.obj
 0002:00187320       $chain$7$_ve_envelope_search 00000001801bf320     libvorbis:envelope.obj
 0002:00187330       $unwind$setup_tone_curves  00000001801bf330     libvorbis:psy.obj
 0002:0018737c       $unwind$_vp_psy_init       00000001801bf37c     libvorbis:psy.obj
 0002:001873bc       $unwind$seed_curve         00000001801bf3bc     libvorbis:psy.obj
 0002:001873d0       $unwind$seed_chase         00000001801bf3d0     libvorbis:psy.obj
 0002:001873f8       $unwind$max_seeds          00000001801bf3f8     libvorbis:psy.obj
 0002:00187404       $chain$1$max_seeds         00000001801bf404     libvorbis:psy.obj
 0002:0018741c       $chain$2$max_seeds         00000001801bf41c     libvorbis:psy.obj
 0002:00187430       $chain$3$max_seeds         00000001801bf430     libvorbis:psy.obj
 0002:00187440       $chain$4$max_seeds         00000001801bf440     libvorbis:psy.obj
 0002:00187450       $unwind$bark_noise_hybridmp 00000001801bf450     libvorbis:psy.obj
 0002:001874a0       $unwind$_vp_tonemask       00000001801bf4a0     libvorbis:psy.obj
 0002:001874cc       $unwind$_vp_offset_and_mix 00000001801bf4cc     libvorbis:psy.obj
 0002:001874f8       $chain$1$_vp_offset_and_mix 00000001801bf4f8     libvorbis:psy.obj
 0002:00187510       $chain$2$_vp_offset_and_mix 00000001801bf510     libvorbis:psy.obj
 0002:00187520       $unwind$noise_normalize    00000001801bf520     libvorbis:psy.obj
 0002:0018755c       $unwind$_vp_couple_quantize_normalize 00000001801bf55c     libvorbis:psy.obj
 0002:001875a0       $unwind$mdct_init          00000001801bf5a0     libvorbis:mdct.obj
 0002:001875b4       $chain$2$mdct_init         00000001801bf5b4     libvorbis:mdct.obj
 0002:001875d0       $chain$8$mdct_init         00000001801bf5d0     libvorbis:mdct.obj
 0002:001875f8       $chain$10$mdct_init        00000001801bf5f8     libvorbis:mdct.obj
 0002:00187610       $chain$11$mdct_init        00000001801bf610     libvorbis:mdct.obj
 0002:00187620       $chain$12$mdct_init        00000001801bf620     libvorbis:mdct.obj
 0002:00187644       $chain$13$mdct_init        00000001801bf644     libvorbis:mdct.obj
 0002:00187654       $unwind$mdct_butterfly_8   00000001801bf654     libvorbis:mdct.obj
 0002:00187668       $unwind$mdct_butterfly_16  00000001801bf668     libvorbis:mdct.obj
 0002:00187674       $unwind$mdct_butterfly_32  00000001801bf674     libvorbis:mdct.obj
 0002:00187688       $unwind$mdct_butterflies   00000001801bf688     libvorbis:mdct.obj
 0002:00187690       $chain$1$mdct_butterflies  00000001801bf690     libvorbis:mdct.obj
 0002:001876a8       $chain$6$mdct_butterflies  00000001801bf6a8     libvorbis:mdct.obj
 0002:001876cc       $chain$7$mdct_butterflies  00000001801bf6cc     libvorbis:mdct.obj
 0002:001876dc       $chain$8$mdct_butterflies  00000001801bf6dc     libvorbis:mdct.obj
 0002:001876ec       $unwind$mdct_bitreverse    00000001801bf6ec     libvorbis:mdct.obj
 0002:00187708       $unwind$mdct_backward      00000001801bf708     libvorbis:mdct.obj
 0002:00187728       $unwind$mdct_forward       00000001801bf728     libvorbis:mdct.obj
 0002:00187750       $unwind$drfti1             00000001801bf750     libvorbis:smallft.obj
 0002:0018776c       $chain$3$drfti1            00000001801bf76c     libvorbis:smallft.obj
 0002:0018778c       $chain$4$drfti1            00000001801bf78c     libvorbis:smallft.obj
 0002:0018779c       $unwind$dradf2             00000001801bf79c     libvorbis:smallft.obj
 0002:001877b4       $unwind$dradf4             00000001801bf7b4     libvorbis:smallft.obj
 0002:001877cc       $chain$5$dradf4            00000001801bf7cc     libvorbis:smallft.obj
 0002:001877f4       $chain$6$dradf4            00000001801bf7f4     libvorbis:smallft.obj
 0002:00187804       $unwind$dradfg             00000001801bf804     libvorbis:smallft.obj
 0002:0018781c       $chain$3$dradfg            00000001801bf81c     libvorbis:smallft.obj
 0002:0018783c       $chain$4$dradfg            00000001801bf83c     libvorbis:smallft.obj
 0002:0018784c       $unwind$drftf1             00000001801bf84c     libvorbis:smallft.obj
 0002:00187860       $chain$1$drftf1            00000001801bf860     libvorbis:smallft.obj
 0002:00187878       $chain$2$drftf1            00000001801bf878     libvorbis:smallft.obj
 0002:00187888       $unwind$_vorbis_apply_window 00000001801bf888     libvorbis:window.obj
 0002:001878a4       $unwind$vorbis_staticbook_pack 00000001801bf8a4     libvorbis:codebook.obj
 0002:001878b4       $chain$2$vorbis_staticbook_pack 00000001801bf8b4     libvorbis:codebook.obj
 0002:001878cc       $chain$4$vorbis_staticbook_pack 00000001801bf8cc     libvorbis:codebook.obj
 0002:001878e4       $chain$5$vorbis_staticbook_pack 00000001801bf8e4     libvorbis:codebook.obj
 0002:001878f4       $chain$6$vorbis_staticbook_pack 00000001801bf8f4     libvorbis:codebook.obj
 0002:00187908       $unwind$vorbis_encode_psyset_setup 00000001801bf908     libvorbisenc:vorbisenc.obj
 0002:00187908       $unwind$decode_packed_entry_number 00000001801bf908     libvorbis:codebook.obj
 0002:00187908       $unwind$vorbis_book_decodev_add 00000001801bf908     libvorbis:codebook.obj
 0002:00187908       $unwind$??R<lambda_f03950bc5685219e0bcd2087efbe011e>@@QEBAHXZ 00000001801bf908     libucrt:onexit.obj
 0002:00187908       $unwind$?type_case_integer@?$output_processor@_WV?$string_output_adapter@_W@__crt_stdio_output@@V?$standard_base@_WV?$string_output_adapter@_W@__crt_stdio_output@@@2@@__crt_stdio_output@@AEAA_NI_N@Z 00000001801bf908     libucrt:output.obj
 0002:00187908       $unwind$??$common_xtox@K_W@@YAHKQEA_W_KI_N@Z 00000001801bf908     libucrt:xtoa.obj
 0002:00187908       $unwind$?type_case_integer@?$output_processor@_WV?$stream_output_adapter@_W@__crt_stdio_output@@V?$standard_base@_WV?$stream_output_adapter@_W@__crt_stdio_output@@@2@@__crt_stdio_output@@AEAA_NI_N@Z 00000001801bf908     libucrt:output.obj
 0002:00187920       $unwind$res0_free_info     00000001801bf920     libvorbis:res0.obj
 0002:00187920       $unwind$_free_base         00000001801bf920     libucrt:free_base.obj
 0002:00187920       $unwind$floor1_free_info   00000001801bf920     libvorbis:floor1.obj
 0002:00187920       $unwind$mapping0_free_info 00000001801bf920     libvorbis:mapping0.obj
 0002:00187920       $unwind$__acrt_locale_free_lc_time_if_unreferenced 00000001801bf920     libucrt:locale_refcounting.obj
 0002:00187920       $unwind$floor1_free_look   00000001801bf920     libvorbis:floor1.obj
 0002:00187920       $unwind$__acrt_locale_free_numeric 00000001801bf920     libucrt:initnum.obj
 0002:00187920       $unwind$floor0_free_look   00000001801bf920     libvorbis:floor0.obj
 0002:00187920       $unwind$?destroy_fls@@YAXPEAX@Z 00000001801bf920     libucrt:per_thread_data.obj
 0002:00187928       $unwind$floor0_inverse1    00000001801bf928     libvorbis:floor0.obj
 0002:00187948       $unwind$floor0_inverse2    00000001801bf948     libvorbis:floor0.obj
 0002:0018795c       $chain$0$floor0_inverse2   00000001801bf95c     libvorbis:floor0.obj
 0002:00187970       $chain$12$floor0_inverse2  00000001801bf970     libvorbis:floor0.obj
 0002:001879b0       $chain$13$floor0_inverse2  00000001801bf9b0     libvorbis:floor0.obj
 0002:001879c0       $chain$14$floor0_inverse2  00000001801bf9c0     libvorbis:floor0.obj
 0002:001879d0       $unwind$mapping0_pack      00000001801bf9d0     libvorbis:mapping0.obj
 0002:001879dc       $chain$2$mapping0_pack     00000001801bf9dc     libvorbis:mapping0.obj
 0002:001879f8       $chain$3$mapping0_pack     00000001801bf9f8     libvorbis:mapping0.obj
 0002:00187a0c       $unwind$mapping0_forward   00000001801bfa0c     libvorbis:mapping0.obj
 0002:00187a54       $unwind$mapping0_inverse   00000001801bfa54     libvorbis:mapping0.obj
 0002:00187a7c       $unwind$__acrt_locale_free_monetary 00000001801bfa7c     libucrt:initmon.obj
 0002:00187a7c       $unwind$res0_free_look     00000001801bfa7c     libvorbis:res0.obj
 0002:00187a84       $chain$1$res0_free_look    00000001801bfa84     libvorbis:res0.obj
 0002:00187a9c       $chain$2$res0_free_look    00000001801bfa9c     libvorbis:res0.obj
 0002:00187ab0       $chain$3$res0_free_look    00000001801bfab0     libvorbis:res0.obj
 0002:00187ac0       $chain$4$res0_free_look    00000001801bfac0     libvorbis:res0.obj
 0002:00187ad0       $unwind$res0_pack          00000001801bfad0     libvorbis:res0.obj
 0002:00187ad0       $unwind$?parse_int_from_format_string@?$output_processor@_WV?$stream_output_adapter@_W@__crt_stdio_output@@V?$standard_base@_WV?$stream_output_adapter@_W@__crt_stdio_output@@@2@@__crt_stdio_output@@AEAA_NQEAH@Z 00000001801bfad0     libucrt:output.obj
 0002:00187ad0       $unwind$?parse_int_from_format_string@?$output_processor@_WV?$string_output_adapter@_W@__crt_stdio_output@@V?$standard_base@_WV?$string_output_adapter@_W@__crt_stdio_output@@@2@@__crt_stdio_output@@AEAA_NQEAH@Z 00000001801bfad0     libucrt:output.obj
 0002:00187ae4       $chain$0$res0_pack         00000001801bfae4     libvorbis:res0.obj
 0002:00187af8       $chain$1$res0_pack         00000001801bfaf8     libvorbis:res0.obj
 0002:00187b08       $unwind$res0_unpack        00000001801bfb08     libvorbis:res0.obj
 0002:00187b08       $unwind$floor1_pack        00000001801bfb08     libvorbis:floor1.obj
 0002:00187b24       $unwind$res0_look          00000001801bfb24     libvorbis:res0.obj
 0002:00187b3c       $unwind$local_book_besterror 00000001801bfb3c     libvorbis:res0.obj
 0002:00187b54       $chain$4$local_book_besterror 00000001801bfb54     libvorbis:res0.obj
 0002:00187b78       $chain$5$local_book_besterror 00000001801bfb78     libvorbis:res0.obj
 0002:00187b88       $unwind$_encodepart        00000001801bfb88     libvorbis:res0.obj
 0002:00187b98       $chain$2$_encodepart       00000001801bfb98     libvorbis:res0.obj
 0002:00187bb4       $chain$3$_encodepart       00000001801bfbb4     libvorbis:res0.obj
 0002:00187bc4       $unwind$_01class           00000001801bfbc4     libvorbis:res0.obj
 0002:00187be4       $unwind$_2class            00000001801bfbe4     libvorbis:res0.obj
 0002:00187bfc       $unwind$_01forward         00000001801bfbfc     libvorbis:res0.obj
 0002:00187c18       $chain$1$_01forward        00000001801bfc18     libvorbis:res0.obj
 0002:00187c30       $chain$2$_01forward        00000001801bfc30     libvorbis:res0.obj
 0002:00187c40       $unwind$_01inverse         00000001801bfc40     libvorbis:res0.obj
 0002:00187c68       $unwind$res1_class         00000001801bfc68     libvorbis:res0.obj
 0002:00187c68       $unwind$res1_inverse       00000001801bfc68     libvorbis:res0.obj
 0002:00187c68       $unwind$res0_inverse       00000001801bfc68     libvorbis:res0.obj
 0002:00187c74       $unwind$res1_forward       00000001801bfc74     libvorbis:res0.obj
 0002:00187c7c       $chain$0$res1_forward      00000001801bfc7c     libvorbis:res0.obj
 0002:00187c90       $chain$1$res1_forward      00000001801bfc90     libvorbis:res0.obj
 0002:00187ca0       $unwind$strpbrk            00000001801bfca0     libucrt:strpbrk.obj
 0002:00187ca0       $unwind$res2_class         00000001801bfca0     libvorbis:res0.obj
 0002:00187cb0       $chain$0$res2_class        00000001801bfcb0     libvorbis:res0.obj
 0002:00187cc4       $chain$1$res2_class        00000001801bfcc4     libvorbis:res0.obj
 0002:00187cd4       $unwind$res2_forward       00000001801bfcd4     libvorbis:res0.obj
 0002:00187cf0       $unwind$res2_inverse       00000001801bfcf0     libvorbis:res0.obj
 0002:00187d08       $unwind$floor1_unpack      00000001801bfd08     libvorbis:floor1.obj
 0002:00187d34       $unwind$floor1_look        00000001801bfd34     libvorbis:floor1.obj
 0002:00187d54       $chain$0$floor1_look       00000001801bfd54     libvorbis:floor1.obj
 0002:00187d68       $chain$1$floor1_look       00000001801bfd68     libvorbis:floor1.obj
 0002:00187d78       $chain$2$floor1_look       00000001801bfd78     libvorbis:floor1.obj
 0002:00187d8c       $chain$3$floor1_look       00000001801bfd8c     libvorbis:floor1.obj
 0002:00187d9c       $unwind$render_line        00000001801bfd9c     libvorbis:floor1.obj
 0002:00187db4       $unwind$accumulate_fit     00000001801bfdb4     libvorbis:floor1.obj
 0002:00187dcc       $unwind$fit_line           00000001801bfdcc     libvorbis:floor1.obj
 0002:00187dfc       $unwind$inspect_error      00000001801bfdfc     libvorbis:floor1.obj
 0002:00187e18       $unwind$floor1_fit         00000001801bfe18     libvorbis:floor1.obj
 0002:00187e3c       $unwind$floor1_interpolate_fit 00000001801bfe3c     libvorbis:floor1.obj
 0002:00187e54       $chain$0$floor1_interpolate_fit 00000001801bfe54     libvorbis:floor1.obj
 0002:00187e68       $chain$1$floor1_interpolate_fit 00000001801bfe68     libvorbis:floor1.obj
 0002:00187e7c       $chain$2$floor1_interpolate_fit 00000001801bfe7c     libvorbis:floor1.obj
 0002:00187e8c       $chain$6$floor1_interpolate_fit 00000001801bfe8c     libvorbis:floor1.obj
 0002:00187eac       $chain$7$floor1_interpolate_fit 00000001801bfeac     libvorbis:floor1.obj
 0002:00187ebc       $chain$8$floor1_interpolate_fit 00000001801bfebc     libvorbis:floor1.obj
 0002:00187ecc       $unwind$floor1_encode      00000001801bfecc     libvorbis:floor1.obj
 0002:00187ee8       $chain$2$floor1_encode     00000001801bfee8     libvorbis:floor1.obj
 0002:00187f04       $chain$3$floor1_encode     00000001801bff04     libvorbis:floor1.obj
 0002:00187f14       $unwind$floor1_inverse1    00000001801bff14     libvorbis:floor1.obj
 0002:00187f2c       $unwind$floor1_inverse2    00000001801bff2c     libvorbis:floor1.obj
 0002:00187f38       $chain$2$floor1_inverse2   00000001801bff38     libvorbis:floor1.obj
 0002:00187f54       $chain$4$floor1_inverse2   00000001801bff54     libvorbis:floor1.obj
 0002:00187f6c       $chain$5$floor1_inverse2   00000001801bff6c     libvorbis:floor1.obj
 0002:00187f7c       $chain$6$floor1_inverse2   00000001801bff7c     libvorbis:floor1.obj
 0002:00187f90       $chain$7$floor1_inverse2   00000001801bff90     libvorbis:floor1.obj
 0002:00187fa0       $unwind$vorbis_lsp_to_curve 00000001801bffa0     libvorbis:lsp.obj
 0002:00187fc4       $chain$8$vorbis_lsp_to_curve 00000001801bffc4     libvorbis:lsp.obj
 0002:00187ff8       $chain$9$vorbis_lsp_to_curve 00000001801bfff8     libvorbis:lsp.obj
 0002:00188008       $unwind$vorbis_encode_global_stereo 00000001801c0008     libvorbisenc:vorbisenc.obj
 0002:00188014       $chain$1$vorbis_encode_global_stereo 00000001801c0014     libvorbisenc:vorbisenc.obj
 0002:0018802c       $chain$3$vorbis_encode_global_stereo 00000001801c002c     libvorbisenc:vorbisenc.obj
 0002:00188040       $chain$4$vorbis_encode_global_stereo 00000001801c0040     libvorbisenc:vorbisenc.obj
 0002:00188050       $unwind$vorbis_encode_residue_setup 00000001801c0050     libvorbisenc:vorbisenc.obj
 0002:00188058       $chain$5$vorbis_encode_residue_setup 00000001801c0058     libvorbisenc:vorbisenc.obj
 0002:00188080       $chain$6$vorbis_encode_residue_setup 00000001801c0080     libvorbisenc:vorbisenc.obj
 0002:00188094       $chain$7$vorbis_encode_residue_setup 00000001801c0094     libvorbisenc:vorbisenc.obj
 0002:001880a4       $chain$8$vorbis_encode_residue_setup 00000001801c00a4     libvorbisenc:vorbisenc.obj
 0002:001880b4       $unwind$get_setup_template 00000001801c00b4     libvorbisenc:vorbisenc.obj
 0002:001880c8       $unwind$vorbis_encode_setup_init 00000001801c00c8     libvorbisenc:vorbisenc.obj
 0002:001880e0       $chain$3$vorbis_encode_setup_init 00000001801c00e0     libvorbisenc:vorbisenc.obj
 0002:00188100       $chain$4$vorbis_encode_setup_init 00000001801c0100     libvorbisenc:vorbisenc.obj
 0002:00188114       $chain$5$vorbis_encode_setup_init 00000001801c0114     libvorbisenc:vorbisenc.obj
 0002:00188124       xdata                      00000001801c0124     node:node.exe
 0002:00188130       $xdatasym                  00000001801c0130     LIBCMT:amdsecgs.obj
 0002:00188134       $unwind$?dllmain_crt_process_attach@@YAHQEAUHINSTANCE__@@QEAX@Z 00000001801c0134     LIBCMT:dll_dllmain.obj
 0002:00188170       $unwind$?fin$0@?0??dllmain_crt_process_attach@@YAHQEAUHINSTANCE__@@QEAX@Z@4HA 00000001801c0170     LIBCMT:dll_dllmain.obj
 0002:00188170       $unwind$?fin$0@?0???$?RV<lambda_d80eeec6fff315bfe5c115232f3240e3>@@AEAV<lambda_6e4b09c48022b2350581041d5f6b0c4c>@@V<lambda_2358e3775559c9db80273638284d5e45>@@@?$__crt_seh_guarded_call@X@@QEAAX$$QEAV<lambda_d80eeec6fff315bfe5c115232f3240e3>@@AEAV<lambda_6e4b09c48022b2350581041d5f6b0c4c>@@$$QEAV<lambda_2358e3775559c9db80273638284d5e45>@@@Z@4HA 00000001801c0170     libucrt:exit.obj
 0002:00188170       $unwind$__acrt_lowio_ensure_fh_exists$fin$0 00000001801c0170     libucrt:osfinfo.obj
 0002:00188170       $unwind$?fin$0@?0???$?RV<lambda_c376a267cfb53b6959b3b692ec76b120>@@AEAV<lambda_9a32fed5bf61b6b509b2d3f6003082a1>@@V<lambda_572fbb9fa0ab338edf41edfd4b5fcc8d>@@@?$__crt_seh_guarded_call@H@@QEAAH$$QEAV<lambda_c376a267cfb53b6959b3b692ec76b120>@@AEAV<lambda_9a32fed5bf61b6b509b2d3f6003082a1>@@$$QEAV<lambda_572fbb9fa0ab338edf41edfd4b5fcc8d>@@@Z@4HA 00000001801c0170     libucrt:fflush.obj
 0002:00188170       $unwind$?fin$0@?0???$?RV<lambda_efdfa57d1f175319df784efa44bb7b81>@@AEAV<lambda_5f0a4c1567f8adc6734073e5d1e1b35c>@@V<lambda_2e8a7d3640ea6ccb4c2413664c2db6fd>@@@?$__crt_seh_guarded_call@X@@QEAAX$$QEAV<lambda_efdfa57d1f175319df784efa44bb7b81>@@AEAV<lambda_5f0a4c1567f8adc6734073e5d1e1b35c>@@$$QEAV<lambda_2e8a7d3640ea6ccb4c2413664c2db6fd>@@@Z@4HA 00000001801c0170     libucrt:mbctype.obj
 0002:00188170       $unwind$?fin$0@?0???$?RV<lambda_410d79af7f07d98d83a3f525b3859a53>@@AEAV<lambda_3e16ef9562a7dcce91392c22ab16ea36>@@V<lambda_38119f0e861e05405d8a144b9b982f0a>@@@?$__crt_seh_guarded_call@X@@QEAAX$$QEAV<lambda_410d79af7f07d98d83a3f525b3859a53>@@AEAV<lambda_3e16ef9562a7dcce91392c22ab16ea36>@@$$QEAV<lambda_38119f0e861e05405d8a144b9b982f0a>@@@Z@4HA 00000001801c0170     libucrt:wsetlocale.obj
 0002:00188170       $unwind$?fin$0@?0??dllmain_crt_process_detach@@YAH_N@Z@4HA 00000001801c0170     LIBCMT:dll_dllmain.obj
 0002:00188170       $unwind$__acrt_update_thread_locale_data$fin$0 00000001801c0170     libucrt:locale_refcounting.obj
 0002:00188170       $unwind$_query_new_handler$fin$0 00000001801c0170     libucrt:new_handler.obj
 0002:00188170       $unwind$__DestructExceptionObject$filt$0 00000001801c0170     libvcruntime:ehhelpers.obj
 0002:00188170       $unwind$_fcloseall$fin$0   00000001801c0170     libucrt:closeall.obj
 0002:00188170       $unwind$?fin$0@?0???$?RV<lambda_2d41944a1d46af3157314b8a01080d33>@@AEAV<lambda_8f455de75cd7d7f24b4096f044d8b9e6>@@V<lambda_aa500f224e6afead328df44964fe2772>@@@?$__crt_seh_guarded_call@X@@QEAAX$$QEAV<lambda_2d41944a1d46af3157314b8a01080d33>@@AEAV<lambda_8f455de75cd7d7f24b4096f044d8b9e6>@@$$QEAV<lambda_aa500f224e6afead328df44964fe2772>@@@Z@4HA 00000001801c0170     libucrt:per_thread_data.obj
 0002:00188170       $unwind$?fin$0@?0???$?RV<lambda_84ec643ea9557e2f7dc01bb0e9624395>@@AEAV<lambda_ca71763b3c0644891230e4f79ea54fa6>@@V<lambda_439a761618c59b0600e24586724d733b>@@@?$__crt_seh_guarded_call@H@@QEAAH$$QEAV<lambda_84ec643ea9557e2f7dc01bb0e9624395>@@AEAV<lambda_ca71763b3c0644891230e4f79ea54fa6>@@$$QEAV<lambda_439a761618c59b0600e24586724d733b>@@@Z@4HA 00000001801c0170     libucrt:setvbuf.obj
 0002:00188170       $unwind$?fin$0@?0???$common_lseek@_J@@YA_JH_JH@Z@4HA 00000001801c0170     libucrt:lseek.obj
 0002:00188170       $unwind$_ctrlfp$filt$0     00000001801c0170     libucrt:fpctrl.obj
 0002:00188170       $unwind$fclose$fin$0       00000001801c0170     libucrt:fclose.obj
 0002:00188170       $unwind$?fin$0@?0???$?RV<lambda_0ae27a3a962d80f24befdcbee591983d>@@AEAV<lambda_8d0ee55de4b1038c4002e0adecdf1839>@@V<lambda_dc504788e8f1664fe9b84e20bfb512f2>@@@?$__crt_seh_guarded_call@X@@QEAAX$$QEAV<lambda_0ae27a3a962d80f24befdcbee591983d>@@AEAV<lambda_8d0ee55de4b1038c4002e0adecdf1839>@@$$QEAV<lambda_dc504788e8f1664fe9b84e20bfb512f2>@@@Z@4HA 00000001801c0170     libucrt:per_thread_data.obj
 0002:00188170       $unwind$?fin$0@?0???$?RV<lambda_f2e299630e499de9f9a165e60fcd3db5>@@AEAV<lambda_2ae9d31cdba2644fcbeaf08da7c24588>@@V<lambda_40d01ff24d0e7b3814fdbdcee8eab3c7>@@@?$__crt_seh_guarded_call@X@@QEAAX$$QEAV<lambda_f2e299630e499de9f9a165e60fcd3db5>@@AEAV<lambda_2ae9d31cdba2644fcbeaf08da7c24588>@@$$QEAV<lambda_40d01ff24d0e7b3814fdbdcee8eab3c7>@@@Z@4HA 00000001801c0170     libucrt:per_thread_data.obj
 0002:00188170       $unwind$?fin$0@?0???$?RV<lambda_7777bce6b2f8c936911f934f8298dc43>@@AEAV<lambda_f03950bc5685219e0bcd2087efbe011e>@@V<lambda_3883c3dff614d5e0c5f61bb1ac94921c>@@@?$__crt_seh_guarded_call@H@@QEAAH$$QEAV<lambda_7777bce6b2f8c936911f934f8298dc43>@@AEAV<lambda_f03950bc5685219e0bcd2087efbe011e>@@$$QEAV<lambda_3883c3dff614d5e0c5f61bb1ac94921c>@@@Z@4HA 00000001801c0170     libucrt:onexit.obj
 0002:00188170       $unwind$?fin$0@?0???$?RV<lambda_0d412022a4b28cc8a401ea49574e8ae6>@@AEAV<lambda_a775ed57af18ba8e4d5dc780aa9068fe>@@V<lambda_975a71a6baa488a08f4e15f6b0339b9e>@@@?$__crt_seh_guarded_call@H@@QEAAH$$QEAV<lambda_0d412022a4b28cc8a401ea49574e8ae6>@@AEAV<lambda_a775ed57af18ba8e4d5dc780aa9068fe>@@$$QEAV<lambda_975a71a6baa488a08f4e15f6b0339b9e>@@@Z@4HA 00000001801c0170     libucrt:output.obj
 0002:00188170       $unwind$raise$fin$0        00000001801c0170     libucrt:signal.obj
 0002:00188170       $unwind$?fin$0@?0???$?RV<lambda_886d6c58226a84441f68b9f2b8217b83>@@AEAV<lambda_ab61a845afdef5b7c387490eaf3616ee>@@V<lambda_f7f22ab5edc0698d5f6905b0d3f44752>@@@?$__crt_seh_guarded_call@X@@QEAAX$$QEAV<lambda_886d6c58226a84441f68b9f2b8217b83>@@AEAV<lambda_ab61a845afdef5b7c387490eaf3616ee>@@$$QEAV<lambda_f7f22ab5edc0698d5f6905b0d3f44752>@@@Z@4HA 00000001801c0170     libucrt:fflush.obj
 0002:00188170       $unwind$_write$fin$0       00000001801c0170     libucrt:write.obj
 0002:00188170       $unwind$_IsNonwritableInCurrentImage$filt$0 00000001801c0170     LIBCMT:pesect.obj
 0002:00188170       $unwind$__acrt_initialize_lowio$fin$0 00000001801c0170     libucrt:ioinit.obj
 0002:00188170       $unwind$?fin$0@?0???$?RV<lambda_751a882b2c74d4b022dec766aa51a29a>@@AEAV<lambda_628dfdc04ba53c8bfc02c9951375f3f5>@@V<lambda_f6c7be5f7998530c34de24c7437d6b54>@@@?$__crt_seh_guarded_call@H@@QEAAH$$QEAV<lambda_751a882b2c74d4b022dec766aa51a29a>@@AEAV<lambda_628dfdc04ba53c8bfc02c9951375f3f5>@@$$QEAV<lambda_f6c7be5f7998530c34de24c7437d6b54>@@@Z@4HA 00000001801c0170     libucrt:close.obj
 0002:00188170       $unwind$?fin$0@?0???$?RV<lambda_a37b2b86f63e897a80ea819b0eb08c01>@@AEAV<lambda_38ce7e780aa69e748d6df282ebc68efe>@@V<lambda_99fb1378e971ab6e7edea83e3a7a83a2>@@@?$__crt_seh_guarded_call@H@@QEAAH$$QEAV<lambda_a37b2b86f63e897a80ea819b0eb08c01>@@AEAV<lambda_38ce7e780aa69e748d6df282ebc68efe>@@$$QEAV<lambda_99fb1378e971ab6e7edea83e3a7a83a2>@@@Z@4HA 00000001801c0170     libucrt:commit.obj
 0002:00188170       $unwind$?fin$0@?0???$?RV<lambda_aa87e3671a710a21b5dc78c0bdf72e11>@@AEAV<lambda_92619d2358a28f41a33ba319515a20b9>@@V<lambda_6992ecaafeb10aed2b74cb1fae11a551>@@@?$__crt_seh_guarded_call@X@@QEAAX$$QEAV<lambda_aa87e3671a710a21b5dc78c0bdf72e11>@@AEAV<lambda_92619d2358a28f41a33ba319515a20b9>@@$$QEAV<lambda_6992ecaafeb10aed2b74cb1fae11a551>@@@Z@4HA 00000001801c0170     libucrt:per_thread_data.obj
 0002:00188170       $unwind$?fin$0@?0??update_thread_multibyte_data_internal@@YAPEAU__crt_multibyte_data@@QEAU__acrt_ptd@@QEAPEAU1@@Z@4HA 00000001801c0170     libucrt:mbctype.obj
 0002:00188170       $unwind$?fin$0@?0???$?RV<lambda_842d9ff0dc9ef11c61343bbaebe7f885>@@AEAV<lambda_c5860995281e5c4ce005b3de8f5874ee>@@V<lambda_d90129c13df834fdcbf8d2b88dafcf2d>@@@?$__crt_seh_guarded_call@X@@QEAAX$$QEAV<lambda_842d9ff0dc9ef11c61343bbaebe7f885>@@AEAV<lambda_c5860995281e5c4ce005b3de8f5874ee>@@$$QEAV<lambda_d90129c13df834fdcbf8d2b88dafcf2d>@@@Z@4HA 00000001801c0170     libucrt:fflush.obj
 0002:00188170       $unwind$?fin$0@?0???$?RV<lambda_450d765d439847d4c735a33c368b5fc0>@@AEAV<lambda_44731a7d0e6d81c3e6aa82d741081786>@@V<lambda_601a2a7da3b7a96e9554ac7215c4b07c>@@@?$__crt_seh_guarded_call@P6AXH@Z@@QEAAP6AXH@Z$$QEAV<lambda_450d765d439847d4c735a33c368b5fc0>@@AEAV<lambda_44731a7d0e6d81c3e6aa82d741081786>@@$$QEAV<lambda_601a2a7da3b7a96e9554ac7215c4b07c>@@@Z@4HA 00000001801c0170     libucrt:signal.obj
 0002:00188170       $unwind$?filt$0@?0???R<lambda_6e4b09c48022b2350581041d5f6b0c4c>@@QEBA@XZ@4HA 00000001801c0170     libucrt:exit.obj
 0002:00188178       $unwind$?dllmain_crt_process_detach@@YAH_N@Z 00000001801c0178     LIBCMT:dll_dllmain.obj
 0002:001881ac       $unwind$?dllmain_dispatch@@YAHQEAUHINSTANCE__@@KQEAX@Z 00000001801c01ac     LIBCMT:dll_dllmain.obj
 0002:001881d4       $unwind$?filt$0@?0??dllmain_dispatch@@YAHQEAUHINSTANCE__@@KQEAX@Z@4HA 00000001801c01d4     LIBCMT:dll_dllmain.obj
 0002:001881dc       $unwind$__vcrt_getptd_noexit 00000001801c01dc     libvcruntime:per_thread_data.obj
 0002:001881dc       $unwind$?type_case_n@?$output_processor@_WV?$string_output_adapter@_W@__crt_stdio_output@@V?$standard_base@_WV?$string_output_adapter@_W@__crt_stdio_output@@@2@@__crt_stdio_output@@AEAA_NXZ 00000001801c01dc     libucrt:output.obj
 0002:001881dc       $unwind$?type_case_Z@?$output_processor@_WV?$string_output_adapter@_W@__crt_stdio_output@@V?$standard_base@_WV?$string_output_adapter@_W@__crt_stdio_output@@@2@@__crt_stdio_output@@AEAA_NXZ 00000001801c01dc     libucrt:output.obj
 0002:001881dc       $unwind$__acrt_stdio_flush_nolock 00000001801c01dc     libucrt:fflush.obj
 0002:001881dc       $unwind$_exception_enabled 00000001801c01dc     libucrt:libm_error.obj
 0002:001881dc       $unwind$?type_case_n@?$output_processor@_WV?$stream_output_adapter@_W@__crt_stdio_output@@V?$standard_base@_WV?$stream_output_adapter@_W@__crt_stdio_output@@@2@@__crt_stdio_output@@AEAA_NXZ 00000001801c01dc     libucrt:output.obj
 0002:001881dc       $unwind$??0_LocaleUpdate@@QEAA@QEAU__crt_locale_pointers@@@Z 00000001801c01dc     libucrt:stricmp.obj
 0002:001881dc       $unwind$?free_crt_array_internal@@YAXQEAPEBX_K@Z 00000001801c01dc     libucrt:inittime.obj
 0002:001881dc       $unwind$__acrt_stdio_flush_and_write_narrow_nolock 00000001801c01dc     libucrt:_flsbuf.obj
 0002:001881dc       $unwind$__acrt_execute_initializers 00000001801c01dc     libucrt:shared_initialization.obj
 0002:001881dc       $unwind$?type_case_s@?$output_processor@_WV?$stream_output_adapter@_W@__crt_stdio_output@@V?$standard_base@_WV?$stream_output_adapter@_W@__crt_stdio_output@@@2@@__crt_stdio_output@@AEAA_NXZ 00000001801c01dc     libucrt:output.obj
 0002:001881dc       $unwind$__vcrt_InitializeCriticalSectionEx 00000001801c01dc     libvcruntime:winapi_downlevel.obj
 0002:001881dc       $unwind$__acrt_stdio_flush_and_write_wide_nolock 00000001801c01dc     libucrt:_flsbuf.obj
 0002:001881dc       $unwind$?type_case_Z@?$output_processor@_WV?$stream_output_adapter@_W@__crt_stdio_output@@V?$standard_base@_WV?$stream_output_adapter@_W@__crt_stdio_output@@@2@@__crt_stdio_output@@AEAA_NXZ 00000001801c01dc     libucrt:output.obj
 0002:001881dc       $unwind$__acrt_InitializeCriticalSectionEx 00000001801c01dc     libucrt:winapi_thunks.obj
 0002:001881dc       $unwind$_DllMainCRTStartup 00000001801c01dc     LIBCMT:dll_dllmain.obj
 0002:001881dc       $unwind$__acrt_getptd_noexit 00000001801c01dc     libucrt:per_thread_data.obj
 0002:001881dc       $unwind$__acrt_getptd      00000001801c01dc     libucrt:per_thread_data.obj
 0002:001881dc       $unwind$memcpy_s           00000001801c01dc     libucrt:cfout.obj
 0002:001881dc       $unwind$??R<lambda_ca71763b3c0644891230e4f79ea54fa6>@@QEBAHXZ 00000001801c01dc     libucrt:setvbuf.obj
 0002:001881dc       $unwind$??$common_lseek_nolock@_J@@YA_JH_JH@Z 00000001801c01dc     libucrt:lseek.obj
 0002:001881dc       $unwind$?type_case_s@?$output_processor@_WV?$string_output_adapter@_W@__crt_stdio_output@@V?$standard_base@_WV?$string_output_adapter@_W@__crt_stdio_output@@@2@@__crt_stdio_output@@AEAA_NXZ 00000001801c01dc     libucrt:output.obj
 0002:001881ec       $unwind$__report_securityfailure 00000001801c01ec     LIBCMT:gs_report.obj
 0002:001881f4       $unwind$__report_gsfailure 00000001801c01f4     LIBCMT:gs_report.obj
 0002:001881fc       $unwind$capture_current_context 00000001801c01fc     LIBCMT:gs_report.obj
 0002:00188208       $unwind$capture_previous_context 00000001801c0208     LIBCMT:gs_report.obj
 0002:00188214       $unwind$_raise_exc         00000001801c0214     libucrt:fpexcept.obj
 0002:00188214       $unwind$?__scrt_throw_std_bad_array_new_length@@YAXXZ 00000001801c0214     LIBCMT:throw_bad_alloc.obj
 0002:00188214       $unwind$?__scrt_throw_std_bad_alloc@@YAXXZ 00000001801c0214     LIBCMT:throw_bad_alloc.obj
 0002:0018821c       $unwind$__security_init_cookie 00000001801c021c     LIBCMT:gs_support.obj
 0002:00188228       $unwind$__scrt_is_nonwritable_in_current_image 00000001801c0228     LIBCMT:utility.obj
 0002:00188248       $unwind$__scrt_is_nonwritable_in_current_image$filt$0 00000001801c0248     LIBCMT:utility.obj
 0002:00188250       $unwind$_wassert           00000001801c0250     libucrt:assert.obj
 0002:00188250       $unwind$__acrt_show_wide_message_box 00000001801c0250     libucrt:crtmbox.obj
 0002:00188250       $unwind$__acrt_lowio_create_handle_array 00000001801c0250     libucrt:osfinfo.obj
 0002:00188250       $unwind$__acrt_free_locale 00000001801c0250     libucrt:locale_refcounting.obj
 0002:00188250       $unwind$??$ensure_buffer_is_big_enough@_W@formatting_buffer@__crt_stdio_output@@QEAA_N_K@Z 00000001801c0250     libucrt:output.obj
 0002:00188250       $unwind$??$ensure_buffer_is_big_enough@D@formatting_buffer@__crt_stdio_output@@QEAA_N_K@Z 00000001801c0250     libucrt:output.obj
 0002:00188250       $unwind$__scrt_dllmain_exception_filter 00000001801c0250     LIBCMT:utility.obj
 0002:00188250       $unwind$?setSBCS@@YAXPEAU__crt_multibyte_data@@@Z 00000001801c0250     libucrt:mbctype.obj
 0002:00188250       $unwind$_initterm          00000001801c0250     libucrt:initterm.obj
 0002:00188250       $unwind$_seh_filter_exe    00000001801c0250     libucrt:exception_filter.obj
 0002:00188250       $unwind$_recalloc_base     00000001801c0250     libucrt:recalloc.obj
 0002:00188264       $unwind$__scrt_fastfail    00000001801c0264     LIBCMT:utility_desktop.obj
 0002:00188274       $unwind$__isa_available_init 00000001801c0274     LIBCMT:cpu_disp.obj
 0002:00188288       $xdatasym                  00000001801c0288     LIBCMT:guard_dispatch.obj
 0002:0018828c       $unwind$__C_specific_handler 00000001801c028c     libvcruntime:riscchandler.obj
 0002:001882a8       $unwind$__std_exception_copy 00000001801c02a8     libvcruntime:std_exception.obj
 0002:001882a8       $unwind$_free_osfhnd       00000001801c02a8     libucrt:osfinfo.obj
 0002:001882bc       $unwind$_CxxThrowException 00000001801c02bc     libvcruntime:throw.obj
 0002:001882d0       $xdatasym                  00000001801c02d0     libvcruntime:memset.obj
 0002:001882e0       $xdatasym                  00000001801c02e0     libvcruntime:notify.obj
 0002:001882ec       $unwind$__DestructExceptionObject 00000001801c02ec     libvcruntime:ehhelpers.obj
 0002:00188310       $xdatasym                  00000001801c0310     libvcruntime:memcpy.obj
 0002:00188320       $xdatasym                  00000001801c0320     libvcruntime:handlers.obj
 0002:00188330       $unwind$fwprintf           00000001801c0330     libucrt:assert.obj
 0002:0018833c       $unwind$swprintf           00000001801c033c     libucrt:assert.obj
 0002:0018834c       $unwind$??$common_assert_to_stderr@_W@@YAXQEB_W0I@Z 00000001801c034c     libucrt:assert.obj
 0002:00188368       $unwind$??$common_assert_to_message_box@_W@@YAXQEB_W0IQEAX@Z 00000001801c0368     libucrt:assert.obj
 0002:00188384       $unwind$??$common_assert_to_message_box_build_string@_W@@YAXQEA_W_KQEB_W2IQEAX@Z 00000001801c0384     libucrt:assert.obj
 0002:001883a4       $unwind$?x_ismbbtype_l@@YAHPEAU__crt_locale_pointers@@IHH@Z 00000001801c03a4     libucrt:ismbbyte.obj
 0002:001883a4       $unwind$_stricmp_l         00000001801c03a4     libucrt:stricmp.obj
 0002:001883b4       $unwind$_tolower_l         00000001801c03b4     libucrt:tolower_toupper.obj
 0002:001883c4       $unwind$qsort              00000001801c03c4     libucrt:qsort.obj
 0002:001883dc       $chain$4$qsort             00000001801c03dc     libucrt:qsort.obj
 0002:00188400       $chain$5$qsort             00000001801c0400     libucrt:qsort.obj
 0002:00188410       $unwind$ldexp              00000001801c0410     libucrt:ldexp.obj
 0002:00188424       $unwind$?common_exit@@YAXHW4_crt_exit_cleanup_mode@@W4_crt_exit_return_mode@@@Z 00000001801c0424     libucrt:exit.obj
 0002:00188430       $unwind$??R<lambda_6e4b09c48022b2350581041d5f6b0c4c>@@QEBA@XZ 00000001801c0430     libucrt:exit.obj
 0002:00188450       $unwind$??$?RV<lambda_d80eeec6fff315bfe5c115232f3240e3>@@AEAV<lambda_6e4b09c48022b2350581041d5f6b0c4c>@@V<lambda_2358e3775559c9db80273638284d5e45>@@@?$__crt_seh_guarded_call@X@@QEAAX$$QEAV<lambda_d80eeec6fff315bfe5c115232f3240e3>@@AEAV<lambda_6e4b09c48022b2350581041d5f6b0c4c>@@$$QEAV<lambda_2358e3775559c9db80273638284d5e45>@@@Z 00000001801c0450     libucrt:exit.obj
 0002:00188474       $unwind$_query_new_handler 00000001801c0474     libucrt:new_handler.obj
 0002:00188494       $unwind$_configure_narrow_argv 00000001801c0494     libucrt:argv_parsing.obj
 0002:001884a8       $unwind$??$parse_command_line@D@@YAXPEADPEAPEAD0PEA_K2@Z 00000001801c04a8     libucrt:argv_parsing.obj
 0002:001884a8       $unwind$?write_string_impl@?$output_adapter_common@_WV?$stream_output_adapter@_W@__crt_stdio_output@@@__crt_stdio_output@@IEBAXQEB_WHQEAHAEAV__crt_deferred_errno_cache@@@Z 00000001801c04a8     libucrt:output.obj
 0002:001884c4       $unwind$??$free_environment@D@@YAXQEAPEAD@Z 00000001801c04c4     libucrt:environment_initialization.obj
 0002:001884c4       $unwind$??$free_environment@_W@@YAXQEAPEA_W@Z 00000001801c04c4     libucrt:environment_initialization.obj
 0002:001884d0       $unwind$??$create_environment@D@@YAQEAPEADQEAD@Z 00000001801c04d0     libucrt:environment_initialization.obj
 0002:001884e8       $unwind$_execute_onexit_table 00000001801c04e8     libucrt:onexit.obj
 0002:001884f0       $unwind$??$?RV<lambda_7777bce6b2f8c936911f934f8298dc43>@@AEAV<lambda_f03950bc5685219e0bcd2087efbe011e>@@V<lambda_3883c3dff614d5e0c5f61bb1ac94921c>@@@?$__crt_seh_guarded_call@H@@QEAAH$$QEAV<lambda_7777bce6b2f8c936911f934f8298dc43>@@AEAV<lambda_f03950bc5685219e0bcd2087efbe011e>@@$$QEAV<lambda_3883c3dff614d5e0c5f61bb1ac94921c>@@@Z 00000001801c04f0     libucrt:onexit.obj
 0002:00188514       $unwind$terminate          00000001801c0514     libucrt:terminate.obj
 0002:00188534       $unwind$__stdio_common_vfwprintf 00000001801c0534     libucrt:output.obj
 0002:0018853c       $unwind$??$common_vsprintf@Vstandard_base@__crt_stdio_output@@_W@@YAH_KQEA_W0QEB_WQEAU__crt_locale_pointers@@QEAD@Z 00000001801c053c     libucrt:output.obj
 0002:0018855c       $unwind$?process@?$output_processor@_WV?$stream_output_adapter@_W@__crt_stdio_output@@V?$standard_base@_WV?$stream_output_adapter@_W@__crt_stdio_output@@@2@@__crt_stdio_output@@QEAAHXZ 00000001801c055c     libucrt:output.obj
 0002:0018855c       $unwind$?process@?$output_processor@_WV?$string_output_adapter@_W@__crt_stdio_output@@V?$standard_base@_WV?$string_output_adapter@_W@__crt_stdio_output@@@2@@__crt_stdio_output@@QEAAHXZ 00000001801c055c     libucrt:output.obj
 0002:00188570       $unwind$?state_case_type@?$output_processor@_WV?$stream_output_adapter@_W@__crt_stdio_output@@V?$standard_base@_WV?$stream_output_adapter@_W@__crt_stdio_output@@@2@@__crt_stdio_output@@AEAA_NXZ 00000001801c0570     libucrt:output.obj
 0002:00188590       $unwind$?type_case_c_tchar@?$output_processor@_WV?$string_output_adapter@_W@__crt_stdio_output@@V?$standard_base@_WV?$string_output_adapter@_W@__crt_stdio_output@@@2@@__crt_stdio_output@@AEAA_N_W@Z 00000001801c0590     libucrt:output.obj
 0002:00188590       $unwind$?type_case_c_tchar@?$output_processor@_WV?$stream_output_adapter@_W@__crt_stdio_output@@V?$standard_base@_WV?$stream_output_adapter@_W@__crt_stdio_output@@@2@@__crt_stdio_output@@AEAA_N_W@Z 00000001801c0590     libucrt:output.obj
 0002:001885a0       $unwind$?type_case_a@?$output_processor@_WV?$stream_output_adapter@_W@__crt_stdio_output@@V?$standard_base@_WV?$stream_output_adapter@_W@__crt_stdio_output@@@2@@__crt_stdio_output@@AEAA_NXZ 00000001801c05a0     libucrt:output.obj
 0002:001885a0       $unwind$?type_case_a@?$output_processor@_WV?$string_output_adapter@_W@__crt_stdio_output@@V?$standard_base@_WV?$string_output_adapter@_W@__crt_stdio_output@@@2@@__crt_stdio_output@@AEAA_NXZ 00000001801c05a0     libucrt:output.obj
 0002:001885b0       $unwind$?write_stored_string_tchar@?$output_processor@_WV?$stream_output_adapter@_W@__crt_stdio_output@@V?$standard_base@_WV?$stream_output_adapter@_W@__crt_stdio_output@@@2@@__crt_stdio_output@@AEAA_N_W@Z 00000001801c05b0     libucrt:output.obj
 0002:001885c4       $unwind$??R<lambda_a775ed57af18ba8e4d5dc780aa9068fe>@@QEBAHXZ 00000001801c05c4     libucrt:output.obj
 0002:001885e4       $unwind$?write_string@?$string_output_adapter@_W@__crt_stdio_output@@QEBAXQEB_WHQEAHAEAV__crt_deferred_errno_cache@@@Z 00000001801c05e4     libucrt:output.obj
 0002:001885fc       $unwind$?state_case_type@?$output_processor@_WV?$string_output_adapter@_W@__crt_stdio_output@@V?$standard_base@_WV?$string_output_adapter@_W@__crt_stdio_output@@@2@@__crt_stdio_output@@AEAA_NXZ 00000001801c05fc     libucrt:output.obj
 0002:00188620       $unwind$?write_stored_string_tchar@?$output_processor@_WV?$string_output_adapter@_W@__crt_stdio_output@@V?$standard_base@_WV?$string_output_adapter@_W@__crt_stdio_output@@@2@@__crt_stdio_output@@AEAA_N_W@Z 00000001801c0620     libucrt:output.obj
 0002:00188634       $unwind$??$write_multiple_characters@V?$string_output_adapter@_W@__crt_stdio_output@@D@__crt_stdio_output@@YAXAEBV?$string_output_adapter@_W@0@DHQEAH@Z 00000001801c0634     libucrt:output.obj
 0002:00188640       $unwind$??$write_multiple_characters@V?$stream_output_adapter@_W@__crt_stdio_output@@D@__crt_stdio_output@@YAXAEBV?$stream_output_adapter@_W@0@DHQEAH@Z 00000001801c0640     libucrt:output.obj
 0002:00188658       $unwind$??$type_case_integer_parse_into_buffer@_K@?$output_processor@_WV?$stream_output_adapter@_W@__crt_stdio_output@@V?$standard_base@_WV?$stream_output_adapter@_W@__crt_stdio_output@@@2@@__crt_stdio_output@@AEAAX_KI_N@Z 00000001801c0658     libucrt:output.obj
 0002:00188658       $unwind$??$type_case_integer_parse_into_buffer@I@?$output_processor@_WV?$string_output_adapter@_W@__crt_stdio_output@@V?$standard_base@_WV?$string_output_adapter@_W@__crt_stdio_output@@@2@@__crt_stdio_output@@AEAAXII_N@Z 00000001801c0658     libucrt:output.obj
 0002:00188658       $unwind$??$type_case_integer_parse_into_buffer@I@?$output_processor@_WV?$stream_output_adapter@_W@__crt_stdio_output@@V?$standard_base@_WV?$stream_output_adapter@_W@__crt_stdio_output@@@2@@__crt_stdio_output@@AEAAXII_N@Z 00000001801c0658     libucrt:output.obj
 0002:00188658       $unwind$??$type_case_integer_parse_into_buffer@_K@?$output_processor@_WV?$string_output_adapter@_W@__crt_stdio_output@@V?$standard_base@_WV?$string_output_adapter@_W@__crt_stdio_output@@@2@@__crt_stdio_output@@AEAAX_KI_N@Z 00000001801c0658     libucrt:output.obj
 0002:00188660       $unwind$??$?RV<lambda_0d412022a4b28cc8a401ea49574e8ae6>@@AEAV<lambda_a775ed57af18ba8e4d5dc780aa9068fe>@@V<lambda_975a71a6baa488a08f4e15f6b0339b9e>@@@?$__crt_seh_guarded_call@H@@QEAAH$$QEAV<lambda_0d412022a4b28cc8a401ea49574e8ae6>@@AEAV<lambda_a775ed57af18ba8e4d5dc780aa9068fe>@@$$QEAV<lambda_975a71a6baa488a08f4e15f6b0339b9e>@@@Z 00000001801c0660     libucrt:output.obj
 0002:00188684       $unwind$??$parse_integer@KV?$c_string_character_source@_W@__crt_strtox@@@__crt_strtox@@YAKQEAU__crt_locale_pointers@@V?$c_string_character_source@_W@0@H_N@Z 00000001801c0684     libucrt:atox.obj
 0002:001886a0       $xdatasym                  00000001801c06a0     libucrt:strncmp.obj
 0002:001886a4       $unwind$_invalid_parameter_noinfo 00000001801c06a4     libucrt:invalid_parameter.obj
 0002:001886a4       $unwind$_itow_s            00000001801c06a4     libucrt:xtoa.obj
 0002:001886a4       $unwind$wctomb_s           00000001801c06a4     libucrt:wctomb.obj
 0002:001886a4       $unwind$fflush             00000001801c06a4     libucrt:fflush.obj
 0002:001886a4       $unwind$_log_special       00000001801c06a4     libucrt:log_special.obj
 0002:001886a4       $unwind$_log10_special     00000001801c06a4     libucrt:log_special.obj
 0002:001886a4       $unwind$wcstol             00000001801c06a4     libucrt:strtox.obj
 0002:001886ac       $unwind$__acrt_call_reportfault 00000001801c06ac     libucrt:invalid_parameter.obj
 0002:001886cc       $unwind$_invalid_parameter 00000001801c06cc     libucrt:invalid_parameter.obj
 0002:001886cc       $unwind$__acrt_MessageBoxW 00000001801c06cc     libucrt:winapi_thunks.obj
 0002:001886e0       $unwind$??$common_xtox_s@K_W@@YAHKQEA_W_KI_N@Z 00000001801c06e0     libucrt:xtoa.obj
 0002:001886e0       $unwind$?__mbrtowc_utf8@__crt_mbstring@@YA_KPEA_WPEBD_KPEAU_Mbstatet@@@Z 00000001801c06e0     libucrt:mbrtowc.obj
 0002:001886e8       $unwind$__acrt_GetModuleFileNameA 00000001801c06e8     libucrt:getmodulefilenamea.obj
 0002:00188704       $unwind$??$__acrt_wcs_to_mbs_cp@U__crt_win32_buffer_no_resizing@@@@YAHQEB_WAEAV?$__crt_win32_buffer@DU__crt_win32_buffer_no_resizing@@@@I@Z 00000001801c0704     libucrt:getmodulefilenamea.obj
 0002:00188704       $unwind$__dcrt_write_console 00000001801c0704     libucrt:initcon.obj
 0002:00188718       $unwind$__acrt_initialize_stdio 00000001801c0718     libucrt:_file.obj
 0002:00188718       $unwind$?initialize_stdio_handles_nolock@@YAXXZ 00000001801c0718     libucrt:ioinit.obj
 0002:00188730       $unwind$?common_flush_all@@YAH_N@Z 00000001801c0730     libucrt:fflush.obj
 0002:00188738       $unwind$??$?RV<lambda_842d9ff0dc9ef11c61343bbaebe7f885>@@AEAV<lambda_c5860995281e5c4ce005b3de8f5874ee>@@V<lambda_d90129c13df834fdcbf8d2b88dafcf2d>@@@?$__crt_seh_guarded_call@X@@QEAAX$$QEAV<lambda_842d9ff0dc9ef11c61343bbaebe7f885>@@AEAV<lambda_c5860995281e5c4ce005b3de8f5874ee>@@$$QEAV<lambda_d90129c13df834fdcbf8d2b88dafcf2d>@@@Z 00000001801c0738     libucrt:fflush.obj
 0002:0018875c       $unwind$??$?RV<lambda_886d6c58226a84441f68b9f2b8217b83>@@AEAV<lambda_ab61a845afdef5b7c387490eaf3616ee>@@V<lambda_f7f22ab5edc0698d5f6905b0d3f44752>@@@?$__crt_seh_guarded_call@X@@QEAAX$$QEAV<lambda_886d6c58226a84441f68b9f2b8217b83>@@AEAV<lambda_ab61a845afdef5b7c387490eaf3616ee>@@$$QEAV<lambda_f7f22ab5edc0698d5f6905b0d3f44752>@@@Z 00000001801c075c     libucrt:fflush.obj
 0002:00188784       $unwind$??$?RV<lambda_c376a267cfb53b6959b3b692ec76b120>@@AEAV<lambda_9a32fed5bf61b6b509b2d3f6003082a1>@@V<lambda_572fbb9fa0ab338edf41edfd4b5fcc8d>@@@?$__crt_seh_guarded_call@H@@QEAAH$$QEAV<lambda_c376a267cfb53b6959b3b692ec76b120>@@AEAV<lambda_9a32fed5bf61b6b509b2d3f6003082a1>@@$$QEAV<lambda_572fbb9fa0ab338edf41edfd4b5fcc8d>@@@Z 00000001801c0784     libucrt:fflush.obj
 0002:001887a8       $unwind$setvbuf            00000001801c07a8     libucrt:setvbuf.obj
 0002:001887b0       $unwind$??$?RV<lambda_84ec643ea9557e2f7dc01bb0e9624395>@@AEAV<lambda_ca71763b3c0644891230e4f79ea54fa6>@@V<lambda_439a761618c59b0600e24586724d733b>@@@?$__crt_seh_guarded_call@H@@QEAAH$$QEAV<lambda_84ec643ea9557e2f7dc01bb0e9624395>@@AEAV<lambda_ca71763b3c0644891230e4f79ea54fa6>@@$$QEAV<lambda_439a761618c59b0600e24586724d733b>@@@Z 00000001801c07b0     libucrt:setvbuf.obj
 0002:001887d4       $unwind$__acrt_get_sigabrt_handler 00000001801c07d4     libucrt:signal.obj
 0002:001887d4       $unwind$__acrt_uninitialize_locale 00000001801c07d4     libucrt:wsetlocale.obj
 0002:001887dc       $unwind$raise              00000001801c07dc     libucrt:signal.obj
 0002:00188818       $unwind$??$?RV<lambda_450d765d439847d4c735a33c368b5fc0>@@AEAV<lambda_44731a7d0e6d81c3e6aa82d741081786>@@V<lambda_601a2a7da3b7a96e9554ac7215c4b07c>@@@?$__crt_seh_guarded_call@P6AXH@Z@@QEAAP6AXH@Z$$QEAV<lambda_450d765d439847d4c735a33c368b5fc0>@@AEAV<lambda_44731a7d0e6d81c3e6aa82d741081786>@@$$QEAV<lambda_601a2a7da3b7a96e9554ac7215c4b07c>@@@Z 00000001801c0818     libucrt:signal.obj
 0002:0018883c       $unwind$?construct_ptd_array@@YAXQEAU__acrt_ptd@@@Z 00000001801c083c     libucrt:per_thread_data.obj
 0002:00188844       $unwind$?destroy_ptd_array@@YAXQEAU__acrt_ptd@@@Z 00000001801c0844     libucrt:per_thread_data.obj
 0002:0018884c       $unwind$??$?RV<lambda_0ae27a3a962d80f24befdcbee591983d>@@AEAV<lambda_8d0ee55de4b1038c4002e0adecdf1839>@@V<lambda_dc504788e8f1664fe9b84e20bfb512f2>@@@?$__crt_seh_guarded_call@X@@QEAAX$$QEAV<lambda_0ae27a3a962d80f24befdcbee591983d>@@AEAV<lambda_8d0ee55de4b1038c4002e0adecdf1839>@@$$QEAV<lambda_dc504788e8f1664fe9b84e20bfb512f2>@@@Z 00000001801c084c     libucrt:per_thread_data.obj
 0002:00188870       $unwind$??$?RV<lambda_aa87e3671a710a21b5dc78c0bdf72e11>@@AEAV<lambda_92619d2358a28f41a33ba319515a20b9>@@V<lambda_6992ecaafeb10aed2b74cb1fae11a551>@@@?$__crt_seh_guarded_call@X@@QEAAX$$QEAV<lambda_aa87e3671a710a21b5dc78c0bdf72e11>@@AEAV<lambda_92619d2358a28f41a33ba319515a20b9>@@$$QEAV<lambda_6992ecaafeb10aed2b74cb1fae11a551>@@@Z 00000001801c0870     libucrt:per_thread_data.obj
 0002:00188894       $unwind$??$?RV<lambda_f2e299630e499de9f9a165e60fcd3db5>@@AEAV<lambda_2ae9d31cdba2644fcbeaf08da7c24588>@@V<lambda_40d01ff24d0e7b3814fdbdcee8eab3c7>@@@?$__crt_seh_guarded_call@X@@QEAAX$$QEAV<lambda_f2e299630e499de9f9a165e60fcd3db5>@@AEAV<lambda_2ae9d31cdba2644fcbeaf08da7c24588>@@$$QEAV<lambda_40d01ff24d0e7b3814fdbdcee8eab3c7>@@@Z 00000001801c0894     libucrt:per_thread_data.obj
 0002:001888b8       $unwind$??$?RV<lambda_2d41944a1d46af3157314b8a01080d33>@@AEAV<lambda_8f455de75cd7d7f24b4096f044d8b9e6>@@V<lambda_aa500f224e6afead328df44964fe2772>@@@?$__crt_seh_guarded_call@X@@QEAAX$$QEAV<lambda_2d41944a1d46af3157314b8a01080d33>@@AEAV<lambda_8f455de75cd7d7f24b4096f044d8b9e6>@@$$QEAV<lambda_aa500f224e6afead328df44964fe2772>@@@Z 00000001801c08b8     libucrt:per_thread_data.obj
 0002:001888dc       $unwind$??$?RV<lambda_410d79af7f07d98d83a3f525b3859a53>@@AEAV<lambda_3e16ef9562a7dcce91392c22ab16ea36>@@V<lambda_38119f0e861e05405d8a144b9b982f0a>@@@?$__crt_seh_guarded_call@X@@QEAAX$$QEAV<lambda_410d79af7f07d98d83a3f525b3859a53>@@AEAV<lambda_3e16ef9562a7dcce91392c22ab16ea36>@@$$QEAV<lambda_38119f0e861e05405d8a144b9b982f0a>@@@Z 00000001801c08dc     libucrt:wsetlocale.obj
 0002:00188904       $unwind$_isctype_l         00000001801c0904     libucrt:isctype.obj
 0002:00188920       $unwind$__acrt_LCMapStringA 00000001801c0920     libucrt:lcmapstringa.obj
 0002:00188930       $unwind$?__acrt_LCMapStringA_stat@@YAHPEAU__crt_locale_pointers@@PEB_WKPEBDHPEADHHH@Z 00000001801c0930     libucrt:lcmapstringa.obj
 0002:00188958       $unwind$_except2           00000001801c0958     libucrt:fpexcept.obj
 0002:0018897c       $unwind$_handle_exc        00000001801c097c     libucrt:fpexcept.obj
 0002:00188998       $unwind$_umatherr          00000001801c0998     libucrt:fpexcept.obj
 0002:001889a0       $unwind$_raise_exc_ex      00000001801c09a0     libucrt:fpexcept.obj
 0002:001889b4       $unwind$_ctrlfp            00000001801c09b4     libucrt:fpctrl.obj
 0002:001889dc       $unwind$??$__acrt_mbs_to_wcs_cp@U__crt_win32_buffer_internal_dynamic_resizing@@@@YAHQEBDAEAV?$__crt_win32_buffer@_WU__crt_win32_buffer_internal_dynamic_resizing@@@@I@Z 00000001801c09dc     libucrt:argv_wildcards.obj
 0002:001889f4       $unwind$??$__acrt_wcs_to_mbs_cp@U__crt_win32_buffer_internal_dynamic_resizing@@@@YAHQEB_WAEAV?$__crt_win32_buffer@DU__crt_win32_buffer_internal_dynamic_resizing@@@@I@Z 00000001801c09f4     libucrt:argv_wildcards.obj
 0002:001889f4       $unwind$__dcrt_get_narrow_environment_from_os 00000001801c09f4     libucrt:get_environment_from_os.obj
 0002:001889f4       $unwind$?fp_format_f_internal@@YAHQEAD_KHQEAU_strflt@@_NQEAU__crt_locale_pointers@@@Z 00000001801c09f4     libucrt:cvt.obj
 0002:00188a0c       $unwind$??$common_expand_argv_wildcards@D@@YAHQEAPEADQEAPEAPEAD@Z 00000001801c0a0c     libucrt:argv_wildcards.obj
 0002:00188a24       $unwind$??$copy_and_add_argument_to_buffer@D@@YAHQEBD0_KAEAV?$argument_list@D@?A0x5f5c8891@@@Z 00000001801c0a24     libucrt:argv_wildcards.obj
 0002:00188a40       $unwind$??$expand_argument_wildcards@D@@YAHQEAD0AEAV?$argument_list@D@?A0x5f5c8891@@@Z 00000001801c0a40     libucrt:argv_wildcards.obj
 0002:00188a64       $unwind$_setmbcp_nolock    00000001801c0a64     libucrt:mbctype.obj
 0002:00188a84       $unwind$?update_thread_multibyte_data_internal@@YAPEAU__crt_multibyte_data@@QEAU__acrt_ptd@@QEAPEAU1@@Z 00000001801c0a84     libucrt:mbctype.obj
 0002:00188aac       $unwind$?setmbcp_internal@@YAHH_NQEAU__acrt_ptd@@QEAPEAU__crt_multibyte_data@@@Z 00000001801c0aac     libucrt:mbctype.obj
 0002:00188abc       $unwind$?setSBUpLow@@YAXPEAU__crt_multibyte_data@@@Z 00000001801c0abc     libucrt:mbctype.obj
 0002:00188ad8       $unwind$??$?RV<lambda_efdfa57d1f175319df784efa44bb7b81>@@AEAV<lambda_5f0a4c1567f8adc6734073e5d1e1b35c>@@V<lambda_2e8a7d3640ea6ccb4c2413664c2db6fd>@@@?$__crt_seh_guarded_call@X@@QEAAX$$QEAV<lambda_efdfa57d1f175319df784efa44bb7b81>@@AEAV<lambda_5f0a4c1567f8adc6734073e5d1e1b35c>@@$$QEAV<lambda_2e8a7d3640ea6ccb4c2413664c2db6fd>@@@Z 00000001801c0ad8     libucrt:mbctype.obj
 0002:00188afc       $unwind$__acrt_WideCharToMultiByte 00000001801c0afc     libucrt:widechartomultibyte.obj
 0002:00188afc       $unwind$__GSHandlerCheckCommon 00000001801c0afc     LIBCMT:gshandler.obj
 0002:00188b04       $unwind$__acrt_initialize_winapi_thunks 00000001801c0b04     libucrt:winapi_thunks.obj
 0002:00188b0c       $unwind$?fp_format_e@@YAHQEBNQEAD_K12H_NIQEAU__crt_locale_pointers@@@Z 00000001801c0b0c     libucrt:cvt.obj
 0002:00188b0c       $unwind$_mbtowc_l          00000001801c0b0c     libucrt:mbtowc.obj
 0002:00188b0c       $unwind$__acrt_LCMapStringEx 00000001801c0b0c     libucrt:winapi_thunks.obj
 0002:00188b20       $unwind$__acrt_is_interactive 00000001801c0b20     libucrt:winapi_thunks.obj
 0002:00188b34       $unwind$__acrt_initialize_lowio 00000001801c0b34     libucrt:ioinit.obj
 0002:00188b54       $unwind$?initialize_inherited_file_handles_nolock@@YAXXZ 00000001801c0b54     libucrt:ioinit.obj
 0002:00188b70       $unwind$__acrt_stdio_end_temporary_buffering_nolock 00000001801c0b70     libucrt:_sftbuf.obj
 0002:00188b78       $unwind$_wctomb_s_l        00000001801c0b78     libucrt:wctomb.obj
 0002:00188b88       $unwind$__acrt_fp_format   00000001801c0b88     libucrt:cvt.obj
 0002:00188b9c       $unwind$?fp_format_nan_or_infinity@@YAHW4__acrt_fp_class@@_NPEAD_K1@Z 00000001801c0b9c     libucrt:cvt.obj
 0002:00188bb0       $unwind$?fp_format_e_internal@@YAHQEAD_KH_NIQEAU_strflt@@2QEAU__crt_locale_pointers@@@Z 00000001801c0bb0     libucrt:cvt.obj
 0002:00188bc8       $unwind$?fp_format_a@@YAHQEBNPEAD_KQEAD2H_NIQEAU__crt_locale_pointers@@@Z 00000001801c0bc8     libucrt:cvt.obj
 0002:00188be4       $unwind$?fp_format_g@@YAHQEBNQEAD_K12H_NIQEAU__crt_locale_pointers@@@Z 00000001801c0be4     libucrt:cvt.obj
 0002:00188bf8       $unwind$_fputwc_nolock     00000001801c0bf8     libucrt:fputwc.obj
 0002:00188c14       $unwind$iswctype           00000001801c0c14     libucrt:iswctype.obj
 0002:00188c20       $unwind$_fcloseall         00000001801c0c20     libucrt:closeall.obj
 0002:00188c44       $unwind$_close             00000001801c0c44     libucrt:close.obj
 0002:00188c44       $unwind$_commit            00000001801c0c44     libucrt:commit.obj
 0002:00188c4c       $unwind$??$?RV<lambda_a37b2b86f63e897a80ea819b0eb08c01>@@AEAV<lambda_38ce7e780aa69e748d6df282ebc68efe>@@V<lambda_99fb1378e971ab6e7edea83e3a7a83a2>@@@?$__crt_seh_guarded_call@H@@QEAAH$$QEAV<lambda_a37b2b86f63e897a80ea819b0eb08c01>@@AEAV<lambda_38ce7e780aa69e748d6df282ebc68efe>@@$$QEAV<lambda_99fb1378e971ab6e7edea83e3a7a83a2>@@@Z 00000001801c0c4c     libucrt:commit.obj
 0002:00188c70       $unwind$_write             00000001801c0c70     libucrt:write.obj
 0002:00188ca0       $unwind$_write_nolock      00000001801c0ca0     libucrt:write.obj
 0002:00188cb8       $unwind$?write_double_translated_ansi_nolock@@YA?AUwrite_result@?A0x17268360@@HQEBDI@Z 00000001801c0cb8     libucrt:write.obj
 0002:00188cdc       $unwind$?write_text_utf16le_nolock@@YA?AUwrite_result@?A0x17268360@@HQEBDI@Z 00000001801c0cdc     libucrt:write.obj
 0002:00188cdc       $unwind$?write_text_ansi_nolock@@YA?AUwrite_result@?A0x17268360@@HQEBDI@Z 00000001801c0cdc     libucrt:write.obj
 0002:00188cfc       $unwind$?write_text_utf8_nolock@@YA?AUwrite_result@?A0x17268360@@HQEBDI@Z 00000001801c0cfc     libucrt:write.obj
 0002:00188d20       $unwind$__acrt_update_thread_locale_data 00000001801c0d20     libucrt:locale_refcounting.obj
 0002:00188d44       $unwind$__acrt_locale_free_time 00000001801c0d44     libucrt:inittime.obj
 0002:00188d54       $unwind$__acrt_GetStringTypeA 00000001801c0d54     libucrt:getstringtypea.obj
 0002:00188d80       $xdatasym                  00000001801c0d80     libucrt:fpsr.obj
 0002:00188d88       $unwind$fallbackMethod     00000001801c0d88     libucrt:strpbrk.obj
 0002:00188d98       $unwind$?GetTableIndexFromLocaleName@@YAHPEB_W@Z 00000001801c0d98     libucrt:lcidtoname_downlevel.obj
 0002:00188db0       $unwind$__acrt_lowio_destroy_handle_array 00000001801c0db0     libucrt:osfinfo.obj
 0002:00188dc0       $unwind$__acrt_lowio_ensure_fh_exists 00000001801c0dc0     libucrt:osfinfo.obj
 0002:00188dec       $unwind$?__mbsrtowcs_utf8@__crt_mbstring@@YA_KPEA_WPEAPEBD_KPEAU_Mbstatet@@@Z 00000001801c0dec     libucrt:mbrtowc.obj
 0002:00188e04       $unwind$__acrt_fltout      00000001801c0e04     libucrt:cfout.obj
 0002:00188e24       $unwind$?divide@__crt_strtox@@YA_KAEAUbig_integer@1@AEBU21@@Z 00000001801c0e24     libucrt:cfout.obj
 0002:00188e3c       $chain$0$?divide@__crt_strtox@@YA_KAEAUbig_integer@1@AEBU21@@Z 00000001801c0e3c     libucrt:cfout.obj
 0002:00188e50       $chain$1$?divide@__crt_strtox@@YA_KAEAUbig_integer@1@AEBU21@@Z 00000001801c0e50     libucrt:cfout.obj
 0002:00188e60       $unwind$??$write_buffer_nolock@D@@YA_NDV__crt_stdio_stream@@@Z 00000001801c0e60     libucrt:_flsbuf.obj
 0002:00188e70       $unwind$??$write_buffer_nolock@_W@@YA_N_WV__crt_stdio_stream@@@Z 00000001801c0e70     libucrt:_flsbuf.obj
 0002:00188e80       $unwind$fclose             00000001801c0e80     libucrt:fclose.obj
 0002:00188ea4       $unwind$??$common_lseek@_J@@YA_JH_JH@Z 00000001801c0ea4     libucrt:lseek.obj
 0002:00188ed4       $unwind$_putwch_nolock     00000001801c0ed4     libucrt:putwch.obj
 0002:00188edc       $unwind$?__mbrtoc32_utf8@__crt_mbstring@@YA_KPEA_UPEBD_KPEAU_Mbstatet@@@Z 00000001801c0edc     libucrt:mbrtoc32.obj
 0002:00188ef8       $xdatasym                  00000001801c0ef8     libucrt:log10.obj
 0002:00188f04       $unwind$??$?RV<lambda_751a882b2c74d4b022dec766aa51a29a>@@AEAV<lambda_628dfdc04ba53c8bfc02c9951375f3f5>@@V<lambda_f6c7be5f7998530c34de24c7437d6b54>@@@?$__crt_seh_guarded_call@H@@QEAAH$$QEAV<lambda_751a882b2c74d4b022dec766aa51a29a>@@AEAV<lambda_628dfdc04ba53c8bfc02c9951375f3f5>@@$$QEAV<lambda_f6c7be5f7998530c34de24c7437d6b54>@@@Z 00000001801c0f04     libucrt:close.obj
 0002:00188f28       $unwind$__acrt_fenv_set_control 00000001801c0f28     libucrt:_fenvutils.obj
 0002:00188f38       $unwind$_call_matherr      00000001801c0f38     libucrt:libm_error.obj
 0002:00188f40       $unwind$_handle_error      00000001801c0f40     libucrt:libm_error.obj
 0002:00188f60       $unwind$__acrt_initialize_fma3 00000001801c0f60     libucrt:fma3_available.obj
 0002:00188f68       $unwind$_exp_special       00000001801c0f68     libucrt:exp_special.obj
 0002:00188f68       $unwind$_log_special_common 00000001801c0f68     libucrt:log_special.obj
 0002:00188f74       $unwind$?DloadObtainSection@@YAPEAXPEAK0@Z 00000001801c0f74     DelayImp:delayhlp.obj
 0002:00188f84       $unwind$?DloadMakePermanentImageCommit@@YAXPEAX_K@Z 00000001801c0f84     DelayImp:delayhlp.obj
 0002:00188f90       $unwind$?DloadProtectSection@@YAXKPEAK@Z 00000001801c0f90     DelayImp:delayhlp.obj
 0002:00188fa0       $unwind$__delayLoadHelper2 00000001801c0fa0     DelayImp:delayhlp.obj
 0002:00188fbc       $unwind$_IsNonwritableInCurrentImage 00000001801c0fbc     LIBCMT:pesect.obj
 0002:00188fe0       $xdatasym                  00000001801c0fe0     LIBCMT:chkstk.obj
 0002:00188fe8       $xdatasym                  00000001801c0fe8     libvcruntime:memcmp.obj
 0002:00188fec       $unwind$atan               00000001801c0fec     libucrt:atan.obj
 0002:00188ff8       $xdatasym                  00000001801c0ff8     libucrt:cos.obj
 0002:00189000       $xdatasym                  00000001801c1000     libucrt:exp.obj
 0002:00189008       $xdatasym                  00000001801c1008     libucrt:log.obj
 0002:00189018       $xdatasym                  00000001801c1018     libucrt:pow.obj
 0002:00189028       $xdatasym                  00000001801c1028     libucrt:sin.obj
 0002:00189030       $unwind$sqrt               00000001801c1030     libucrt:sqrt.obj
 0002:00189038       $xdatasym                  00000001801c1038     libucrt:remainder_piby2_forasm.obj
 0002:00189048       $xdatasym                  00000001801c1048     libucrt:remainder_piby2_forfma3.obj
 0002:00189054       $unwind$_sincos_special    00000001801c1054     libucrt:sincos_special.obj
 0002:0018905c       $unwind$_pow_special       00000001801c105c     libucrt:pow_special.obj
 0002:0018a0f0       .edata                     00000001801c20f0     vorbis.exp
 0002:0018a118       rgpv                       00000001801c2118     vorbis.exp
 0002:0018a11c       rgszName                   00000001801c211c     vorbis.exp
 0002:0018a120       rgwOrd                     00000001801c2120     vorbis.exp
 0002:0018a122       szName                     00000001801c2122     vorbis.exp
 0002:0018a12e       $N00001                    00000001801c212e     vorbis.exp
 0002:0018a44c       .idata$6                   00000001801c244c     kernel32:KERNEL32.dll
 0002:0018aa30       .idata$6                   00000001801c2a30     ogg:ogg.node
 0003:00000030       ?__vcrt_flsindex@@3KA      00000001801c3030     libvcruntime:per_thread_data.obj
 0003:00000050       ?errno_no_memory@@3HA      00000001801c3050     libucrt:errno.obj
 0003:00000054       ?doserrno_no_memory@@3KA   00000001801c3054     libucrt:errno.obj
 0003:00000168       ?__acrt_flsindex@@3KA      00000001801c3168     libucrt:per_thread_data.obj
 0003:000002e8       ?dazSupported@?1??_ctrlfp@@9@9 00000001801c32e8     libucrt:fpctrl.obj
 0003:000002f0       _mbctypes                  00000001801c32f0     libucrt:mbctype.obj
 0003:00000400       _mbcasemaps                00000001801c3400     libucrt:mbctype.obj
 0003:00000500       ?__rgctypeflag@@3PADA      00000001801c3500     libucrt:mbctype.obj
 0003:00000510       ?__rgcode_page_info@@3PAUcode_page_info@@A 00000001801c3510     libucrt:mbctype.obj
 0003:00000a20       ?__dcrt_lowio_console_output_handle@@3PEAXEA 00000001801c3a20     libucrt:initcon.obj
 0003:00000a40       _floor_mapping_8           00000001801c3a40     libvorbisenc:vorbisenc.obj
 0003:00000a48       _floor_mapping_11          00000001801c3a48     libvorbisenc:vorbisenc.obj
 0003:00000a50       _floor_mapping_44          00000001801c3a50     libvorbisenc:vorbisenc.obj
 0003:00000a68       _floor_mapping_16          00000001801c3a68     libvorbisenc:vorbisenc.obj
 0003:00000a80       _module                    00000001801c3a80     binding.obj
 0003:00000cd8       ?__proc_attached@@3HA      00000001801c3cd8     LIBCMT:dll_dllmain.obj
 0003:00000ce0       GS_ExceptionRecord         00000001801c3ce0     LIBCMT:gs_report.obj
 0003:00000d80       GS_ContextRecord           00000001801c3d80     LIBCMT:gs_report.obj
 0003:00001280       ?is_initialized_as_dll@@3_NA 00000001801c4280     LIBCMT:utility.obj
 0003:00001281       ?module_local_atexit_table_initialized@@3_NA 00000001801c4281     LIBCMT:utility.obj
 0003:00001288       ?module_local_atexit_table@@3U_onexit_table_t@@A 00000001801c4288     LIBCMT:utility.obj
 0003:000012a0       ?module_local_at_quick_exit_table@@3U_onexit_table_t@@A 00000001801c42a0     LIBCMT:utility.obj
 0003:00001310       ?heap@@3V_HeapManager@@A   00000001801c4310     libvcruntime:undname.obj
 0003:00001340       ?__vcrt_startup_thread_ptd@@3U__vcrt_ptd@@A 00000001801c4340     libvcruntime:per_thread_data.obj
 0003:000013c0       __vcrt_lock_table          00000001801c43c0     libvcruntime:locks.obj
 0003:000013e8       __vcrt_locks_initialized   00000001801c43e8     libvcruntime:locks.obj
 0003:000013f0       ?module_handles@@3PAPEAUHINSTANCE__@@A 00000001801c43f0     libvcruntime:winapi_downlevel.obj
 0003:00001408       ?function_pointers@@3PAPEAXA 00000001801c4408     libvcruntime:winapi_downlevel.obj
 0003:00001430       ?c_termination_complete@@3JA 00000001801c4430     libucrt:exit.obj
 0003:00001438       ?thread_local_exit_callback_func@@3P6AXPEAXK0@ZEA 00000001801c4438     libucrt:exit.obj
 0003:00001448       ?__acrt_new_handler@@3V?$dual_state_global@P6AH_K@Z@__crt_state_management@@A 00000001801c4448     libucrt:new_handler.obj
 0003:00001450       ?program_name@?1???$common_configure_argv@D@@YAHW4_crt_argv_mode@@@Z@4PADA 00000001801c4450     libucrt:argv_parsing.obj
 0003:000015a8       ?__acrt_invalid_parameter_handler@@3V?$dual_state_global@P6AXPEB_W00I_K@Z@__crt_state_management@@A 00000001801c45a8     libucrt:invalid_parameter.obj
 0003:000015b0       ?__acrt_app_type@@3W4_crt_app_type@@A 00000001801c45b0     libucrt:report_runtime_error.obj
 0003:000015b4       __acrt_error_mode          00000001801c45b4     libucrt:set_error_mode.obj
 0003:000015d0       ?ctrlc_action@@3V?$dual_state_global@P6AXH@Z@__crt_state_management@@A 00000001801c45d0     libucrt:signal.obj
 0003:000015d8       ?ctrlbreak_action@@3V?$dual_state_global@P6AXH@Z@__crt_state_management@@A 00000001801c45d8     libucrt:signal.obj
 0003:000015e0       ?abort_action@@3V?$dual_state_global@P6AXH@Z@__crt_state_management@@A 00000001801c45e0     libucrt:signal.obj
 0003:000015e8       ?term_action@@3V?$dual_state_global@P6AXH@Z@__crt_state_management@@A 00000001801c45e8     libucrt:signal.obj
 0003:00001600       ?__acrt_lock_table@@3PAU_RTL_CRITICAL_SECTION@@A 00000001801c4600     libucrt:locks.obj
 0003:00001830       ?__acrt_locks_initialized@@3IA 00000001801c4830     libucrt:locks.obj
 0003:00001834       ?state_cache@?1???$get_cached_win_policy@Udeveloper_information_policy_properties@?1??__acrt_get_developer_information_policy@@YA?AW4developer_information_policy@@XZ@@@YA?AW4developer_information_policy@@W4AppPolicyShowDeveloperDiagnostic@@@Z@4JA 00000001801c4834     libucrt:win_policies.obj
 0003:00001838       ?state_cache@?1???$get_cached_win_policy@Uwindowing_model_policy_properties@?1??__acrt_get_windowing_model_policy@@YA?AW4windowing_model_policy@@XZ@@@YA?AW4windowing_model_policy@@W4AppPolicyWindowingModel@@@Z@4JA 00000001801c4838     libucrt:win_policies.obj
 0003:00001858       ?fSystemSet@@3HA           00000001801c4858     libucrt:mbctype.obj
 0003:0000185c       ?initialized@?1??__acrt_initialize_multibyte@@9@4_NA 00000001801c485c     libucrt:mbctype.obj
 0003:00001890       ?module_handles@@3PAPEAUHINSTANCE__@@A 00000001801c4890     libucrt:winapi_thunks.obj
 0003:00001930       ?encoded_function_pointers@@3PAPEAXA 00000001801c4930     libucrt:winapi_thunks.obj
 0003:00001e58       ?user_matherr@@3V?$dual_state_global@P6AHPEAU_exception@@@Z@__crt_state_management@@A 00000001801c4e58     libucrt:matherr.obj
 0003:00001e70       ?internal_state@?1??_mbtowc_l@@9@4U_Mbstatet@@A 00000001801c4e70     libucrt:mbtowc.obj
 0003:00001e78       ?enable_percent_n@@3_KA    00000001801c4e78     libucrt:printf_count_output.obj
 0003:00001e88       ?__acrt_global_new_mode@@3V?$dual_state_global@J@__crt_state_management@@A 00000001801c4e88     libucrt:new_mode.obj
 0003:00001e90       ?internal_pst@?1??__mbrtoc32_utf8@__crt_mbstring@@YA_KPEA_UPEBD_KPEAU_Mbstatet@@@Z@4U3@A 00000001801c4e90     libucrt:mbrtoc32.obj
 0004:00000018       $pdata$??2@YAPEAX_K@Z      00000001801c5018     LIBCMT:new_scalar.obj
 0004:00000024       $pdata$?dllmain_crt_process_attach@@YAHQEAUHINSTANCE__@@QEAX@Z 00000001801c5024     LIBCMT:dll_dllmain.obj
 0004:00000030       $pdata$?fin$0@?0??dllmain_crt_process_attach@@YAHQEAUHINSTANCE__@@QEAX@Z@4HA 00000001801c5030     LIBCMT:dll_dllmain.obj
 0004:0000003c       $pdata$?dllmain_crt_process_detach@@YAH_N@Z 00000001801c503c     LIBCMT:dll_dllmain.obj
 0004:00000048       $pdata$?fin$0@?0??dllmain_crt_process_detach@@YAH_N@Z@4HA 00000001801c5048     LIBCMT:dll_dllmain.obj
 0004:00000054       $pdata$?dllmain_crt_dispatch@@YAHQEAUHINSTANCE__@@KQEAX@Z 00000001801c5054     LIBCMT:dll_dllmain.obj
 0004:00000060       $pdata$?dllmain_dispatch@@YAHQEAUHINSTANCE__@@KQEAX@Z 00000001801c5060     LIBCMT:dll_dllmain.obj
 0004:0000006c       $pdata$?filt$0@?0??dllmain_dispatch@@YAHQEAUHINSTANCE__@@KQEAX@Z@4HA 00000001801c506c     LIBCMT:dll_dllmain.obj
 0004:00000078       $pdata$_DllMainCRTStartup  00000001801c5078     LIBCMT:dll_dllmain.obj
 0004:00000084       $pdata$__report_securityfailure 00000001801c5084     LIBCMT:gs_report.obj
 0004:00000090       $pdata$__report_rangecheckfailure 00000001801c5090     LIBCMT:gs_report.obj
 0004:0000009c       $pdata$__report_gsfailure  00000001801c509c     LIBCMT:gs_report.obj
 0004:000000a8       $pdata$capture_current_context 00000001801c50a8     LIBCMT:gs_report.obj
 0004:000000b4       $pdata$capture_previous_context 00000001801c50b4     LIBCMT:gs_report.obj
 0004:000000c0       $pdata$__raise_securityfailure 00000001801c50c0     LIBCMT:gs_report.obj
 0004:000000cc       $pdata$??0exception@std@@QEAA@AEBV01@@Z 00000001801c50cc     LIBCMT:throw_bad_alloc.obj
 0004:000000d8       $pdata$??_Gbad_array_new_length@std@@UEAAPEAXI@Z 00000001801c50d8     LIBCMT:throw_bad_alloc.obj
 0004:000000d8       $pdata$??_Gbad_alloc@std@@UEAAPEAXI@Z 00000001801c50d8     LIBCMT:throw_bad_alloc.obj
 0004:000000d8       $pdata$??_Gexception@std@@UEAAPEAXI@Z 00000001801c50d8     LIBCMT:throw_bad_alloc.obj
 0004:000000e4       $pdata$??0bad_alloc@std@@QEAA@AEBV01@@Z 00000001801c50e4     LIBCMT:throw_bad_alloc.obj
 0004:000000f0       $pdata$??0bad_array_new_length@std@@QEAA@AEBV01@@Z 00000001801c50f0     LIBCMT:throw_bad_alloc.obj
 0004:000000fc       $pdata$?__scrt_throw_std_bad_alloc@@YAXXZ 00000001801c50fc     LIBCMT:throw_bad_alloc.obj
 0004:00000108       $pdata$?__scrt_throw_std_bad_array_new_length@@YAXXZ 00000001801c5108     LIBCMT:throw_bad_alloc.obj
 0004:00000114       $pdata$__security_init_cookie 00000001801c5114     LIBCMT:gs_support.obj
 0004:00000120       $pdata$__scrt_initialize_default_local_stdio_options 00000001801c5120     LIBCMT:default_local_stdio_options.obj
 0004:0000012c       $pdata$__scrt_is_nonwritable_in_current_image 00000001801c512c     LIBCMT:utility.obj
 0004:00000138       $pdata$__scrt_is_nonwritable_in_current_image$filt$0 00000001801c5138     LIBCMT:utility.obj
 0004:00000144       $pdata$__scrt_acquire_startup_lock 00000001801c5144     LIBCMT:utility.obj
 0004:00000150       $pdata$__scrt_release_startup_lock 00000001801c5150     LIBCMT:utility.obj
 0004:0000015c       $pdata$__scrt_initialize_crt 00000001801c515c     LIBCMT:utility.obj
 0004:00000168       $pdata$__scrt_uninitialize_crt 00000001801c5168     LIBCMT:utility.obj
 0004:00000174       $pdata$__scrt_initialize_onexit_tables 00000001801c5174     LIBCMT:utility.obj
 0004:00000180       $pdata$__scrt_dllmain_exception_filter 00000001801c5180     LIBCMT:utility.obj
 0004:0000018c       $pdata$__scrt_dllmain_before_initialize_c 00000001801c518c     LIBCMT:utility.obj
 0004:00000198       $pdata$__scrt_dllmain_after_initialize_c 00000001801c5198     LIBCMT:utility.obj
 0004:000001a4       $pdata$__scrt_dllmain_uninitialize_c 00000001801c51a4     LIBCMT:utility.obj
 0004:000001b0       $pdata$__scrt_dllmain_uninitialize_critical 00000001801c51b0     LIBCMT:utility.obj
 0004:000001bc       $pdata$__scrt_dllmain_crt_thread_attach 00000001801c51bc     LIBCMT:utility.obj
 0004:000001c8       $pdata$__scrt_dllmain_crt_thread_detach 00000001801c51c8     LIBCMT:utility.obj
 0004:000001d4       $pdata$__scrt_fastfail     00000001801c51d4     LIBCMT:utility_desktop.obj
 0004:000001e0       $pdata$_RTC_Initialize     00000001801c51e0     LIBCMT:initsect.obj
 0004:000001ec       $pdata$_RTC_Terminate      00000001801c51ec     LIBCMT:initsect.obj
 0004:000001f8       $pdata$??_Gtype_info@@UEAAPEAXI@Z 00000001801c51f8     LIBCMT:std_type_info_static.obj
 0004:00000204       $pdata$__isa_available_init 00000001801c5204     LIBCMT:cpu_disp.obj
 0004:0000021c       $pdata$_purecall           00000001801c521c     libvcruntime:purevirt.obj
 0004:00000228       $pdata$__C_specific_handler 00000001801c5228     libvcruntime:riscchandler.obj
 0004:00000234       $pdata$__std_exception_copy 00000001801c5234     libvcruntime:std_exception.obj
 0004:00000240       $pdata$__std_exception_destroy 00000001801c5240     libvcruntime:std_exception.obj
 0004:0000024c       $pdata$_CxxThrowException  00000001801c524c     libvcruntime:throw.obj
 0004:00000258       $pdata$__std_type_info_destroy_list 00000001801c5258     libvcruntime:std_type_info.obj
 0004:00000264       $pdata$__vcrt_initialize   00000001801c5264     libvcruntime:initialization.obj
 0004:00000270       $pdata$__vcrt_uninitialize 00000001801c5270     libvcruntime:initialization.obj
 0004:0000027c       $pdata$__vcrt_uninitialize_critical 00000001801c527c     libvcruntime:initialization.obj
 0004:00000288       $pdata$__vcrt_thread_attach 00000001801c5288     libvcruntime:initialization.obj
 0004:00000294       $pdata$__vcrt_thread_detach 00000001801c5294     libvcruntime:initialization.obj
 0004:000002dc       $pdata$__DestructExceptionObject 00000001801c52dc     libvcruntime:ehhelpers.obj
 0004:000002e8       $pdata$__DestructExceptionObject$filt$0 00000001801c52e8     libvcruntime:ehhelpers.obj
 0004:000002f4       $pdata$__vcrt_initialize_ptd 00000001801c52f4     libvcruntime:per_thread_data.obj
 0004:00000300       $pdata$__vcrt_uninitialize_ptd 00000001801c5300     libvcruntime:per_thread_data.obj
 0004:0000030c       $pdata$__vcrt_getptd_noexit 00000001801c530c     libvcruntime:per_thread_data.obj
 0004:00000318       $pdata$__vcrt_freeptd      00000001801c5318     libvcruntime:per_thread_data.obj
 0004:00000324       $pdata$__vcrt_freefls      00000001801c5324     libvcruntime:per_thread_data.obj
 0004:00000330       $pdata$__vcrt_initialize_locks 00000001801c5330     libvcruntime:locks.obj
 0004:0000033c       $pdata$__vcrt_uninitialize_locks 00000001801c533c     libvcruntime:locks.obj
 0004:00000360       $pdata$__vcrt_FlsAlloc     00000001801c5360     libvcruntime:winapi_downlevel.obj
 0004:0000036c       $pdata$__vcrt_FlsFree      00000001801c536c     libvcruntime:winapi_downlevel.obj
 0004:00000378       $pdata$__vcrt_FlsGetValue  00000001801c5378     libvcruntime:winapi_downlevel.obj
 0004:00000384       $pdata$__vcrt_FlsSetValue  00000001801c5384     libvcruntime:winapi_downlevel.obj
 0004:00000390       $pdata$__vcrt_InitializeCriticalSectionEx 00000001801c5390     libvcruntime:winapi_downlevel.obj
 0004:0000039c       $pdata$?try_get_function@@YAPEAXW4function_id@?A0x983e3f5c@@QEBDQEBW4module_id@2@2@Z 00000001801c539c     libvcruntime:winapi_downlevel.obj
 0004:000003c0       $pdata$fwprintf            00000001801c53c0     libucrt:assert.obj
 0004:000003cc       $pdata$swprintf            00000001801c53cc     libucrt:assert.obj
 0004:000003d8       $pdata$_wassert            00000001801c53d8     libucrt:assert.obj
 0004:000003e4       $pdata$??$common_assert_to_stderr@_W@@YAXQEB_W0I@Z 00000001801c53e4     libucrt:assert.obj
 0004:000003f0       $pdata$??$common_assert_to_message_box@_W@@YAXQEB_W0IQEAX@Z 00000001801c53f0     libucrt:assert.obj
 0004:000003fc       $pdata$??$common_assert_to_message_box_build_string@_W@@YAXQEA_W_KQEB_W2IQEAX@Z 00000001801c53fc     libucrt:assert.obj
 0004:00000408       $pdata$_stricmp            00000001801c5408     libucrt:stricmp.obj
 0004:00000414       $pdata$_stricmp_l          00000001801c5414     libucrt:stricmp.obj
 0004:00000420       $pdata$??0_LocaleUpdate@@QEAA@QEAU__crt_locale_pointers@@@Z 00000001801c5420     libucrt:stricmp.obj
 0004:0000042c       $pdata$tolower             00000001801c542c     libucrt:tolower_toupper.obj
 0004:00000438       $pdata$_tolower_l          00000001801c5438     libucrt:tolower_toupper.obj
 0004:00000444       $pdata$?internal_isupper_l@@YA_NHQEAU__crt_locale_pointers@@@Z 00000001801c5444     libucrt:tolower_toupper.obj
 0004:00000450       $pdata$qsort               00000001801c5450     libucrt:qsort.obj
 0004:0000045c       $pdata$4$qsort             00000001801c545c     libucrt:qsort.obj
 0004:00000468       $pdata$5$qsort             00000001801c5468     libucrt:qsort.obj
 0004:00000474       $pdata$ldexp               00000001801c5474     libucrt:ldexp.obj
 0004:00000480       $pdata$?try_cor_exit_process@@YAXI@Z 00000001801c5480     libucrt:exit.obj
 0004:0000048c       $pdata$?exit_or_terminate_process@@YAXI@Z 00000001801c548c     libucrt:exit.obj
 0004:00000498       $pdata$?common_exit@@YAXHW4_crt_exit_cleanup_mode@@W4_crt_exit_return_mode@@@Z 00000001801c5498     libucrt:exit.obj
 0004:000004a4       $pdata$??R<lambda_6e4b09c48022b2350581041d5f6b0c4c>@@QEBA@XZ 00000001801c54a4     libucrt:exit.obj
 0004:000004b0       $pdata$?filt$0@?0???R<lambda_6e4b09c48022b2350581041d5f6b0c4c>@@QEBA@XZ@4HA 00000001801c54b0     libucrt:exit.obj
 0004:000004bc       $pdata$??$?RV<lambda_d80eeec6fff315bfe5c115232f3240e3>@@AEAV<lambda_6e4b09c48022b2350581041d5f6b0c4c>@@V<lambda_2358e3775559c9db80273638284d5e45>@@@?$__crt_seh_guarded_call@X@@QEAAX$$QEAV<lambda_d80eeec6fff315bfe5c115232f3240e3>@@AEAV<lambda_6e4b09c48022b2350581041d5f6b0c4c>@@$$QEAV<lambda_2358e3775559c9db80273638284d5e45>@@@Z 00000001801c54bc     libucrt:exit.obj
 0004:000004c8       $pdata$?fin$0@?0???$?RV<lambda_f2e299630e499de9f9a165e60fcd3db5>@@AEAV<lambda_2ae9d31cdba2644fcbeaf08da7c24588>@@V<lambda_40d01ff24d0e7b3814fdbdcee8eab3c7>@@@?$__crt_seh_guarded_call@X@@QEAAX$$QEAV<lambda_f2e299630e499de9f9a165e60fcd3db5>@@AEAV<lambda_2ae9d31cdba2644fcbeaf08da7c24588>@@$$QEAV<lambda_40d01ff24d0e7b3814fdbdcee8eab3c7>@@@Z@4HA 00000001801c54c8     libucrt:per_thread_data.obj
 0004:000004c8       $pdata$?fin$0@?0???$?RV<lambda_2d41944a1d46af3157314b8a01080d33>@@AEAV<lambda_8f455de75cd7d7f24b4096f044d8b9e6>@@V<lambda_aa500f224e6afead328df44964fe2772>@@@?$__crt_seh_guarded_call@X@@QEAAX$$QEAV<lambda_2d41944a1d46af3157314b8a01080d33>@@AEAV<lambda_8f455de75cd7d7f24b4096f044d8b9e6>@@$$QEAV<lambda_aa500f224e6afead328df44964fe2772>@@@Z@4HA 00000001801c54c8     libucrt:per_thread_data.obj
 0004:000004c8       $pdata$?fin$0@?0???$?RV<lambda_7777bce6b2f8c936911f934f8298dc43>@@AEAV<lambda_f03950bc5685219e0bcd2087efbe011e>@@V<lambda_3883c3dff614d5e0c5f61bb1ac94921c>@@@?$__crt_seh_guarded_call@H@@QEAAH$$QEAV<lambda_7777bce6b2f8c936911f934f8298dc43>@@AEAV<lambda_f03950bc5685219e0bcd2087efbe011e>@@$$QEAV<lambda_3883c3dff614d5e0c5f61bb1ac94921c>@@@Z@4HA 00000001801c54c8     libucrt:onexit.obj
 0004:000004c8       $pdata$?fin$0@?0???$?RV<lambda_d80eeec6fff315bfe5c115232f3240e3>@@AEAV<lambda_6e4b09c48022b2350581041d5f6b0c4c>@@V<lambda_2358e3775559c9db80273638284d5e45>@@@?$__crt_seh_guarded_call@X@@QEAAX$$QEAV<lambda_d80eeec6fff315bfe5c115232f3240e3>@@AEAV<lambda_6e4b09c48022b2350581041d5f6b0c4c>@@$$QEAV<lambda_2358e3775559c9db80273638284d5e45>@@@Z@4HA 00000001801c54c8     libucrt:exit.obj
 0004:000004c8       $pdata$?fin$0@?0???$?RV<lambda_450d765d439847d4c735a33c368b5fc0>@@AEAV<lambda_44731a7d0e6d81c3e6aa82d741081786>@@V<lambda_601a2a7da3b7a96e9554ac7215c4b07c>@@@?$__crt_seh_guarded_call@P6AXH@Z@@QEAAP6AXH@Z$$QEAV<lambda_450d765d439847d4c735a33c368b5fc0>@@AEAV<lambda_44731a7d0e6d81c3e6aa82d741081786>@@$$QEAV<lambda_601a2a7da3b7a96e9554ac7215c4b07c>@@@Z@4HA 00000001801c54c8     libucrt:signal.obj
 0004:000004c8       $pdata$?fin$0@?0???$?RV<lambda_efdfa57d1f175319df784efa44bb7b81>@@AEAV<lambda_5f0a4c1567f8adc6734073e5d1e1b35c>@@V<lambda_2e8a7d3640ea6ccb4c2413664c2db6fd>@@@?$__crt_seh_guarded_call@X@@QEAAX$$QEAV<lambda_efdfa57d1f175319df784efa44bb7b81>@@AEAV<lambda_5f0a4c1567f8adc6734073e5d1e1b35c>@@$$QEAV<lambda_2e8a7d3640ea6ccb4c2413664c2db6fd>@@@Z@4HA 00000001801c54c8     libucrt:mbctype.obj
 0004:000004c8       $pdata$?fin$0@?0???$?RV<lambda_0ae27a3a962d80f24befdcbee591983d>@@AEAV<lambda_8d0ee55de4b1038c4002e0adecdf1839>@@V<lambda_dc504788e8f1664fe9b84e20bfb512f2>@@@?$__crt_seh_guarded_call@X@@QEAAX$$QEAV<lambda_0ae27a3a962d80f24befdcbee591983d>@@AEAV<lambda_8d0ee55de4b1038c4002e0adecdf1839>@@$$QEAV<lambda_dc504788e8f1664fe9b84e20bfb512f2>@@@Z@4HA 00000001801c54c8     libucrt:per_thread_data.obj
 0004:000004c8       $pdata$?fin$0@?0???$?RV<lambda_aa87e3671a710a21b5dc78c0bdf72e11>@@AEAV<lambda_92619d2358a28f41a33ba319515a20b9>@@V<lambda_6992ecaafeb10aed2b74cb1fae11a551>@@@?$__crt_seh_guarded_call@X@@QEAAX$$QEAV<lambda_aa87e3671a710a21b5dc78c0bdf72e11>@@AEAV<lambda_92619d2358a28f41a33ba319515a20b9>@@$$QEAV<lambda_6992ecaafeb10aed2b74cb1fae11a551>@@@Z@4HA 00000001801c54c8     libucrt:per_thread_data.obj
 0004:000004d4       $pdata$_callnewh           00000001801c54d4     libucrt:new_handler.obj
 0004:000004e0       $pdata$_query_new_handler  00000001801c54e0     libucrt:new_handler.obj
 0004:000004ec       $pdata$_query_new_handler$fin$0 00000001801c54ec     libucrt:new_handler.obj
 0004:000004f8       $pdata$_initterm           00000001801c54f8     libucrt:initterm.obj
 0004:00000504       $pdata$_initterm_e         00000001801c5504     libucrt:initterm.obj
 0004:00000510       $pdata$_seh_filter_exe     00000001801c5510     libucrt:exception_filter.obj
 0004:0000051c       $pdata$_configure_narrow_argv 00000001801c551c     libucrt:argv_parsing.obj
 0004:00000528       $pdata$__acrt_allocate_buffer_for_argv 00000001801c5528     libucrt:argv_parsing.obj
 0004:00000534       $pdata$??$parse_command_line@D@@YAXPEADPEAPEAD0PEA_K2@Z 00000001801c5534     libucrt:argv_parsing.obj
 0004:00000540       $pdata$__dcrt_uninitialize_environments_nolock 00000001801c5540     libucrt:environment_initialization.obj
 0004:0000054c       $pdata$??$common_initialize_environment_nolock@D@@YAHXZ 00000001801c554c     libucrt:environment_initialization.obj
 0004:00000558       $pdata$??$uninitialize_environment_internal@D@@YAXAEAPEAPEAD@Z 00000001801c5558     libucrt:environment_initialization.obj
 0004:00000564       $pdata$??$uninitialize_environment_internal@_W@@YAXAEAPEAPEA_W@Z 00000001801c5564     libucrt:environment_initialization.obj
 0004:00000570       $pdata$??$free_environment@_W@@YAXQEAPEA_W@Z 00000001801c5570     libucrt:environment_initialization.obj
 0004:00000570       $pdata$??$free_environment@D@@YAXQEAPEAD@Z 00000001801c5570     libucrt:environment_initialization.obj
 0004:0000057c       $pdata$??$create_environment@D@@YAQEAPEADQEAD@Z 00000001801c557c     libucrt:environment_initialization.obj
 0004:00000588       $pdata$_execute_onexit_table 00000001801c5588     libucrt:onexit.obj
 0004:00000594       $pdata$??R<lambda_f03950bc5685219e0bcd2087efbe011e>@@QEBAHXZ 00000001801c5594     libucrt:onexit.obj
 0004:000005a0       $pdata$??$?RV<lambda_7777bce6b2f8c936911f934f8298dc43>@@AEAV<lambda_f03950bc5685219e0bcd2087efbe011e>@@V<lambda_3883c3dff614d5e0c5f61bb1ac94921c>@@@?$__crt_seh_guarded_call@H@@QEAAH$$QEAV<lambda_7777bce6b2f8c936911f934f8298dc43>@@AEAV<lambda_f03950bc5685219e0bcd2087efbe011e>@@$$QEAV<lambda_3883c3dff614d5e0c5f61bb1ac94921c>@@@Z 00000001801c55a0     libucrt:onexit.obj
 0004:000005ac       $pdata$__acrt_uninitialize 00000001801c55ac     libucrt:initialization.obj
 0004:000005b8       $pdata$__acrt_uninitialize_critical 00000001801c55b8     libucrt:initialization.obj
 0004:000005c4       $pdata$__acrt_thread_attach 00000001801c55c4     libucrt:initialization.obj
 0004:000005d0       $pdata$__acrt_thread_detach 00000001801c55d0     libucrt:initialization.obj
 0004:000005dc       $pdata$initialize_c        00000001801c55dc     libucrt:initialization.obj
 0004:000005e8       $pdata$uninitialize_environment 00000001801c55e8     libucrt:initialization.obj
 0004:000005f4       $pdata$initialize_pointers 00000001801c55f4     libucrt:initialization.obj
 0004:00000600       $pdata$uninitialize_allocated_memory 00000001801c5600     libucrt:initialization.obj
 0004:0000060c       $pdata$uninitialize_allocated_io_buffers 00000001801c560c     libucrt:initialization.obj
 0004:00000618       $pdata$terminate           00000001801c5618     libucrt:terminate.obj
 0004:00000624       $pdata$abort               00000001801c5624     libucrt:abort.obj
 0004:00000630       $pdata$strcpy_s            00000001801c5630     libucrt:strcpy_s.obj
 0004:0000063c       $pdata$__stdio_common_vfwprintf 00000001801c563c     libucrt:output.obj
 0004:00000648       $pdata$?force_decimal_point@__crt_stdio_output@@YAXPEADQEAU__crt_locale_pointers@@@Z 00000001801c5648     libucrt:output.obj
 0004:00000654       $pdata$??$common_vsprintf@Vstandard_base@__crt_stdio_output@@_W@@YAH_KQEA_W0QEB_WQEAU__crt_locale_pointers@@QEAD@Z 00000001801c5654     libucrt:output.obj
 0004:00000660       $pdata$?write_string_impl@?$output_adapter_common@_WV?$stream_output_adapter@_W@__crt_stdio_output@@@__crt_stdio_output@@IEBAXQEB_WHQEAHAEAV__crt_deferred_errno_cache@@@Z 00000001801c5660     libucrt:output.obj
 0004:0000066c       $pdata$?process@?$output_processor@_WV?$stream_output_adapter@_W@__crt_stdio_output@@V?$standard_base@_WV?$stream_output_adapter@_W@__crt_stdio_output@@@2@@__crt_stdio_output@@QEAAHXZ 00000001801c566c     libucrt:output.obj
 0004:00000678       $pdata$?parse_int_from_format_string@?$output_processor@_WV?$stream_output_adapter@_W@__crt_stdio_output@@V?$standard_base@_WV?$stream_output_adapter@_W@__crt_stdio_output@@@2@@__crt_stdio_output@@AEAA_NQEAH@Z 00000001801c5678     libucrt:output.obj
 0004:00000678       $pdata$?parse_int_from_format_string@?$output_processor@_WV?$string_output_adapter@_W@__crt_stdio_output@@V?$standard_base@_WV?$string_output_adapter@_W@__crt_stdio_output@@@2@@__crt_stdio_output@@AEAA_NQEAH@Z 00000001801c5678     libucrt:output.obj
 0004:00000684       $pdata$?state_case_size@?$output_processor@_WV?$stream_output_adapter@_W@__crt_stdio_output@@V?$standard_base@_WV?$stream_output_adapter@_W@__crt_stdio_output@@@2@@__crt_stdio_output@@AEAA_NXZ 00000001801c5684     libucrt:output.obj
 0004:00000690       $pdata$?state_case_type@?$output_processor@_WV?$stream_output_adapter@_W@__crt_stdio_output@@V?$standard_base@_WV?$stream_output_adapter@_W@__crt_stdio_output@@@2@@__crt_stdio_output@@AEAA_NXZ 00000001801c5690     libucrt:output.obj
 0004:0000069c       $pdata$?type_case_c_tchar@?$output_processor@_WV?$string_output_adapter@_W@__crt_stdio_output@@V?$standard_base@_WV?$string_output_adapter@_W@__crt_stdio_output@@@2@@__crt_stdio_output@@AEAA_N_W@Z 00000001801c569c     libucrt:output.obj
 0004:0000069c       $pdata$?type_case_c_tchar@?$output_processor@_WV?$stream_output_adapter@_W@__crt_stdio_output@@V?$standard_base@_WV?$stream_output_adapter@_W@__crt_stdio_output@@@2@@__crt_stdio_output@@AEAA_N_W@Z 00000001801c569c     libucrt:output.obj
 0004:000006a8       $pdata$?type_case_Z@?$output_processor@_WV?$string_output_adapter@_W@__crt_stdio_output@@V?$standard_base@_WV?$string_output_adapter@_W@__crt_stdio_output@@@2@@__crt_stdio_output@@AEAA_NXZ 00000001801c56a8     libucrt:output.obj
 0004:000006a8       $pdata$?type_case_Z@?$output_processor@_WV?$stream_output_adapter@_W@__crt_stdio_output@@V?$standard_base@_WV?$stream_output_adapter@_W@__crt_stdio_output@@@2@@__crt_stdio_output@@AEAA_NXZ 00000001801c56a8     libucrt:output.obj
 0004:000006b4       $pdata$?type_case_s@?$output_processor@_WV?$string_output_adapter@_W@__crt_stdio_output@@V?$standard_base@_WV?$string_output_adapter@_W@__crt_stdio_output@@@2@@__crt_stdio_output@@AEAA_NXZ 00000001801c56b4     libucrt:output.obj
 0004:000006b4       $pdata$?type_case_s@?$output_processor@_WV?$stream_output_adapter@_W@__crt_stdio_output@@V?$standard_base@_WV?$stream_output_adapter@_W@__crt_stdio_output@@@2@@__crt_stdio_output@@AEAA_NXZ 00000001801c56b4     libucrt:output.obj
 0004:000006c0       $pdata$?type_case_a@?$output_processor@_WV?$stream_output_adapter@_W@__crt_stdio_output@@V?$standard_base@_WV?$stream_output_adapter@_W@__crt_stdio_output@@@2@@__crt_stdio_output@@AEAA_NXZ 00000001801c56c0     libucrt:output.obj
 0004:000006c0       $pdata$?type_case_a@?$output_processor@_WV?$string_output_adapter@_W@__crt_stdio_output@@V?$standard_base@_WV?$string_output_adapter@_W@__crt_stdio_output@@@2@@__crt_stdio_output@@AEAA_NXZ 00000001801c56c0     libucrt:output.obj
 0004:000006cc       $pdata$?type_case_integer@?$output_processor@_WV?$string_output_adapter@_W@__crt_stdio_output@@V?$standard_base@_WV?$string_output_adapter@_W@__crt_stdio_output@@@2@@__crt_stdio_output@@AEAA_NI_N@Z 00000001801c56cc     libucrt:output.obj
 0004:000006cc       $pdata$?type_case_integer@?$output_processor@_WV?$stream_output_adapter@_W@__crt_stdio_output@@V?$standard_base@_WV?$stream_output_adapter@_W@__crt_stdio_output@@@2@@__crt_stdio_output@@AEAA_NI_N@Z 00000001801c56cc     libucrt:output.obj
 0004:000006d8       $pdata$?type_case_n@?$output_processor@_WV?$stream_output_adapter@_W@__crt_stdio_output@@V?$standard_base@_WV?$stream_output_adapter@_W@__crt_stdio_output@@@2@@__crt_stdio_output@@AEAA_NXZ 00000001801c56d8     libucrt:output.obj
 0004:000006d8       $pdata$?type_case_n@?$output_processor@_WV?$string_output_adapter@_W@__crt_stdio_output@@V?$standard_base@_WV?$string_output_adapter@_W@__crt_stdio_output@@@2@@__crt_stdio_output@@AEAA_NXZ 00000001801c56d8     libucrt:output.obj
 0004:000006e4       $pdata$?write_stored_string_tchar@?$output_processor@_WV?$stream_output_adapter@_W@__crt_stdio_output@@V?$standard_base@_WV?$stream_output_adapter@_W@__crt_stdio_output@@@2@@__crt_stdio_output@@AEAA_N_W@Z 00000001801c56e4     libucrt:output.obj
 0004:000006f0       $pdata$??R<lambda_a775ed57af18ba8e4d5dc780aa9068fe>@@QEBAHXZ 00000001801c56f0     libucrt:output.obj
 0004:000006fc       $pdata$?write_string@?$string_output_adapter@_W@__crt_stdio_output@@QEBAXQEB_WHQEAHAEAV__crt_deferred_errno_cache@@@Z 00000001801c56fc     libucrt:output.obj
 0004:00000708       $pdata$?process@?$output_processor@_WV?$string_output_adapter@_W@__crt_stdio_output@@V?$standard_base@_WV?$string_output_adapter@_W@__crt_stdio_output@@@2@@__crt_stdio_output@@QEAAHXZ 00000001801c5708     libucrt:output.obj
 0004:00000714       $pdata$?state_case_size@?$output_processor@_WV?$string_output_adapter@_W@__crt_stdio_output@@V?$standard_base@_WV?$string_output_adapter@_W@__crt_stdio_output@@@2@@__crt_stdio_output@@AEAA_NXZ 00000001801c5714     libucrt:output.obj
 0004:00000720       $pdata$?state_case_type@?$output_processor@_WV?$string_output_adapter@_W@__crt_stdio_output@@V?$standard_base@_WV?$string_output_adapter@_W@__crt_stdio_output@@@2@@__crt_stdio_output@@AEAA_NXZ 00000001801c5720     libucrt:output.obj
 0004:0000072c       $pdata$?write_stored_string_tchar@?$output_processor@_WV?$string_output_adapter@_W@__crt_stdio_output@@V?$standard_base@_WV?$string_output_adapter@_W@__crt_stdio_output@@@2@@__crt_stdio_output@@AEAA_N_W@Z 00000001801c572c     libucrt:output.obj
 0004:00000738       $pdata$??$write_multiple_characters@V?$string_output_adapter@_W@__crt_stdio_output@@D@__crt_stdio_output@@YAXAEBV?$string_output_adapter@_W@0@DHQEAH@Z 00000001801c5738     libucrt:output.obj
 0004:00000744       $pdata$??$write_multiple_characters@V?$stream_output_adapter@_W@__crt_stdio_output@@D@__crt_stdio_output@@YAXAEBV?$stream_output_adapter@_W@0@DHQEAH@Z 00000001801c5744     libucrt:output.obj
 0004:00000750       $pdata$??$ensure_buffer_is_big_enough@D@formatting_buffer@__crt_stdio_output@@QEAA_N_K@Z 00000001801c5750     libucrt:output.obj
 0004:0000075c       $pdata$??$ensure_buffer_is_big_enough@_W@formatting_buffer@__crt_stdio_output@@QEAA_N_K@Z 00000001801c575c     libucrt:output.obj
 0004:00000768       $pdata$??$type_case_integer_parse_into_buffer@_K@?$output_processor@_WV?$string_output_adapter@_W@__crt_stdio_output@@V?$standard_base@_WV?$string_output_adapter@_W@__crt_stdio_output@@@2@@__crt_stdio_output@@AEAAX_KI_N@Z 00000001801c5768     libucrt:output.obj
 0004:00000768       $pdata$??$type_case_integer_parse_into_buffer@_K@?$output_processor@_WV?$stream_output_adapter@_W@__crt_stdio_output@@V?$standard_base@_WV?$stream_output_adapter@_W@__crt_stdio_output@@@2@@__crt_stdio_output@@AEAAX_KI_N@Z 00000001801c5768     libucrt:output.obj
 0004:00000774       $pdata$??$type_case_integer_parse_into_buffer@I@?$output_processor@_WV?$string_output_adapter@_W@__crt_stdio_output@@V?$standard_base@_WV?$string_output_adapter@_W@__crt_stdio_output@@@2@@__crt_stdio_output@@AEAAXII_N@Z 00000001801c5774     libucrt:output.obj
 0004:00000774       $pdata$??$type_case_integer_parse_into_buffer@I@?$output_processor@_WV?$stream_output_adapter@_W@__crt_stdio_output@@V?$standard_base@_WV?$stream_output_adapter@_W@__crt_stdio_output@@@2@@__crt_stdio_output@@AEAAXII_N@Z 00000001801c5774     libucrt:output.obj
 0004:00000780       $pdata$??$?RV<lambda_0d412022a4b28cc8a401ea49574e8ae6>@@AEAV<lambda_a775ed57af18ba8e4d5dc780aa9068fe>@@V<lambda_975a71a6baa488a08f4e15f6b0339b9e>@@@?$__crt_seh_guarded_call@H@@QEAAH$$QEAV<lambda_0d412022a4b28cc8a401ea49574e8ae6>@@AEAV<lambda_a775ed57af18ba8e4d5dc780aa9068fe>@@$$QEAV<lambda_975a71a6baa488a08f4e15f6b0339b9e>@@@Z 00000001801c5780     libucrt:output.obj
 0004:0000078c       $pdata$?fin$0@?0???$?RV<lambda_0d412022a4b28cc8a401ea49574e8ae6>@@AEAV<lambda_a775ed57af18ba8e4d5dc780aa9068fe>@@V<lambda_975a71a6baa488a08f4e15f6b0339b9e>@@@?$__crt_seh_guarded_call@H@@QEAAH$$QEAV<lambda_0d412022a4b28cc8a401ea49574e8ae6>@@AEAV<lambda_a775ed57af18ba8e4d5dc780aa9068fe>@@$$QEAV<lambda_975a71a6baa488a08f4e15f6b0339b9e>@@@Z@4HA 00000001801c578c     libucrt:output.obj
 0004:0000078c       $pdata$?fin$0@?0???$?RV<lambda_842d9ff0dc9ef11c61343bbaebe7f885>@@AEAV<lambda_c5860995281e5c4ce005b3de8f5874ee>@@V<lambda_d90129c13df834fdcbf8d2b88dafcf2d>@@@?$__crt_seh_guarded_call@X@@QEAAX$$QEAV<lambda_842d9ff0dc9ef11c61343bbaebe7f885>@@AEAV<lambda_c5860995281e5c4ce005b3de8f5874ee>@@$$QEAV<lambda_d90129c13df834fdcbf8d2b88dafcf2d>@@@Z@4HA 00000001801c578c     libucrt:fflush.obj
 0004:0000078c       $pdata$?fin$0@?0???$?RV<lambda_c376a267cfb53b6959b3b692ec76b120>@@AEAV<lambda_9a32fed5bf61b6b509b2d3f6003082a1>@@V<lambda_572fbb9fa0ab338edf41edfd4b5fcc8d>@@@?$__crt_seh_guarded_call@H@@QEAAH$$QEAV<lambda_c376a267cfb53b6959b3b692ec76b120>@@AEAV<lambda_9a32fed5bf61b6b509b2d3f6003082a1>@@$$QEAV<lambda_572fbb9fa0ab338edf41edfd4b5fcc8d>@@@Z@4HA 00000001801c578c     libucrt:fflush.obj
 0004:0000078c       $pdata$?fin$0@?0???$?RV<lambda_84ec643ea9557e2f7dc01bb0e9624395>@@AEAV<lambda_ca71763b3c0644891230e4f79ea54fa6>@@V<lambda_439a761618c59b0600e24586724d733b>@@@?$__crt_seh_guarded_call@H@@QEAAH$$QEAV<lambda_84ec643ea9557e2f7dc01bb0e9624395>@@AEAV<lambda_ca71763b3c0644891230e4f79ea54fa6>@@$$QEAV<lambda_439a761618c59b0600e24586724d733b>@@@Z@4HA 00000001801c578c     libucrt:setvbuf.obj
 0004:00000798       $pdata$??$parse_integer@KV?$c_string_character_source@_W@__crt_strtox@@@__crt_strtox@@YAKQEAU__crt_locale_pointers@@V?$c_string_character_source@_W@0@H_N@Z 00000001801c5798     libucrt:atox.obj
 0004:000007b0       $pdata$_invalid_parameter_noinfo 00000001801c57b0     libucrt:invalid_parameter.obj
 0004:000007bc       $pdata$_invoke_watson      00000001801c57bc     libucrt:invalid_parameter.obj
 0004:000007c8       $pdata$__acrt_call_reportfault 00000001801c57c8     libucrt:invalid_parameter.obj
 0004:000007d4       $pdata$_invalid_parameter  00000001801c57d4     libucrt:invalid_parameter.obj
 0004:000007e0       $pdata$_errno              00000001801c57e0     libucrt:errno.obj
 0004:000007ec       $pdata$__doserrno          00000001801c57ec     libucrt:errno.obj
 0004:000007f8       $pdata$__acrt_errno_map_os_error 00000001801c57f8     libucrt:errno.obj
 0004:00000804       $pdata$_itow_s             00000001801c5804     libucrt:xtoa.obj
 0004:00000810       $pdata$??$common_xtox_s@K_W@@YAHKQEA_W_KI_N@Z 00000001801c5810     libucrt:xtoa.obj
 0004:0000081c       $pdata$??$common_xtox@K_W@@YAHKQEA_W_KI_N@Z 00000001801c581c     libucrt:xtoa.obj
 0004:00000828       $pdata$_set_error_mode     00000001801c5828     libucrt:set_error_mode.obj
 0004:00000834       $pdata$wcscat_s            00000001801c5834     libucrt:wcscat_s.obj
 0004:00000840       $pdata$wcscpy_s            00000001801c5840     libucrt:wcscpy_s.obj
 0004:0000084c       $pdata$wcsncat_s           00000001801c584c     libucrt:wcsncat_s.obj
 0004:00000858       $pdata$__acrt_GetModuleFileNameA 00000001801c5858     libucrt:getmodulefilenamea.obj
 0004:00000864       $pdata$??$__acrt_wcs_to_mbs_cp@U__crt_win32_buffer_no_resizing@@@@YAHQEB_WAEAV?$__crt_win32_buffer@DU__crt_win32_buffer_no_resizing@@@@I@Z 00000001801c5864     libucrt:getmodulefilenamea.obj
 0004:00000870       $pdata$__acrt_show_wide_message_box 00000001801c5870     libucrt:crtmbox.obj
 0004:0000087c       $pdata$__acrt_initialize_stdio 00000001801c587c     libucrt:_file.obj
 0004:00000888       $pdata$__acrt_uninitialize_stdio 00000001801c5888     libucrt:_file.obj
 0004:00000894       $pdata$fflush              00000001801c5894     libucrt:fflush.obj
 0004:000008a0       $pdata$_fflush_nolock      00000001801c58a0     libucrt:fflush.obj
 0004:000008ac       $pdata$__acrt_stdio_flush_nolock 00000001801c58ac     libucrt:fflush.obj
 0004:000008b8       $pdata$?common_flush_all@@YAH_N@Z 00000001801c58b8     libucrt:fflush.obj
 0004:000008c4       $pdata$??$?RV<lambda_842d9ff0dc9ef11c61343bbaebe7f885>@@AEAV<lambda_c5860995281e5c4ce005b3de8f5874ee>@@V<lambda_d90129c13df834fdcbf8d2b88dafcf2d>@@@?$__crt_seh_guarded_call@X@@QEAAX$$QEAV<lambda_842d9ff0dc9ef11c61343bbaebe7f885>@@AEAV<lambda_c5860995281e5c4ce005b3de8f5874ee>@@$$QEAV<lambda_d90129c13df834fdcbf8d2b88dafcf2d>@@@Z 00000001801c58c4     libucrt:fflush.obj
 0004:000008d0       $pdata$??$?RV<lambda_886d6c58226a84441f68b9f2b8217b83>@@AEAV<lambda_ab61a845afdef5b7c387490eaf3616ee>@@V<lambda_f7f22ab5edc0698d5f6905b0d3f44752>@@@?$__crt_seh_guarded_call@X@@QEAAX$$QEAV<lambda_886d6c58226a84441f68b9f2b8217b83>@@AEAV<lambda_ab61a845afdef5b7c387490eaf3616ee>@@$$QEAV<lambda_f7f22ab5edc0698d5f6905b0d3f44752>@@@Z 00000001801c58d0     libucrt:fflush.obj
 0004:000008dc       $pdata$?fin$0@?0???$?RV<lambda_886d6c58226a84441f68b9f2b8217b83>@@AEAV<lambda_ab61a845afdef5b7c387490eaf3616ee>@@V<lambda_f7f22ab5edc0698d5f6905b0d3f44752>@@@?$__crt_seh_guarded_call@X@@QEAAX$$QEAV<lambda_886d6c58226a84441f68b9f2b8217b83>@@AEAV<lambda_ab61a845afdef5b7c387490eaf3616ee>@@$$QEAV<lambda_f7f22ab5edc0698d5f6905b0d3f44752>@@@Z@4HA 00000001801c58dc     libucrt:fflush.obj
 0004:000008e8       $pdata$??$?RV<lambda_c376a267cfb53b6959b3b692ec76b120>@@AEAV<lambda_9a32fed5bf61b6b509b2d3f6003082a1>@@V<lambda_572fbb9fa0ab338edf41edfd4b5fcc8d>@@@?$__crt_seh_guarded_call@H@@QEAAH$$QEAV<lambda_c376a267cfb53b6959b3b692ec76b120>@@AEAV<lambda_9a32fed5bf61b6b509b2d3f6003082a1>@@$$QEAV<lambda_572fbb9fa0ab338edf41edfd4b5fcc8d>@@@Z 00000001801c58e8     libucrt:fflush.obj
 0004:000008f4       $pdata$setvbuf             00000001801c58f4     libucrt:setvbuf.obj
 0004:00000900       $pdata$??R<lambda_ca71763b3c0644891230e4f79ea54fa6>@@QEBAHXZ 00000001801c5900     libucrt:setvbuf.obj
 0004:0000090c       $pdata$??$?RV<lambda_84ec643ea9557e2f7dc01bb0e9624395>@@AEAV<lambda_ca71763b3c0644891230e4f79ea54fa6>@@V<lambda_439a761618c59b0600e24586724d733b>@@@?$__crt_seh_guarded_call@H@@QEAAH$$QEAV<lambda_84ec643ea9557e2f7dc01bb0e9624395>@@AEAV<lambda_ca71763b3c0644891230e4f79ea54fa6>@@$$QEAV<lambda_439a761618c59b0600e24586724d733b>@@@Z 00000001801c590c     libucrt:setvbuf.obj
 0004:00000918       $pdata$__acrt_get_sigabrt_handler 00000001801c5918     libucrt:signal.obj
 0004:00000924       $pdata$raise               00000001801c5924     libucrt:signal.obj
 0004:00000930       $pdata$raise$fin$0         00000001801c5930     libucrt:signal.obj
 0004:0000093c       $pdata$??$?RV<lambda_450d765d439847d4c735a33c368b5fc0>@@AEAV<lambda_44731a7d0e6d81c3e6aa82d741081786>@@V<lambda_601a2a7da3b7a96e9554ac7215c4b07c>@@@?$__crt_seh_guarded_call@P6AXH@Z@@QEAAP6AXH@Z$$QEAV<lambda_450d765d439847d4c735a33c368b5fc0>@@AEAV<lambda_44731a7d0e6d81c3e6aa82d741081786>@@$$QEAV<lambda_601a2a7da3b7a96e9554ac7215c4b07c>@@@Z 00000001801c593c     libucrt:signal.obj
 0004:00000948       $pdata$__acrt_initialize_ptd 00000001801c5948     libucrt:per_thread_data.obj
 0004:00000954       $pdata$__acrt_uninitialize_ptd 00000001801c5954     libucrt:per_thread_data.obj
 0004:00000960       $pdata$__acrt_getptd       00000001801c5960     libucrt:per_thread_data.obj
 0004:0000096c       $pdata$__acrt_getptd_head  00000001801c596c     libucrt:per_thread_data.obj
 0004:00000978       $pdata$__acrt_getptd_noexit 00000001801c5978     libucrt:per_thread_data.obj
 0004:00000984       $pdata$__acrt_freeptd      00000001801c5984     libucrt:per_thread_data.obj
 0004:00000990       $pdata$?destroy_fls@@YAXPEAX@Z 00000001801c5990     libucrt:per_thread_data.obj
 0004:0000099c       $pdata$?replace_current_thread_locale_nolock@@YAXQEAU__acrt_ptd@@QEAU__crt_locale_data@@@Z 00000001801c599c     libucrt:per_thread_data.obj
 0004:000009a8       $pdata$?construct_ptd_array@@YAXQEAU__acrt_ptd@@@Z 00000001801c59a8     libucrt:per_thread_data.obj
 0004:000009b4       $pdata$?destroy_ptd_array@@YAXQEAU__acrt_ptd@@@Z 00000001801c59b4     libucrt:per_thread_data.obj
 0004:000009c0       $pdata$??$?RV<lambda_0ae27a3a962d80f24befdcbee591983d>@@AEAV<lambda_8d0ee55de4b1038c4002e0adecdf1839>@@V<lambda_dc504788e8f1664fe9b84e20bfb512f2>@@@?$__crt_seh_guarded_call@X@@QEAAX$$QEAV<lambda_0ae27a3a962d80f24befdcbee591983d>@@AEAV<lambda_8d0ee55de4b1038c4002e0adecdf1839>@@$$QEAV<lambda_dc504788e8f1664fe9b84e20bfb512f2>@@@Z 00000001801c59c0     libucrt:per_thread_data.obj
 0004:000009cc       $pdata$??$?RV<lambda_aa87e3671a710a21b5dc78c0bdf72e11>@@AEAV<lambda_92619d2358a28f41a33ba319515a20b9>@@V<lambda_6992ecaafeb10aed2b74cb1fae11a551>@@@?$__crt_seh_guarded_call@X@@QEAAX$$QEAV<lambda_aa87e3671a710a21b5dc78c0bdf72e11>@@AEAV<lambda_92619d2358a28f41a33ba319515a20b9>@@$$QEAV<lambda_6992ecaafeb10aed2b74cb1fae11a551>@@@Z 00000001801c59cc     libucrt:per_thread_data.obj
 0004:000009d8       $pdata$??$?RV<lambda_f2e299630e499de9f9a165e60fcd3db5>@@AEAV<lambda_2ae9d31cdba2644fcbeaf08da7c24588>@@V<lambda_40d01ff24d0e7b3814fdbdcee8eab3c7>@@@?$__crt_seh_guarded_call@X@@QEAAX$$QEAV<lambda_f2e299630e499de9f9a165e60fcd3db5>@@AEAV<lambda_2ae9d31cdba2644fcbeaf08da7c24588>@@$$QEAV<lambda_40d01ff24d0e7b3814fdbdcee8eab3c7>@@@Z 00000001801c59d8     libucrt:per_thread_data.obj
 0004:000009e4       $pdata$??$?RV<lambda_2d41944a1d46af3157314b8a01080d33>@@AEAV<lambda_8f455de75cd7d7f24b4096f044d8b9e6>@@V<lambda_aa500f224e6afead328df44964fe2772>@@@?$__crt_seh_guarded_call@X@@QEAAX$$QEAV<lambda_2d41944a1d46af3157314b8a01080d33>@@AEAV<lambda_8f455de75cd7d7f24b4096f044d8b9e6>@@$$QEAV<lambda_aa500f224e6afead328df44964fe2772>@@@Z 00000001801c59e4     libucrt:per_thread_data.obj
 0004:000009f0       $pdata$__acrt_update_locale_info 00000001801c59f0     libucrt:locale_update.obj
 0004:000009fc       $pdata$__acrt_update_multibyte_info 00000001801c59fc     libucrt:locale_update.obj
 0004:00000a08       $pdata$__acrt_uninitialize_locale 00000001801c5a08     libucrt:wsetlocale.obj
 0004:00000a14       $pdata$??$?RV<lambda_410d79af7f07d98d83a3f525b3859a53>@@AEAV<lambda_3e16ef9562a7dcce91392c22ab16ea36>@@V<lambda_38119f0e861e05405d8a144b9b982f0a>@@@?$__crt_seh_guarded_call@X@@QEAAX$$QEAV<lambda_410d79af7f07d98d83a3f525b3859a53>@@AEAV<lambda_3e16ef9562a7dcce91392c22ab16ea36>@@$$QEAV<lambda_38119f0e861e05405d8a144b9b982f0a>@@@Z 00000001801c5a14     libucrt:wsetlocale.obj
 0004:00000a20       $pdata$?fin$0@?0???$?RV<lambda_410d79af7f07d98d83a3f525b3859a53>@@AEAV<lambda_3e16ef9562a7dcce91392c22ab16ea36>@@V<lambda_38119f0e861e05405d8a144b9b982f0a>@@@?$__crt_seh_guarded_call@X@@QEAAX$$QEAV<lambda_410d79af7f07d98d83a3f525b3859a53>@@AEAV<lambda_3e16ef9562a7dcce91392c22ab16ea36>@@$$QEAV<lambda_38119f0e861e05405d8a144b9b982f0a>@@@Z@4HA 00000001801c5a20     libucrt:wsetlocale.obj
 0004:00000a2c       $pdata$_calloc_base        00000001801c5a2c     libucrt:calloc_base.obj
 0004:00000a38       $pdata$_realloc_base       00000001801c5a38     libucrt:realloc_base.obj
 0004:00000a44       $pdata$_free_base          00000001801c5a44     libucrt:free_base.obj
 0004:00000a50       $pdata$_malloc_base        00000001801c5a50     libucrt:malloc_base.obj
 0004:00000a5c       $pdata$__pctype_func       00000001801c5a5c     libucrt:ctype.obj
 0004:00000a68       $pdata$_isleadbyte_l       00000001801c5a68     libucrt:_wctype.obj
 0004:00000a74       $pdata$_isctype_l          00000001801c5a74     libucrt:isctype.obj
 0004:00000a80       $pdata$__acrt_LCMapStringA 00000001801c5a80     libucrt:lcmapstringa.obj
 0004:00000a8c       $pdata$?__acrt_LCMapStringA_stat@@YAHPEAU__crt_locale_pointers@@PEB_WKPEBDHPEADHHH@Z 00000001801c5a8c     libucrt:lcmapstringa.obj
 0004:00000a98       $pdata$_except2            00000001801c5a98     libucrt:fpexcept.obj
 0004:00000aa4       $pdata$_set_errno_from_matherr 00000001801c5aa4     libucrt:fpexcept.obj
 0004:00000ab0       $pdata$_handle_exc         00000001801c5ab0     libucrt:fpexcept.obj
 0004:00000abc       $pdata$_raise_exc          00000001801c5abc     libucrt:fpexcept.obj
 0004:00000ac8       $pdata$_umatherr           00000001801c5ac8     libucrt:fpexcept.obj
 0004:00000ad4       $pdata$_raise_exc_ex       00000001801c5ad4     libucrt:fpexcept.obj
 0004:00000ae0       $pdata$_clrfp              00000001801c5ae0     libucrt:fpctrl.obj
 0004:00000aec       $pdata$_ctrlfp             00000001801c5aec     libucrt:fpctrl.obj
 0004:00000af8       $pdata$_ctrlfp$filt$0      00000001801c5af8     libucrt:fpctrl.obj
 0004:00000b04       $pdata$_statfp             00000001801c5b04     libucrt:fpctrl.obj
 0004:00000b10       $pdata$_set_statfp         00000001801c5b10     libucrt:fpctrl.obj
 0004:00000b1c       $pdata$__acrt_initialize_locks 00000001801c5b1c     libucrt:locks.obj
 0004:00000b28       $pdata$__acrt_uninitialize_locks 00000001801c5b28     libucrt:locks.obj
 0004:00000b34       $pdata$__acrt_get_process_end_policy 00000001801c5b34     libucrt:win_policies.obj
 0004:00000b40       $pdata$__acrt_get_developer_information_policy 00000001801c5b40     libucrt:win_policies.obj
 0004:00000b4c       $pdata$__acrt_get_windowing_model_policy 00000001801c5b4c     libucrt:win_policies.obj
 0004:00000b58       $pdata$??$__acrt_mbs_to_wcs_cp@U__crt_win32_buffer_internal_dynamic_resizing@@@@YAHQEBDAEAV?$__crt_win32_buffer@_WU__crt_win32_buffer_internal_dynamic_resizing@@@@I@Z 00000001801c5b58     libucrt:argv_wildcards.obj
 0004:00000b64       $pdata$??$__acrt_wcs_to_mbs_cp@U__crt_win32_buffer_internal_dynamic_resizing@@@@YAHQEB_WAEAV?$__crt_win32_buffer@DU__crt_win32_buffer_internal_dynamic_resizing@@@@I@Z 00000001801c5b64     libucrt:argv_wildcards.obj
 0004:00000b70       $pdata$??$common_expand_argv_wildcards@D@@YAHQEAPEADQEAPEAPEAD@Z 00000001801c5b70     libucrt:argv_wildcards.obj
 0004:00000b7c       $pdata$??$copy_and_add_argument_to_buffer@D@@YAHQEBD0_KAEAV?$argument_list@D@?A0x5f5c8891@@@Z 00000001801c5b7c     libucrt:argv_wildcards.obj
 0004:00000b88       $pdata$??$expand_argument_wildcards@D@@YAHQEAD0AEAV?$argument_list@D@?A0x5f5c8891@@@Z 00000001801c5b88     libucrt:argv_wildcards.obj
 0004:00000b94       $pdata$__acrt_update_thread_multibyte_data 00000001801c5b94     libucrt:mbctype.obj
 0004:00000ba0       $pdata$__acrt_initialize_multibyte 00000001801c5ba0     libucrt:mbctype.obj
 0004:00000bac       $pdata$_setmbcp_nolock     00000001801c5bac     libucrt:mbctype.obj
 0004:00000bb8       $pdata$?getSystemCP@@YAHH@Z 00000001801c5bb8     libucrt:mbctype.obj
 0004:00000bc4       $pdata$?setSBCS@@YAXPEAU__crt_multibyte_data@@@Z 00000001801c5bc4     libucrt:mbctype.obj
 0004:00000bd0       $pdata$?update_thread_multibyte_data_internal@@YAPEAU__crt_multibyte_data@@QEAU__acrt_ptd@@QEAPEAU1@@Z 00000001801c5bd0     libucrt:mbctype.obj
 0004:00000bdc       $pdata$?fin$0@?0??update_thread_multibyte_data_internal@@YAPEAU__crt_multibyte_data@@QEAU__acrt_ptd@@QEAPEAU1@@Z@4HA 00000001801c5bdc     libucrt:mbctype.obj
 0004:00000be8       $pdata$?setmbcp_internal@@YAHH_NQEAU__acrt_ptd@@QEAPEAU__crt_multibyte_data@@@Z 00000001801c5be8     libucrt:mbctype.obj
 0004:00000bf4       $pdata$?setSBUpLow@@YAXPEAU__crt_multibyte_data@@@Z 00000001801c5bf4     libucrt:mbctype.obj
 0004:00000c00       $pdata$??$?RV<lambda_efdfa57d1f175319df784efa44bb7b81>@@AEAV<lambda_5f0a4c1567f8adc6734073e5d1e1b35c>@@V<lambda_2e8a7d3640ea6ccb4c2413664c2db6fd>@@@?$__crt_seh_guarded_call@X@@QEAAX$$QEAV<lambda_efdfa57d1f175319df784efa44bb7b81>@@AEAV<lambda_5f0a4c1567f8adc6734073e5d1e1b35c>@@$$QEAV<lambda_2e8a7d3640ea6ccb4c2413664c2db6fd>@@@Z 00000001801c5c00     libucrt:mbctype.obj
 0004:00000c0c       $pdata$?x_ismbbtype_l@@YAHPEAU__crt_locale_pointers@@IHH@Z 00000001801c5c0c     libucrt:ismbbyte.obj
 0004:00000c18       $pdata$__acrt_initialize_command_line 00000001801c5c18     libucrt:argv_data.obj
 0004:00000c24       $pdata$__acrt_WideCharToMultiByte 00000001801c5c24     libucrt:widechartomultibyte.obj
 0004:00000c30       $pdata$__dcrt_get_narrow_environment_from_os 00000001801c5c30     libucrt:get_environment_from_os.obj
 0004:00000c3c       $pdata$_recalloc_base      00000001801c5c3c     libucrt:recalloc.obj
 0004:00000c48       $pdata$__acrt_initialize_winapi_thunks 00000001801c5c48     libucrt:winapi_thunks.obj
 0004:00000c54       $pdata$__acrt_uninitialize_winapi_thunks 00000001801c5c54     libucrt:winapi_thunks.obj
 0004:00000c60       $pdata$__acrt_AreFileApisANSI 00000001801c5c60     libucrt:winapi_thunks.obj
 0004:00000c6c       $pdata$__acrt_FlsAlloc     00000001801c5c6c     libucrt:winapi_thunks.obj
 0004:00000c78       $pdata$__acrt_FlsFree      00000001801c5c78     libucrt:winapi_thunks.obj
 0004:00000c84       $pdata$__acrt_FlsGetValue  00000001801c5c84     libucrt:winapi_thunks.obj
 0004:00000c90       $pdata$__acrt_FlsSetValue  00000001801c5c90     libucrt:winapi_thunks.obj
 0004:00000c9c       $pdata$__acrt_InitializeCriticalSectionEx 00000001801c5c9c     libucrt:winapi_thunks.obj
 0004:00000ca8       $pdata$__acrt_LCMapStringEx 00000001801c5ca8     libucrt:winapi_thunks.obj
 0004:00000cb4       $pdata$__acrt_LocaleNameToLCID 00000001801c5cb4     libucrt:winapi_thunks.obj
 0004:00000cc0       $pdata$__acrt_MessageBoxW  00000001801c5cc0     libucrt:winapi_thunks.obj
 0004:00000ccc       $pdata$__acrt_AppPolicyGetProcessTerminationMethodInternal 00000001801c5ccc     libucrt:winapi_thunks.obj
 0004:00000cd8       $pdata$__acrt_AppPolicyGetShowDeveloperDiagnosticInternal 00000001801c5cd8     libucrt:winapi_thunks.obj
 0004:00000ce4       $pdata$__acrt_AppPolicyGetWindowingModelInternal 00000001801c5ce4     libucrt:winapi_thunks.obj
 0004:00000cf0       $pdata$__acrt_can_show_message_box 00000001801c5cf0     libucrt:winapi_thunks.obj
 0004:00000cfc       $pdata$__acrt_get_parent_window 00000001801c5cfc     libucrt:winapi_thunks.obj
 0004:00000d08       $pdata$__acrt_is_interactive 00000001801c5d08     libucrt:winapi_thunks.obj
 0004:00000d14       $pdata$?try_get_function@@YAPEAXW4function_id@?A0x391cf84c@@QEBDQEBW4module_id@2@2@Z 00000001801c5d14     libucrt:winapi_thunks.obj
 0004:00000d20       $pdata$__acrt_initialize_heap 00000001801c5d20     libucrt:heap_handle.obj
 0004:00000d2c       $pdata$__acrt_initialize_lowio 00000001801c5d2c     libucrt:ioinit.obj
 0004:00000d38       $pdata$__acrt_initialize_lowio$fin$0 00000001801c5d38     libucrt:ioinit.obj
 0004:00000d38       $pdata$__acrt_lowio_ensure_fh_exists$fin$0 00000001801c5d38     libucrt:osfinfo.obj
 0004:00000d44       $pdata$__acrt_uninitialize_lowio 00000001801c5d44     libucrt:ioinit.obj
 0004:00000d50       $pdata$?initialize_inherited_file_handles_nolock@@YAXXZ 00000001801c5d50     libucrt:ioinit.obj
 0004:00000d5c       $pdata$?initialize_stdio_handles_nolock@@YAXXZ 00000001801c5d5c     libucrt:ioinit.obj
 0004:00000d68       $pdata$__acrt_execute_initializers 00000001801c5d68     libucrt:shared_initialization.obj
 0004:00000d74       $pdata$__acrt_execute_uninitializers 00000001801c5d74     libucrt:shared_initialization.obj
 0004:00000d80       $pdata$__acrt_stdio_begin_temporary_buffering_nolock 00000001801c5d80     libucrt:_sftbuf.obj
 0004:00000d8c       $pdata$__acrt_stdio_end_temporary_buffering_nolock 00000001801c5d8c     libucrt:_sftbuf.obj
 0004:00000d98       $pdata$isdigit             00000001801c5d98     libucrt:_ctype.obj
 0004:00000da4       $pdata$wcstol              00000001801c5da4     libucrt:strtox.obj
 0004:00000db0       $pdata$_mbtowc_l           00000001801c5db0     libucrt:mbtowc.obj
 0004:00000dbc       $pdata$wctomb_s            00000001801c5dbc     libucrt:wctomb.obj
 0004:00000dc8       $pdata$_wctomb_s_l         00000001801c5dc8     libucrt:wctomb.obj
 0004:00000dd4       $pdata$__acrt_fp_format    00000001801c5dd4     libucrt:cvt.obj
 0004:00000de0       $pdata$?fp_format_nan_or_infinity@@YAHW4__acrt_fp_class@@_NPEAD_K1@Z 00000001801c5de0     libucrt:cvt.obj
 0004:00000dec       $pdata$?fp_format_e_internal@@YAHQEAD_KH_NIQEAU_strflt@@2QEAU__crt_locale_pointers@@@Z 00000001801c5dec     libucrt:cvt.obj
 0004:00000df8       $pdata$?fp_format_e@@YAHQEBNQEAD_K12H_NIQEAU__crt_locale_pointers@@@Z 00000001801c5df8     libucrt:cvt.obj
 0004:00000e04       $pdata$?fp_format_a@@YAHQEBNPEAD_KQEAD2H_NIQEAU__crt_locale_pointers@@@Z 00000001801c5e04     libucrt:cvt.obj
 0004:00000e10       $pdata$?fp_format_f_internal@@YAHQEAD_KHQEAU_strflt@@_NQEAU__crt_locale_pointers@@@Z 00000001801c5e10     libucrt:cvt.obj
 0004:00000e1c       $pdata$?fp_format_g@@YAHQEBNQEAD_K12H_NIQEAU__crt_locale_pointers@@@Z 00000001801c5e1c     libucrt:cvt.obj
 0004:00000e28       $pdata$_fputwc_nolock      00000001801c5e28     libucrt:fputwc.obj
 0004:00000e34       $pdata$_fileno             00000001801c5e34     libucrt:fileno.obj
 0004:00000e40       $pdata$iswctype            00000001801c5e40     libucrt:iswctype.obj
 0004:00000e4c       $pdata$_fcloseall          00000001801c5e4c     libucrt:closeall.obj
 0004:00000e58       $pdata$_fcloseall$fin$0    00000001801c5e58     libucrt:closeall.obj
 0004:00000e64       $pdata$__acrt_stdio_free_buffer_nolock 00000001801c5e64     libucrt:_freebuf.obj
 0004:00000e70       $pdata$_commit             00000001801c5e70     libucrt:commit.obj
 0004:00000e7c       $pdata$??$?RV<lambda_a37b2b86f63e897a80ea819b0eb08c01>@@AEAV<lambda_38ce7e780aa69e748d6df282ebc68efe>@@V<lambda_99fb1378e971ab6e7edea83e3a7a83a2>@@@?$__crt_seh_guarded_call@H@@QEAAH$$QEAV<lambda_a37b2b86f63e897a80ea819b0eb08c01>@@AEAV<lambda_38ce7e780aa69e748d6df282ebc68efe>@@$$QEAV<lambda_99fb1378e971ab6e7edea83e3a7a83a2>@@@Z 00000001801c5e7c     libucrt:commit.obj
 0004:00000e88       $pdata$?fin$0@?0???$?RV<lambda_a37b2b86f63e897a80ea819b0eb08c01>@@AEAV<lambda_38ce7e780aa69e748d6df282ebc68efe>@@V<lambda_99fb1378e971ab6e7edea83e3a7a83a2>@@@?$__crt_seh_guarded_call@H@@QEAAH$$QEAV<lambda_a37b2b86f63e897a80ea819b0eb08c01>@@AEAV<lambda_38ce7e780aa69e748d6df282ebc68efe>@@$$QEAV<lambda_99fb1378e971ab6e7edea83e3a7a83a2>@@@Z@4HA 00000001801c5e88     libucrt:commit.obj
 0004:00000e88       $pdata$?fin$0@?0???$?RV<lambda_751a882b2c74d4b022dec766aa51a29a>@@AEAV<lambda_628dfdc04ba53c8bfc02c9951375f3f5>@@V<lambda_f6c7be5f7998530c34de24c7437d6b54>@@@?$__crt_seh_guarded_call@H@@QEAAH$$QEAV<lambda_751a882b2c74d4b022dec766aa51a29a>@@AEAV<lambda_628dfdc04ba53c8bfc02c9951375f3f5>@@$$QEAV<lambda_f6c7be5f7998530c34de24c7437d6b54>@@@Z@4HA 00000001801c5e88     libucrt:close.obj
 0004:00000e94       $pdata$_write              00000001801c5e94     libucrt:write.obj
 0004:00000ea0       $pdata$?fin$0@?0???$common_lseek@_J@@YA_JH_JH@Z@4HA 00000001801c5ea0     libucrt:lseek.obj
 0004:00000ea0       $pdata$_write$fin$0        00000001801c5ea0     libucrt:write.obj
 0004:00000eac       $pdata$_write_nolock       00000001801c5eac     libucrt:write.obj
 0004:00000eb8       $pdata$?write_double_translated_ansi_nolock@@YA?AUwrite_result@?A0x17268360@@HQEBDI@Z 00000001801c5eb8     libucrt:write.obj
 0004:00000ec4       $pdata$?write_text_ansi_nolock@@YA?AUwrite_result@?A0x17268360@@HQEBDI@Z 00000001801c5ec4     libucrt:write.obj
 0004:00000ed0       $pdata$?write_text_utf16le_nolock@@YA?AUwrite_result@?A0x17268360@@HQEBDI@Z 00000001801c5ed0     libucrt:write.obj
 0004:00000edc       $pdata$?write_text_utf8_nolock@@YA?AUwrite_result@?A0x17268360@@HQEBDI@Z 00000001801c5edc     libucrt:write.obj
 0004:00000ee8       $pdata$__acrt_release_locale_ref 00000001801c5ee8     libucrt:locale_refcounting.obj
 0004:00000ef4       $pdata$__acrt_free_locale  00000001801c5ef4     libucrt:locale_refcounting.obj
 0004:00000f00       $pdata$__acrt_locale_free_lc_time_if_unreferenced 00000001801c5f00     libucrt:locale_refcounting.obj
 0004:00000f0c       $pdata$__acrt_update_thread_locale_data 00000001801c5f0c     libucrt:locale_refcounting.obj
 0004:00000f18       $pdata$__acrt_update_thread_locale_data$fin$0 00000001801c5f18     libucrt:locale_refcounting.obj
 0004:00000f24       $pdata$_updatetlocinfoEx_nolock 00000001801c5f24     libucrt:locale_refcounting.obj
 0004:00000f30       $pdata$__acrt_locale_free_monetary 00000001801c5f30     libucrt:initmon.obj
 0004:00000f3c       $pdata$__acrt_locale_free_numeric 00000001801c5f3c     libucrt:initnum.obj
 0004:00000f48       $pdata$__acrt_locale_free_time 00000001801c5f48     libucrt:inittime.obj
 0004:00000f54       $pdata$?free_crt_array_internal@@YAXQEAPEBX_K@Z 00000001801c5f54     libucrt:inittime.obj
 0004:00000f60       $pdata$__acrt_GetStringTypeA 00000001801c5f60     libucrt:getstringtypea.obj
 0004:00000f78       $pdata$strncpy_s           00000001801c5f78     libucrt:strncpy_s.obj
 0004:00000f84       $pdata$strpbrk             00000001801c5f84     libucrt:strpbrk.obj
 0004:00000f90       $pdata$fallbackMethod      00000001801c5f90     libucrt:strpbrk.obj
 0004:00000f9c       $pdata$_mbsdec_l           00000001801c5f9c     libucrt:mbsdec.obj
 0004:00000fa8       $pdata$?initialize_multibyte@@YAHXZ 00000001801c5fa8     libucrt:multibyte_initializer.obj
 0004:00000fb4       $pdata$_msize_base         00000001801c5fb4     libucrt:msize.obj
 0004:00000fc0       $pdata$__acrt_DownlevelLocaleNameToLCID 00000001801c5fc0     libucrt:lcidtoname_downlevel.obj
 0004:00000fcc       $pdata$?GetTableIndexFromLocaleName@@YAHPEB_W@Z 00000001801c5fcc     libucrt:lcidtoname_downlevel.obj
 0004:00000fd8       $pdata$_get_osfhandle      00000001801c5fd8     libucrt:osfinfo.obj
 0004:00000fe4       $pdata$_free_osfhnd        00000001801c5fe4     libucrt:osfinfo.obj
 0004:00000ff0       $pdata$__acrt_lowio_create_handle_array 00000001801c5ff0     libucrt:osfinfo.obj
 0004:00000ffc       $pdata$__acrt_lowio_destroy_handle_array 00000001801c5ffc     libucrt:osfinfo.obj
 0004:00001008       $pdata$__acrt_lowio_ensure_fh_exists 00000001801c6008     libucrt:osfinfo.obj
 0004:00001014       $pdata$_isatty             00000001801c6014     libucrt:isatty.obj
 0004:00001020       $pdata$?__mbrtowc_utf8@__crt_mbstring@@YA_KPEA_WPEBD_KPEAU_Mbstatet@@@Z 00000001801c6020     libucrt:mbrtowc.obj
 0004:0000102c       $pdata$?__mbsrtowcs_utf8@__crt_mbstring@@YA_KPEA_WPEAPEBD_KPEAU_Mbstatet@@@Z 00000001801c602c     libucrt:mbrtowc.obj
 0004:00001038       $pdata$?__c32rtomb_utf8@__crt_mbstring@@YA_KPEAD_UPEAU_Mbstatet@@@Z 00000001801c6038     libucrt:c32rtomb.obj
 0004:00001044       $pdata$__acrt_fp_strflt_to_string 00000001801c6044     libucrt:_fptostr.obj
 0004:00001050       $pdata$memcpy_s            00000001801c6050     libucrt:cfout.obj
 0004:0000105c       $pdata$__acrt_fltout       00000001801c605c     libucrt:cfout.obj
 0004:00001068       $pdata$?divide@__crt_strtox@@YA_KAEAUbig_integer@1@AEBU21@@Z 00000001801c6068     libucrt:cfout.obj
 0004:00001074       $pdata$0$?divide@__crt_strtox@@YA_KAEAUbig_integer@1@AEBU21@@Z 00000001801c6074     libucrt:cfout.obj
 0004:00001080       $pdata$1$?divide@__crt_strtox@@YA_KAEAUbig_integer@1@AEBU21@@Z 00000001801c6080     libucrt:cfout.obj
 0004:0000108c       $pdata$__acrt_stdio_flush_and_write_narrow_nolock 00000001801c608c     libucrt:_flsbuf.obj
 0004:00001098       $pdata$__acrt_stdio_flush_and_write_wide_nolock 00000001801c6098     libucrt:_flsbuf.obj
 0004:000010a4       $pdata$?stream_is_at_end_of_file_nolock@@YA_NV__crt_stdio_stream@@@Z 00000001801c60a4     libucrt:_flsbuf.obj
 0004:000010b0       $pdata$??$write_buffer_nolock@D@@YA_NDV__crt_stdio_stream@@@Z 00000001801c60b0     libucrt:_flsbuf.obj
 0004:000010bc       $pdata$??$write_buffer_nolock@_W@@YA_N_WV__crt_stdio_stream@@@Z 00000001801c60bc     libucrt:_flsbuf.obj
 0004:000010c8       $pdata$fclose              00000001801c60c8     libucrt:fclose.obj
 0004:000010d4       $pdata$fclose$fin$0        00000001801c60d4     libucrt:fclose.obj
 0004:000010e0       $pdata$_fclose_nolock      00000001801c60e0     libucrt:fclose.obj
 0004:000010ec       $pdata$??$common_lseek@_J@@YA_JH_JH@Z 00000001801c60ec     libucrt:lseek.obj
 0004:000010f8       $pdata$??$common_lseek_nolock@_J@@YA_JH_JH@Z 00000001801c60f8     libucrt:lseek.obj
 0004:00001104       $pdata$_putwch_nolock      00000001801c6104     libucrt:putwch.obj
 0004:00001110       $pdata$?__mbrtoc32_utf8@__crt_mbstring@@YA_KPEA_UPEBD_KPEAU_Mbstatet@@@Z 00000001801c6110     libucrt:mbrtoc32.obj
 0004:0000111c       $pdata$fegetenv            00000001801c611c     libucrt:fegetenv.obj
 0004:00001128       $pdata$fesetenv            00000001801c6128     libucrt:fesetenv.obj
 0004:00001134       $pdata$feholdexcept        00000001801c6134     libucrt:feholdexcept.obj
 0004:0000114c       $pdata$__acrt_stdio_allocate_buffer_nolock 00000001801c614c     libucrt:_getbuf.obj
 0004:00001158       $pdata$_close              00000001801c6158     libucrt:close.obj
 0004:00001164       $pdata$_close_nolock       00000001801c6164     libucrt:close.obj
 0004:00001170       $pdata$??$?RV<lambda_751a882b2c74d4b022dec766aa51a29a>@@AEAV<lambda_628dfdc04ba53c8bfc02c9951375f3f5>@@V<lambda_f6c7be5f7998530c34de24c7437d6b54>@@@?$__crt_seh_guarded_call@H@@QEAAH$$QEAV<lambda_751a882b2c74d4b022dec766aa51a29a>@@AEAV<lambda_628dfdc04ba53c8bfc02c9951375f3f5>@@$$QEAV<lambda_f6c7be5f7998530c34de24c7437d6b54>@@@Z 00000001801c6170     libucrt:close.obj
 0004:0000117c       $pdata$__dcrt_lowio_ensure_console_output_initialized 00000001801c617c     libucrt:initcon.obj
 0004:00001188       $pdata$__dcrt_write_console 00000001801c6188     libucrt:initcon.obj
 0004:00001194       $pdata$__dcrt_terminate_console_output 00000001801c6194     libucrt:initcon.obj
 0004:000011a0       $pdata$__acrt_fenv_set_control 00000001801c61a0     libucrt:_fenvutils.obj
 0004:000011ac       $pdata$_clearfp            00000001801c61ac     libucrt:ieee.obj
 0004:000011b8       $pdata$_call_matherr       00000001801c61b8     libucrt:libm_error.obj
 0004:000011c4       $pdata$_exception_enabled  00000001801c61c4     libucrt:libm_error.obj
 0004:000011d0       $pdata$_handle_error       00000001801c61d0     libucrt:libm_error.obj
 0004:000011dc       $pdata$__acrt_initialize_fma3 00000001801c61dc     libucrt:fma3_available.obj
 0004:000011e8       $pdata$_log_special_common 00000001801c61e8     libucrt:log_special.obj
 0004:000011f4       $pdata$_log_special        00000001801c61f4     libucrt:log_special.obj
 0004:00001200       $pdata$_log10_special      00000001801c6200     libucrt:log_special.obj
 0004:0000120c       $pdata$?DloadGetSRWLockFunctionPointers@@YAEXZ 00000001801c620c     DelayImp:delayhlp.obj
 0004:00001218       $pdata$?DloadObtainSection@@YAPEAXPEAK0@Z 00000001801c6218     DelayImp:delayhlp.obj
 0004:00001224       $pdata$?DloadMakePermanentImageCommit@@YAXPEAX_K@Z 00000001801c6224     DelayImp:delayhlp.obj
 0004:00001230       $pdata$?DloadProtectSection@@YAXKPEAK@Z 00000001801c6230     DelayImp:delayhlp.obj
 0004:0000123c       $pdata$?DloadAcquireSectionWriteAccess@@YAXXZ 00000001801c623c     DelayImp:delayhlp.obj
 0004:00001248       $pdata$?DloadReleaseSectionWriteAccess@@YAXXZ 00000001801c6248     DelayImp:delayhlp.obj
 0004:00001254       $pdata$__delayLoadHelper2  00000001801c6254     DelayImp:delayhlp.obj
 0004:00001260       $pdata$_IsNonwritableInCurrentImage 00000001801c6260     LIBCMT:pesect.obj
 0004:0000126c       $pdata$_IsNonwritableInCurrentImage$filt$0 00000001801c626c     LIBCMT:pesect.obj
 0004:00001278       $pdata$__GSHandlerCheckCommon 00000001801c6278     LIBCMT:gshandler.obj
 0004:00001284       $pdata$__GSHandlerCheck    00000001801c6284     LIBCMT:gshandler.obj
 0004:000012a8       $pdata$??$SetMethodAux@V?$Local@VObject@v8@@@v8@@@imp@Nan@@YAXV?$Local@VObject@v8@@@v8@@V?$Local@VString@v8@@@3@V?$Local@VFunctionTemplate@v8@@@3@ZZ 00000001801c62a8     binding.obj
 0004:000012b4       $pdata$??$SetMethod@VObject@v8@@VLocal@2@@Nan@@YAXV?$Local@VObject@v8@@@v8@@PEBDP6AXAEBV?$FunctionCallbackInfo@VValue@v8@@@0@@Z@Z 00000001801c62b4     binding.obj
 0004:000012c0       $pdata$3$??$SetMethod@VObject@v8@@VLocal@2@@Nan@@YAXV?$Local@VObject@v8@@@v8@@PEBDP6AXAEBV?$FunctionCallbackInfo@VValue@v8@@@0@@Z@Z 00000001801c62c0     binding.obj
 0004:000012cc       $pdata$4$??$SetMethod@VObject@v8@@VLocal@2@@Nan@@YAXV?$Local@VObject@v8@@@v8@@PEBDP6AXAEBV?$FunctionCallbackInfo@VValue@v8@@@0@@Z@Z 00000001801c62cc     binding.obj
 0004:000012d8       $pdata$5$??$SetMethod@VObject@v8@@VLocal@2@@Nan@@YAXV?$Local@VObject@v8@@@v8@@PEBDP6AXAEBV?$FunctionCallbackInfo@VValue@v8@@@0@@Z@Z 00000001801c62d8     binding.obj
 0004:000012e4       $pdata$6$??$SetMethod@VObject@v8@@VLocal@2@@Nan@@YAXV?$Local@VObject@v8@@@v8@@PEBDP6AXAEBV?$FunctionCallbackInfo@VValue@v8@@@0@@Z@Z 00000001801c62e4     binding.obj
 0004:000012f0       $pdata$?Initialize@nodevorbis@@YAXV?$Local@VObject@v8@@@v8@@@Z 00000001801c62f0     binding.obj
 0004:000012fc       $pdata$?node_vorbis_synthesis_pcmout@nodevorbis@@YAXAEBV?$FunctionCallbackInfo@VValue@v8@@@Nan@@@Z 00000001801c62fc     binding.obj
 0004:00001308       $pdata$4$?node_vorbis_synthesis_pcmout@nodevorbis@@YAXAEBV?$FunctionCallbackInfo@VValue@v8@@@Nan@@@Z 00000001801c6308     binding.obj
 0004:00001314       $pdata$5$?node_vorbis_synthesis_pcmout@nodevorbis@@YAXAEBV?$FunctionCallbackInfo@VValue@v8@@@Nan@@@Z 00000001801c6314     binding.obj
 0004:00001320       $pdata$6$?node_vorbis_synthesis_pcmout@nodevorbis@@YAXAEBV?$FunctionCallbackInfo@VValue@v8@@@Nan@@@Z 00000001801c6320     binding.obj
 0004:0000132c       $pdata$7$?node_vorbis_synthesis_pcmout@nodevorbis@@YAXAEBV?$FunctionCallbackInfo@VValue@v8@@@Nan@@@Z 00000001801c632c     binding.obj
 0004:00001338       $pdata$8$?node_vorbis_synthesis_pcmout@nodevorbis@@YAXAEBV?$FunctionCallbackInfo@VValue@v8@@@Nan@@@Z 00000001801c6338     binding.obj
 0004:00001344       $pdata$9$?node_vorbis_synthesis_pcmout@nodevorbis@@YAXAEBV?$FunctionCallbackInfo@VValue@v8@@@Nan@@@Z 00000001801c6344     binding.obj
 0004:00001350       $pdata$?node_vorbis_synthesis_blockin@nodevorbis@@YAXAEBV?$FunctionCallbackInfo@VValue@v8@@@Nan@@@Z 00000001801c6350     binding.obj
 0004:0000135c       $pdata$?node_vorbis_synthesis@nodevorbis@@YAXAEBV?$FunctionCallbackInfo@VValue@v8@@@Nan@@@Z 00000001801c635c     binding.obj
 0004:00001368       $pdata$?node_vorbis_synthesis_headerin@nodevorbis@@YAXAEBV?$FunctionCallbackInfo@VValue@v8@@@Nan@@@Z 00000001801c6368     binding.obj
 0004:00001374       $pdata$??_GSynthesisHeaderinWorker@nodevorbis@@UEAAPEAXI@Z 00000001801c6374     binding.obj
 0004:00001380       $pdata$?HandleOKCallback@AnalysisWriteWorker@nodevorbis@@UEAAXXZ 00000001801c6380     binding.obj
 0004:00001380       $pdata$?HandleOKCallback@SynthesisHeaderinWorker@nodevorbis@@UEAAXXZ 00000001801c6380     binding.obj
 0004:0000138c       $pdata$?Execute@SynthesisHeaderinWorker@nodevorbis@@UEAAXXZ 00000001801c638c     binding.obj
 0004:00001398       $pdata$?node_vorbis_synthesis_idheader@nodevorbis@@YAXAEBV?$FunctionCallbackInfo@VValue@v8@@@Nan@@@Z 00000001801c6398     binding.obj
 0004:000013a4       $pdata$??_GSynthesisIdheaderWorker@nodevorbis@@UEAAPEAXI@Z 00000001801c63a4     binding.obj
 0004:000013b0       $pdata$?HandleOKCallback@SynthesisIdheaderWorker@nodevorbis@@UEAAXXZ 00000001801c63b0     binding.obj
 0004:000013bc       $pdata$?Execute@SynthesisIdheaderWorker@nodevorbis@@UEAAXXZ 00000001801c63bc     binding.obj
 0004:000013c8       $pdata$0$?Execute@SynthesisIdheaderWorker@nodevorbis@@UEAAXXZ 00000001801c63c8     binding.obj
 0004:000013d4       $pdata$1$?Execute@SynthesisIdheaderWorker@nodevorbis@@UEAAXXZ 00000001801c63d4     binding.obj
 0004:000013e0       $pdata$?node_vorbis_bitrate_flushpacket@nodevorbis@@YAXAEBV?$FunctionCallbackInfo@VValue@v8@@@Nan@@@Z 00000001801c63e0     binding.obj
 0004:000013ec       $pdata$??_GBitrateFlushpacketWorker@nodevorbis@@UEAAPEAXI@Z 00000001801c63ec     binding.obj
 0004:000013f8       $pdata$?HandleOKCallback@AnalysisBlockoutWorker@nodevorbis@@UEAAXXZ 00000001801c63f8     binding.obj
 0004:000013f8       $pdata$?HandleOKCallback@BitrateFlushpacketWorker@nodevorbis@@UEAAXXZ 00000001801c63f8     binding.obj
 0004:00001404       $pdata$?Execute@BitrateFlushpacketWorker@nodevorbis@@UEAAXXZ 00000001801c6404     binding.obj
 0004:00001410       $pdata$1$?Execute@BitrateFlushpacketWorker@nodevorbis@@UEAAXXZ 00000001801c6410     binding.obj
 0004:0000141c       $pdata$2$?Execute@BitrateFlushpacketWorker@nodevorbis@@UEAAXXZ 00000001801c641c     binding.obj
 0004:00001428       $pdata$?node_vorbis_bitrate_addblock@nodevorbis@@YAXAEBV?$FunctionCallbackInfo@VValue@v8@@@Nan@@@Z 00000001801c6428     binding.obj
 0004:00001434       $pdata$?node_vorbis_analysis@nodevorbis@@YAXAEBV?$FunctionCallbackInfo@VValue@v8@@@Nan@@@Z 00000001801c6434     binding.obj
 0004:00001440       $pdata$0$?node_vorbis_analysis@nodevorbis@@YAXAEBV?$FunctionCallbackInfo@VValue@v8@@@Nan@@@Z 00000001801c6440     binding.obj
 0004:0000144c       $pdata$4$?node_vorbis_analysis@nodevorbis@@YAXAEBV?$FunctionCallbackInfo@VValue@v8@@@Nan@@@Z 00000001801c644c     binding.obj
 0004:00001458       $pdata$5$?node_vorbis_analysis@nodevorbis@@YAXAEBV?$FunctionCallbackInfo@VValue@v8@@@Nan@@@Z 00000001801c6458     binding.obj
 0004:00001464       $pdata$6$?node_vorbis_analysis@nodevorbis@@YAXAEBV?$FunctionCallbackInfo@VValue@v8@@@Nan@@@Z 00000001801c6464     binding.obj
 0004:00001470       $pdata$7$?node_vorbis_analysis@nodevorbis@@YAXAEBV?$FunctionCallbackInfo@VValue@v8@@@Nan@@@Z 00000001801c6470     binding.obj
 0004:0000147c       $pdata$?node_vorbis_analysis_eos@nodevorbis@@YAXAEBV?$FunctionCallbackInfo@VValue@v8@@@Nan@@@Z 00000001801c647c     binding.obj
 0004:00001488       $pdata$?node_vorbis_analysis_blockout@nodevorbis@@YAXAEBV?$FunctionCallbackInfo@VValue@v8@@@Nan@@@Z 00000001801c6488     binding.obj
 0004:00001494       $pdata$??_GAnalysisBlockoutWorker@nodevorbis@@UEAAPEAXI@Z 00000001801c6494     binding.obj
 0004:000014a0       $pdata$?Execute@AnalysisBlockoutWorker@nodevorbis@@UEAAXXZ 00000001801c64a0     binding.obj
 0004:000014ac       $pdata$?node_vorbis_analysis_write@nodevorbis@@YAXAEBV?$FunctionCallbackInfo@VValue@v8@@@Nan@@@Z 00000001801c64ac     binding.obj
 0004:000014b8       $pdata$??_GAnalysisWriteWorker@nodevorbis@@UEAAPEAXI@Z 00000001801c64b8     binding.obj
 0004:000014c4       $pdata$?Execute@AnalysisWriteWorker@nodevorbis@@UEAAXXZ 00000001801c64c4     binding.obj
 0004:000014d0       $pdata$?node_vorbis_analysis_headerout@nodevorbis@@YAXAEBV?$FunctionCallbackInfo@VValue@v8@@@Nan@@@Z 00000001801c64d0     binding.obj
 0004:000014dc       $pdata$?node_get_format@nodevorbis@@YAXAEBV?$FunctionCallbackInfo@VValue@v8@@@Nan@@@Z 00000001801c64dc     binding.obj
 0004:000014e8       $pdata$?node_comment_array@nodevorbis@@YAXAEBV?$FunctionCallbackInfo@VValue@v8@@@Nan@@@Z 00000001801c64e8     binding.obj
 0004:000014f4       $pdata$4$?node_comment_array@nodevorbis@@YAXAEBV?$FunctionCallbackInfo@VValue@v8@@@Nan@@@Z 00000001801c64f4     binding.obj
 0004:00001500       $pdata$5$?node_comment_array@nodevorbis@@YAXAEBV?$FunctionCallbackInfo@VValue@v8@@@Nan@@@Z 00000001801c6500     binding.obj
 0004:0000150c       $pdata$6$?node_comment_array@nodevorbis@@YAXAEBV?$FunctionCallbackInfo@VValue@v8@@@Nan@@@Z 00000001801c650c     binding.obj
 0004:00001518       $pdata$7$?node_comment_array@nodevorbis@@YAXAEBV?$FunctionCallbackInfo@VValue@v8@@@Nan@@@Z 00000001801c6518     binding.obj
 0004:00001524       $pdata$8$?node_comment_array@nodevorbis@@YAXAEBV?$FunctionCallbackInfo@VValue@v8@@@Nan@@@Z 00000001801c6524     binding.obj
 0004:00001530       $pdata$9$?node_comment_array@nodevorbis@@YAXAEBV?$FunctionCallbackInfo@VValue@v8@@@Nan@@@Z 00000001801c6530     binding.obj
 0004:0000153c       $pdata$?node_vorbis_encode_init_vbr@nodevorbis@@YAXAEBV?$FunctionCallbackInfo@VValue@v8@@@Nan@@@Z 00000001801c653c     binding.obj
 0004:00001548       $pdata$?node_vorbis_block_init@nodevorbis@@YAXAEBV?$FunctionCallbackInfo@VValue@v8@@@Nan@@@Z 00000001801c6548     binding.obj
 0004:00001554       $pdata$?node_vorbis_analysis_init@nodevorbis@@YAXAEBV?$FunctionCallbackInfo@VValue@v8@@@Nan@@@Z 00000001801c6554     binding.obj
 0004:00001560       $pdata$3$?node_vorbis_analysis_init@nodevorbis@@YAXAEBV?$FunctionCallbackInfo@VValue@v8@@@Nan@@@Z 00000001801c6560     binding.obj
 0004:0000156c       $pdata$4$?node_vorbis_analysis_init@nodevorbis@@YAXAEBV?$FunctionCallbackInfo@VValue@v8@@@Nan@@@Z 00000001801c656c     binding.obj
 0004:00001578       $pdata$6$?node_vorbis_analysis_init@nodevorbis@@YAXAEBV?$FunctionCallbackInfo@VValue@v8@@@Nan@@@Z 00000001801c6578     binding.obj
 0004:00001584       $pdata$7$?node_vorbis_analysis_init@nodevorbis@@YAXAEBV?$FunctionCallbackInfo@VValue@v8@@@Nan@@@Z 00000001801c6584     binding.obj
 0004:00001590       $pdata$8$?node_vorbis_analysis_init@nodevorbis@@YAXAEBV?$FunctionCallbackInfo@VValue@v8@@@Nan@@@Z 00000001801c6590     binding.obj
 0004:0000159c       $pdata$9$?node_vorbis_analysis_init@nodevorbis@@YAXAEBV?$FunctionCallbackInfo@VValue@v8@@@Nan@@@Z 00000001801c659c     binding.obj
 0004:000015a8       $pdata$10$?node_vorbis_analysis_init@nodevorbis@@YAXAEBV?$FunctionCallbackInfo@VValue@v8@@@Nan@@@Z 00000001801c65a8     binding.obj
 0004:000015b4       $pdata$?node_vorbis_synthesis_init@nodevorbis@@YAXAEBV?$FunctionCallbackInfo@VValue@v8@@@Nan@@@Z 00000001801c65b4     binding.obj
 0004:000015c0       $pdata$?node_vorbis_comment_init@nodevorbis@@YAXAEBV?$FunctionCallbackInfo@VValue@v8@@@Nan@@@Z 00000001801c65c0     binding.obj
 0004:000015cc       $pdata$?node_vorbis_info_init@nodevorbis@@YAXAEBV?$FunctionCallbackInfo@VValue@v8@@@Nan@@@Z 00000001801c65cc     binding.obj
 0004:000015d8       $pdata$?AsyncExecuteComplete@Nan@@YAXPEAUuv_work_s@@@Z 00000001801c65d8     binding.obj
 0004:000015e4       $pdata$??_GAsyncWorker@Nan@@UEAAPEAXI@Z 00000001801c65e4     binding.obj
 0004:000015f0       $pdata$?HandleErrorCallback@AsyncWorker@Nan@@MEAAXXZ 00000001801c65f0     binding.obj
 0004:000015fc       $pdata$?HandleOKCallback@AsyncWorker@Nan@@MEAAXXZ 00000001801c65fc     binding.obj
 0004:00001608       $pdata$?WorkComplete@AsyncWorker@Nan@@UEAAXXZ 00000001801c6608     binding.obj
 0004:00001614       $pdata$??1AsyncWorker@Nan@@UEAA@XZ 00000001801c6614     binding.obj
 0004:00001620       $pdata$??0AsyncWorker@Nan@@QEAA@PEAVCallback@1@PEBD@Z 00000001801c6620     binding.obj
 0004:0000162c       $pdata$?Call@Callback@Nan@@QEBA?AV?$MaybeLocal@VValue@v8@@@v8@@HQEAV?$Local@VValue@v8@@@4@PEAVAsyncResource@2@@Z 00000001801c662c     binding.obj
 0004:00001638       $pdata$?FunctionCallbackWrapper@imp@Nan@@YAXAEBV?$FunctionCallbackInfo@VValue@v8@@@v8@@@Z 00000001801c6638     binding.obj
 0004:00001644       $pdata$?load_exe_hook@@YAP6A_JXZIPEAUDelayLoadInfo@@@Z 00000001801c6644     win_delay_load_hook.obj
 0004:00001650       $pdata$_preextrapolate_helper 00000001801c6650     libvorbis:block.obj
 0004:0000165c       $pdata$vorbis_dsp_clear    00000001801c665c     libvorbis:block.obj
 0004:00001668       $pdata$1$vorbis_dsp_clear  00000001801c6668     libvorbis:block.obj
 0004:00001674       $pdata$4$vorbis_dsp_clear  00000001801c6674     libvorbis:block.obj
 0004:00001680       $pdata$6$vorbis_dsp_clear  00000001801c6680     libvorbis:block.obj
 0004:0000168c       $pdata$7$vorbis_dsp_clear  00000001801c668c     libvorbis:block.obj
 0004:00001698       $pdata$8$vorbis_dsp_clear  00000001801c6698     libvorbis:block.obj
 0004:000016a4       $pdata$9$vorbis_dsp_clear  00000001801c66a4     libvorbis:block.obj
 0004:000016b0       $pdata$10$vorbis_dsp_clear 00000001801c66b0     libvorbis:block.obj
 0004:000016bc       $pdata$_vds_shared_init    00000001801c66bc     libvorbis:block.obj
 0004:000016c8       $pdata$2$_vds_shared_init  00000001801c66c8     libvorbis:block.obj
 0004:000016d4       $pdata$3$_vds_shared_init  00000001801c66d4     libvorbis:block.obj
 0004:000016e0       $pdata$5$_vds_shared_init  00000001801c66e0     libvorbis:block.obj
 0004:000016ec       $pdata$6$_vds_shared_init  00000001801c66ec     libvorbis:block.obj
 0004:000016f8       $pdata$8$_vds_shared_init  00000001801c66f8     libvorbis:block.obj
 0004:00001704       $pdata$_vorbis_block_ripcord 00000001801c6704     libvorbis:block.obj
 0004:00001710       $pdata$0$_vorbis_block_ripcord 00000001801c6710     libvorbis:block.obj
 0004:0000171c       $pdata$1$_vorbis_block_ripcord 00000001801c671c     libvorbis:block.obj
 0004:00001728       $pdata$2$_vorbis_block_ripcord 00000001801c6728     libvorbis:block.obj
 0004:00001734       $pdata$3$_vorbis_block_ripcord 00000001801c6734     libvorbis:block.obj
 0004:00001740       $pdata$vorbis_synthesis_blockin 00000001801c6740     libvorbis:block.obj
 0004:0000174c       $pdata$0$vorbis_synthesis_blockin 00000001801c674c     libvorbis:block.obj
 0004:00001758       $pdata$1$vorbis_synthesis_blockin 00000001801c6758     libvorbis:block.obj
 0004:00001764       $pdata$5$vorbis_synthesis_blockin 00000001801c6764     libvorbis:block.obj
 0004:00001770       $pdata$6$vorbis_synthesis_blockin 00000001801c6770     libvorbis:block.obj
 0004:0000177c       $pdata$7$vorbis_synthesis_blockin 00000001801c677c     libvorbis:block.obj
 0004:00001788       $pdata$8$vorbis_synthesis_blockin 00000001801c6788     libvorbis:block.obj
 0004:00001794       $pdata$9$vorbis_synthesis_blockin 00000001801c6794     libvorbis:block.obj
 0004:000017a0       $pdata$10$vorbis_synthesis_blockin 00000001801c67a0     libvorbis:block.obj
 0004:000017ac       $pdata$vorbis_analysis_wrote 00000001801c67ac     libvorbis:block.obj
 0004:000017b8       $pdata$vorbis_analysis_buffer 00000001801c67b8     libvorbis:block.obj
 0004:000017c4       $pdata$vorbis_analysis_blockout 00000001801c67c4     libvorbis:block.obj
 0004:000017d0       $pdata$_vorbis_pack_books  00000001801c67d0     libvorbis:info.obj
 0004:000017dc       $pdata$4$_vorbis_pack_books 00000001801c67dc     libvorbis:info.obj
 0004:000017e8       $pdata$6$_vorbis_pack_books 00000001801c67e8     libvorbis:info.obj
 0004:000017f4       $pdata$_vorbis_pack_comment 00000001801c67f4     libvorbis:info.obj
 0004:00001800       $pdata$0$_vorbis_pack_comment 00000001801c6800     libvorbis:info.obj
 0004:0000180c       $pdata$2$_vorbis_pack_comment 00000001801c680c     libvorbis:info.obj
 0004:00001818       $pdata$3$_vorbis_pack_comment 00000001801c6818     libvorbis:info.obj
 0004:00001824       $pdata$4$_vorbis_pack_comment 00000001801c6824     libvorbis:info.obj
 0004:00001830       $pdata$_vorbis_unpack_books 00000001801c6830     libvorbis:info.obj
 0004:0000183c       $pdata$_vorbis_unpack_comment 00000001801c683c     libvorbis:info.obj
 0004:00001848       $pdata$vorbis_info_clear   00000001801c6848     libvorbis:info.obj
 0004:00001854       $pdata$2$vorbis_info_clear 00000001801c6854     libvorbis:info.obj
 0004:00001860       $pdata$4$vorbis_info_clear 00000001801c6860     libvorbis:info.obj
 0004:0000186c       $pdata$5$vorbis_info_clear 00000001801c686c     libvorbis:info.obj
 0004:00001878       $pdata$6$vorbis_info_clear 00000001801c6878     libvorbis:info.obj
 0004:00001884       $pdata$vorbis_analysis_headerout 00000001801c6884     libvorbis:info.obj
 0004:00001890       $pdata$vorbis_synthesis_headerin 00000001801c6890     libvorbis:info.obj
 0004:0000189c       $pdata$0$vorbis_synthesis_headerin 00000001801c689c     libvorbis:info.obj
 0004:000018a8       $pdata$1$vorbis_synthesis_headerin 00000001801c68a8     libvorbis:info.obj
 0004:000018b4       $pdata$vorbis_bitrate_addblock 00000001801c68b4     libvorbis:bitrate.obj
 0004:000018c0       $pdata$3$vorbis_bitrate_addblock 00000001801c68c0     libvorbis:bitrate.obj
 0004:000018cc       $pdata$4$vorbis_bitrate_addblock 00000001801c68cc     libvorbis:bitrate.obj
 0004:000018d8       $pdata$vorbis_synthesis    00000001801c68d8     libvorbis:synthesis.obj
 0004:000018e4       $pdata$vorbis_lpc_predict  00000001801c68e4     libvorbis:lpc.obj
 0004:000018f0       $pdata$vorbis_lpc_from_data 00000001801c68f0     libvorbis:lpc.obj
 0004:000018fc       $pdata$_book_unquantize    00000001801c68fc     libvorbis:sharedbook.obj
 0004:00001908       $pdata$3$_book_unquantize  00000001801c6908     libvorbis:sharedbook.obj
 0004:00001914       $pdata$4$_book_unquantize  00000001801c6914     libvorbis:sharedbook.obj
 0004:00001920       $pdata$5$_book_unquantize  00000001801c6920     libvorbis:sharedbook.obj
 0004:0000192c       $pdata$6$_book_unquantize  00000001801c692c     libvorbis:sharedbook.obj
 0004:00001938       $pdata$_book_maptype1_quantvals 00000001801c6938     libvorbis:sharedbook.obj
 0004:00001944       $pdata$_make_words         00000001801c6944     libvorbis:sharedbook.obj
 0004:00001950       $pdata$vorbis_book_init_decode 00000001801c6950     libvorbis:sharedbook.obj
 0004:0000195c       $pdata$_ve_amp             00000001801c695c     libvorbis:envelope.obj
 0004:00001968       $pdata$_ve_envelope_init   00000001801c6968     libvorbis:envelope.obj
 0004:00001974       $pdata$_ve_envelope_search 00000001801c6974     libvorbis:envelope.obj
 0004:00001980       $pdata$3$_ve_envelope_search 00000001801c6980     libvorbis:envelope.obj
 0004:0000198c       $pdata$5$_ve_envelope_search 00000001801c698c     libvorbis:envelope.obj
 0004:00001998       $pdata$6$_ve_envelope_search 00000001801c6998     libvorbis:envelope.obj
 0004:000019a4       $pdata$7$_ve_envelope_search 00000001801c69a4     libvorbis:envelope.obj
 0004:000019b0       $pdata$_vp_couple_quantize_normalize 00000001801c69b0     libvorbis:psy.obj
 0004:000019bc       $pdata$noise_normalize     00000001801c69bc     libvorbis:psy.obj
 0004:000019c8       $pdata$_vp_offset_and_mix  00000001801c69c8     libvorbis:psy.obj
 0004:000019d4       $pdata$1$_vp_offset_and_mix 00000001801c69d4     libvorbis:psy.obj
 0004:000019e0       $pdata$2$_vp_offset_and_mix 00000001801c69e0     libvorbis:psy.obj
 0004:000019ec       $pdata$_vp_tonemask        00000001801c69ec     libvorbis:psy.obj
 0004:000019f8       $pdata$_vp_noisemask       00000001801c69f8     libvorbis:psy.obj
 0004:00001a04       $pdata$bark_noise_hybridmp 00000001801c6a04     libvorbis:psy.obj
 0004:00001a10       $pdata$max_seeds           00000001801c6a10     libvorbis:psy.obj
 0004:00001a1c       $pdata$1$max_seeds         00000001801c6a1c     libvorbis:psy.obj
 0004:00001a28       $pdata$2$max_seeds         00000001801c6a28     libvorbis:psy.obj
 0004:00001a34       $pdata$3$max_seeds         00000001801c6a34     libvorbis:psy.obj
 0004:00001a40       $pdata$4$max_seeds         00000001801c6a40     libvorbis:psy.obj
 0004:00001a4c       $pdata$seed_chase          00000001801c6a4c     libvorbis:psy.obj
 0004:00001a58       $pdata$seed_curve          00000001801c6a58     libvorbis:psy.obj
 0004:00001a64       $pdata$setup_tone_curves   00000001801c6a64     libvorbis:psy.obj
 0004:00001a70       $pdata$_vp_psy_init        00000001801c6a70     libvorbis:psy.obj
 0004:00001a7c       $pdata$mdct_backward       00000001801c6a7c     libvorbis:mdct.obj
 0004:00001a88       $pdata$mdct_bitreverse     00000001801c6a88     libvorbis:mdct.obj
 0004:00001a94       $pdata$mdct_butterflies    00000001801c6a94     libvorbis:mdct.obj
 0004:00001aa0       $pdata$1$mdct_butterflies  00000001801c6aa0     libvorbis:mdct.obj
 0004:00001aac       $pdata$6$mdct_butterflies  00000001801c6aac     libvorbis:mdct.obj
 0004:00001ab8       $pdata$7$mdct_butterflies  00000001801c6ab8     libvorbis:mdct.obj
 0004:00001ac4       $pdata$8$mdct_butterflies  00000001801c6ac4     libvorbis:mdct.obj
 0004:00001ad0       $pdata$mdct_butterfly_32   00000001801c6ad0     libvorbis:mdct.obj
 0004:00001adc       $pdata$mdct_butterfly_16   00000001801c6adc     libvorbis:mdct.obj
 0004:00001ae8       $pdata$mdct_butterfly_8    00000001801c6ae8     libvorbis:mdct.obj
 0004:00001af4       $pdata$mdct_forward        00000001801c6af4     libvorbis:mdct.obj
 0004:00001b00       $pdata$mdct_init           00000001801c6b00     libvorbis:mdct.obj
 0004:00001b0c       $pdata$2$mdct_init         00000001801c6b0c     libvorbis:mdct.obj
 0004:00001b18       $pdata$8$mdct_init         00000001801c6b18     libvorbis:mdct.obj
 0004:00001b24       $pdata$10$mdct_init        00000001801c6b24     libvorbis:mdct.obj
 0004:00001b30       $pdata$11$mdct_init        00000001801c6b30     libvorbis:mdct.obj
 0004:00001b3c       $pdata$12$mdct_init        00000001801c6b3c     libvorbis:mdct.obj
 0004:00001b48       $pdata$13$mdct_init        00000001801c6b48     libvorbis:mdct.obj
 0004:00001b54       $pdata$drftf1              00000001801c6b54     libvorbis:smallft.obj
 0004:00001b60       $pdata$1$drftf1            00000001801c6b60     libvorbis:smallft.obj
 0004:00001b6c       $pdata$2$drftf1            00000001801c6b6c     libvorbis:smallft.obj
 0004:00001b78       $pdata$dradfg              00000001801c6b78     libvorbis:smallft.obj
 0004:00001b84       $pdata$3$dradfg            00000001801c6b84     libvorbis:smallft.obj
 0004:00001b90       $pdata$4$dradfg            00000001801c6b90     libvorbis:smallft.obj
 0004:00001b9c       $pdata$dradf4              00000001801c6b9c     libvorbis:smallft.obj
 0004:00001ba8       $pdata$5$dradf4            00000001801c6ba8     libvorbis:smallft.obj
 0004:00001bb4       $pdata$6$dradf4            00000001801c6bb4     libvorbis:smallft.obj
 0004:00001bc0       $pdata$dradf2              00000001801c6bc0     libvorbis:smallft.obj
 0004:00001bcc       $pdata$drfti1              00000001801c6bcc     libvorbis:smallft.obj
 0004:00001bd8       $pdata$3$drfti1            00000001801c6bd8     libvorbis:smallft.obj
 0004:00001be4       $pdata$4$drfti1            00000001801c6be4     libvorbis:smallft.obj
 0004:00001bf0       $pdata$_vorbis_apply_window 00000001801c6bf0     libvorbis:window.obj
 0004:00001bfc       $pdata$vorbis_book_decodev_add 00000001801c6bfc     libvorbis:codebook.obj
 0004:00001c08       $pdata$vorbis_book_decodevs_add 00000001801c6c08     libvorbis:codebook.obj
 0004:00001c14       $pdata$decode_packed_entry_number 00000001801c6c14     libvorbis:codebook.obj
 0004:00001c20       $pdata$vorbis_staticbook_pack 00000001801c6c20     libvorbis:codebook.obj
 0004:00001c2c       $pdata$2$vorbis_staticbook_pack 00000001801c6c2c     libvorbis:codebook.obj
 0004:00001c38       $pdata$4$vorbis_staticbook_pack 00000001801c6c38     libvorbis:codebook.obj
 0004:00001c44       $pdata$5$vorbis_staticbook_pack 00000001801c6c44     libvorbis:codebook.obj
 0004:00001c50       $pdata$6$vorbis_staticbook_pack 00000001801c6c50     libvorbis:codebook.obj
 0004:00001c5c       $pdata$vorbis_staticbook_unpack 00000001801c6c5c     libvorbis:codebook.obj
 0004:00001c68       $pdata$floor0_inverse2     00000001801c6c68     libvorbis:floor0.obj
 0004:00001c74       $pdata$0$floor0_inverse2   00000001801c6c74     libvorbis:floor0.obj
 0004:00001c80       $pdata$12$floor0_inverse2  00000001801c6c80     libvorbis:floor0.obj
 0004:00001c8c       $pdata$13$floor0_inverse2  00000001801c6c8c     libvorbis:floor0.obj
 0004:00001c98       $pdata$14$floor0_inverse2  00000001801c6c98     libvorbis:floor0.obj
 0004:00001ca4       $pdata$floor0_inverse1     00000001801c6ca4     libvorbis:floor0.obj
 0004:00001cb0       $pdata$floor0_look         00000001801c6cb0     libvorbis:floor0.obj
 0004:00001cbc       $pdata$floor0_unpack       00000001801c6cbc     libvorbis:floor0.obj
 0004:00001cc8       $pdata$floor0_free_look    00000001801c6cc8     libvorbis:floor0.obj
 0004:00001cd4       $pdata$mapping0_inverse    00000001801c6cd4     libvorbis:mapping0.obj
 0004:00001ce0       $pdata$mapping0_forward    00000001801c6ce0     libvorbis:mapping0.obj
 0004:00001cec       $pdata$mapping0_unpack     00000001801c6cec     libvorbis:mapping0.obj
 0004:00001cf8       $pdata$mapping0_pack       00000001801c6cf8     libvorbis:mapping0.obj
 0004:00001d04       $pdata$2$mapping0_pack     00000001801c6d04     libvorbis:mapping0.obj
 0004:00001d10       $pdata$3$mapping0_pack     00000001801c6d10     libvorbis:mapping0.obj
 0004:00001d1c       $pdata$mapping0_free_info  00000001801c6d1c     libvorbis:mapping0.obj
 0004:00001d28       $pdata$res2_inverse        00000001801c6d28     libvorbis:res0.obj
 0004:00001d34       $pdata$res2_forward        00000001801c6d34     libvorbis:res0.obj
 0004:00001d40       $pdata$res2_class          00000001801c6d40     libvorbis:res0.obj
 0004:00001d4c       $pdata$0$res2_class        00000001801c6d4c     libvorbis:res0.obj
 0004:00001d58       $pdata$1$res2_class        00000001801c6d58     libvorbis:res0.obj
 0004:00001d64       $pdata$res1_inverse        00000001801c6d64     libvorbis:res0.obj
 0004:00001d70       $pdata$res1_class          00000001801c6d70     libvorbis:res0.obj
 0004:00001d7c       $pdata$res1_forward        00000001801c6d7c     libvorbis:res0.obj
 0004:00001d88       $pdata$0$res1_forward      00000001801c6d88     libvorbis:res0.obj
 0004:00001d94       $pdata$1$res1_forward      00000001801c6d94     libvorbis:res0.obj
 0004:00001da0       $pdata$res0_inverse        00000001801c6da0     libvorbis:res0.obj
 0004:00001dac       $pdata$_01inverse          00000001801c6dac     libvorbis:res0.obj
 0004:00001db8       $pdata$_01forward          00000001801c6db8     libvorbis:res0.obj
 0004:00001dc4       $pdata$1$_01forward        00000001801c6dc4     libvorbis:res0.obj
 0004:00001dd0       $pdata$2$_01forward        00000001801c6dd0     libvorbis:res0.obj
 0004:00001ddc       $pdata$_2class             00000001801c6ddc     libvorbis:res0.obj
 0004:00001de8       $pdata$_01class            00000001801c6de8     libvorbis:res0.obj
 0004:00001df4       $pdata$_encodepart         00000001801c6df4     libvorbis:res0.obj
 0004:00001e00       $pdata$2$_encodepart       00000001801c6e00     libvorbis:res0.obj
 0004:00001e0c       $pdata$3$_encodepart       00000001801c6e0c     libvorbis:res0.obj
 0004:00001e18       $pdata$local_book_besterror 00000001801c6e18     libvorbis:res0.obj
 0004:00001e24       $pdata$4$local_book_besterror 00000001801c6e24     libvorbis:res0.obj
 0004:00001e30       $pdata$5$local_book_besterror 00000001801c6e30     libvorbis:res0.obj
 0004:00001e3c       $pdata$res0_look           00000001801c6e3c     libvorbis:res0.obj
 0004:00001e48       $pdata$res0_unpack         00000001801c6e48     libvorbis:res0.obj
 0004:00001e54       $pdata$res0_pack           00000001801c6e54     libvorbis:res0.obj
 0004:00001e60       $pdata$0$res0_pack         00000001801c6e60     libvorbis:res0.obj
 0004:00001e6c       $pdata$1$res0_pack         00000001801c6e6c     libvorbis:res0.obj
 0004:00001e78       $pdata$res0_free_look      00000001801c6e78     libvorbis:res0.obj
 0004:00001e84       $pdata$1$res0_free_look    00000001801c6e84     libvorbis:res0.obj
 0004:00001e90       $pdata$2$res0_free_look    00000001801c6e90     libvorbis:res0.obj
 0004:00001e9c       $pdata$3$res0_free_look    00000001801c6e9c     libvorbis:res0.obj
 0004:00001ea8       $pdata$4$res0_free_look    00000001801c6ea8     libvorbis:res0.obj
 0004:00001eb4       $pdata$res0_free_info      00000001801c6eb4     libvorbis:res0.obj
 0004:00001ec0       $pdata$floor1_inverse2     00000001801c6ec0     libvorbis:floor1.obj
 0004:00001ecc       $pdata$2$floor1_inverse2   00000001801c6ecc     libvorbis:floor1.obj
 0004:00001ed8       $pdata$4$floor1_inverse2   00000001801c6ed8     libvorbis:floor1.obj
 0004:00001ee4       $pdata$5$floor1_inverse2   00000001801c6ee4     libvorbis:floor1.obj
 0004:00001ef0       $pdata$6$floor1_inverse2   00000001801c6ef0     libvorbis:floor1.obj
 0004:00001efc       $pdata$7$floor1_inverse2   00000001801c6efc     libvorbis:floor1.obj
 0004:00001f08       $pdata$floor1_inverse1     00000001801c6f08     libvorbis:floor1.obj
 0004:00001f14       $pdata$inspect_error       00000001801c6f14     libvorbis:floor1.obj
 0004:00001f20       $pdata$fit_line            00000001801c6f20     libvorbis:floor1.obj
 0004:00001f2c       $pdata$accumulate_fit      00000001801c6f2c     libvorbis:floor1.obj
 0004:00001f38       $pdata$render_line         00000001801c6f38     libvorbis:floor1.obj
 0004:00001f44       $pdata$floor1_look         00000001801c6f44     libvorbis:floor1.obj
 0004:00001f50       $pdata$0$floor1_look       00000001801c6f50     libvorbis:floor1.obj
 0004:00001f5c       $pdata$1$floor1_look       00000001801c6f5c     libvorbis:floor1.obj
 0004:00001f68       $pdata$2$floor1_look       00000001801c6f68     libvorbis:floor1.obj
 0004:00001f74       $pdata$3$floor1_look       00000001801c6f74     libvorbis:floor1.obj
 0004:00001f80       $pdata$floor1_unpack       00000001801c6f80     libvorbis:floor1.obj
 0004:00001f8c       $pdata$floor1_pack         00000001801c6f8c     libvorbis:floor1.obj
 0004:00001f98       $pdata$floor1_free_look    00000001801c6f98     libvorbis:floor1.obj
 0004:00001fa4       $pdata$floor1_free_info    00000001801c6fa4     libvorbis:floor1.obj
 0004:00001fb0       $pdata$floor1_interpolate_fit 00000001801c6fb0     libvorbis:floor1.obj
 0004:00001fbc       $pdata$0$floor1_interpolate_fit 00000001801c6fbc     libvorbis:floor1.obj
 0004:00001fc8       $pdata$1$floor1_interpolate_fit 00000001801c6fc8     libvorbis:floor1.obj
 0004:00001fd4       $pdata$2$floor1_interpolate_fit 00000001801c6fd4     libvorbis:floor1.obj
 0004:00001fe0       $pdata$6$floor1_interpolate_fit 00000001801c6fe0     libvorbis:floor1.obj
 0004:00001fec       $pdata$7$floor1_interpolate_fit 00000001801c6fec     libvorbis:floor1.obj
 0004:00001ff8       $pdata$8$floor1_interpolate_fit 00000001801c6ff8     libvorbis:floor1.obj
 0004:00002004       $pdata$floor1_encode       00000001801c7004     libvorbis:floor1.obj
 0004:00002010       $pdata$2$floor1_encode     00000001801c7010     libvorbis:floor1.obj
 0004:0000201c       $pdata$3$floor1_encode     00000001801c701c     libvorbis:floor1.obj
 0004:00002028       $pdata$floor1_fit          00000001801c7028     libvorbis:floor1.obj
 0004:00002034       $pdata$vorbis_lsp_to_curve 00000001801c7034     libvorbis:lsp.obj
 0004:00002040       $pdata$8$vorbis_lsp_to_curve 00000001801c7040     libvorbis:lsp.obj
 0004:0000204c       $pdata$9$vorbis_lsp_to_curve 00000001801c704c     libvorbis:lsp.obj
 0004:00002058       $pdata$vorbis_encode_setup_init 00000001801c7058     libvorbisenc:vorbisenc.obj
 0004:00002064       $pdata$3$vorbis_encode_setup_init 00000001801c7064     libvorbisenc:vorbisenc.obj
 0004:00002070       $pdata$4$vorbis_encode_setup_init 00000001801c7070     libvorbisenc:vorbisenc.obj
 0004:0000207c       $pdata$5$vorbis_encode_setup_init 00000001801c707c     libvorbisenc:vorbisenc.obj
 0004:00002088       $pdata$get_setup_template  00000001801c7088     libvorbisenc:vorbisenc.obj
 0004:00002094       $pdata$vorbis_encode_residue_setup 00000001801c7094     libvorbisenc:vorbisenc.obj
 0004:000020a0       $pdata$5$vorbis_encode_residue_setup 00000001801c70a0     libvorbisenc:vorbisenc.obj
 0004:000020ac       $pdata$6$vorbis_encode_residue_setup 00000001801c70ac     libvorbisenc:vorbisenc.obj
 0004:000020b8       $pdata$7$vorbis_encode_residue_setup 00000001801c70b8     libvorbisenc:vorbisenc.obj
 0004:000020c4       $pdata$8$vorbis_encode_residue_setup 00000001801c70c4     libvorbisenc:vorbisenc.obj
 0004:000020d0       $pdata$vorbis_encode_psyset_setup 00000001801c70d0     libvorbisenc:vorbisenc.obj
 0004:000020dc       $pdata$vorbis_encode_global_stereo 00000001801c70dc     libvorbisenc:vorbisenc.obj
 0004:000020e8       $pdata$1$vorbis_encode_global_stereo 00000001801c70e8     libvorbisenc:vorbisenc.obj
 0004:000020f4       $pdata$3$vorbis_encode_global_stereo 00000001801c70f4     libvorbisenc:vorbisenc.obj
 0004:00002100       $pdata$4$vorbis_encode_global_stereo 00000001801c7100     libvorbisenc:vorbisenc.obj
 0004:0000210c       $pdata$atan                00000001801c710c     libucrt:atan.obj
 0004:00002154       $pdata$sqrt                00000001801c7154     libucrt:sqrt.obj
 0004:00002190       $pdata$_sincos_special     00000001801c7190     libucrt:sincos_special.obj
 0004:0000219c       $pdata$_exp_special        00000001801c719c     libucrt:exp_special.obj
 0004:000021a8       $pdata$_pow_special        00000001801c71a8     libucrt:pow_special.obj
 0005:00000000       MsetTab                    00000001801c8000     libvcruntime:memset.obj
 0005:00000050       MoveSmall                  00000001801c8050     libvcruntime:memcpy.obj
 0006:00000060       $R000000                   00000001801c9060     * linker generated manifest res *

 Exports

  ordinal    name

        1    _register_vorbis_
